 hy3d_engine

 Timestamp is 615892b9 (Sat Oct  2 20:11:21 2021)

 Preferred load address is 0000000180000000

 Start         Length     Name                   Class
 0001:00000000 000376a0H .text$mn                CODE
 0001:000376a0 00000040H .text$mn$00             CODE
 0001:000376e0 000006edH .text$x                 CODE
 0002:00000000 00000250H .idata$5                DATA
 0002:00000250 00000028H .00cfg                  DATA
 0002:00000278 00000008H .CRT$XCA                DATA
 0002:00000280 00000008H .CRT$XCZ                DATA
 0002:00000288 00000008H .CRT$XIA                DATA
 0002:00000290 00000020H .CRT$XIC                DATA
 0002:000002b0 00000008H .CRT$XIZ                DATA
 0002:000002b8 00000008H .CRT$XPA                DATA
 0002:000002c0 00000010H .CRT$XPX                DATA
 0002:000002d0 00000008H .CRT$XPXA               DATA
 0002:000002d8 00000008H .CRT$XPZ                DATA
 0002:000002e0 00000008H .CRT$XTA                DATA
 0002:000002e8 00000008H .CRT$XTZ                DATA
 0002:000002f0 00000000H .gehcont$y              DATA
 0002:000002f0 00000000H .gfids$y                DATA
 0002:000002f0 00010d10H .rdata                  DATA
 0002:00011000 00000000H .rdata$CastGuardVftablesA DATA
 0002:00011000 00000000H .rdata$CastGuardVftablesC DATA
 0002:00011000 0000016cH .rdata$r                DATA
 0002:0001116c 000000e4H .rdata$voltmd           DATA
 0002:00011250 00000320H .rdata$zzzdbg           DATA
 0002:00011570 00000008H .rtc$IAA                DATA
 0002:00011578 00000008H .rtc$IZZ                DATA
 0002:00011580 00000008H .rtc$TAA                DATA
 0002:00011588 00000008H .rtc$TZZ                DATA
 0002:00011590 00001090H .xdata                  DATA
 0002:00012620 00000090H .xdata$x                DATA
 0002:000126b0 00000054H .edata                  DATA
 0002:00012704 00000014H .idata$2                DATA
 0002:00012718 00000018H .idata$3                DATA
 0002:00012730 00000250H .idata$4                DATA
 0002:00012980 00000576H .idata$6                DATA
 0003:00000000 00000a60H .data                   DATA
 0003:00000a60 00000050H .data$r                 DATA
 0003:00000ab0 00000020H .data$rs                DATA
 0003:00000ad0 000019c0H .bss                    DATA
 0004:00000000 00002dccH .pdata                  DATA
 0005:00000000 000000f4H _RDATA                  DATA

  Address         Publics by Value              Rva+Base               Lib:Object

 0000:00000000       __x64_code_ranges_to_entry_points_count 0000000000000000     <absolute>
 0000:00000000       __arm64x_redirection_metadata 0000000000000000     <absolute>
 0000:00000000       __guard_iat_table          0000000000000000     <absolute>
 0000:00000000       __guard_longjmp_table      0000000000000000     <absolute>
 0000:00000000       __guard_iat_count          0000000000000000     <absolute>
 0000:00000000       __x64_code_ranges_to_entry_points 0000000000000000     <absolute>
 0000:00000000       __guard_longjmp_count      0000000000000000     <absolute>
 0000:00000000       __dynamic_value_reloc_table 0000000000000000     <absolute>
 0000:00000000       __hybrid_auxiliary_iat     0000000000000000     <absolute>
 0000:00000000       __guard_fids_count         0000000000000000     <absolute>
 0000:00000000       __hybrid_auxiliary_iat_copy 0000000000000000     <absolute>
 0000:00000000       ___safe_se_handler_table   0000000000000000     <absolute>
 0000:00000000       __arm64x_extra_rfe_table   0000000000000000     <absolute>
 0000:00000000       __hybrid_code_map          0000000000000000     <absolute>
 0000:00000000       __arm64x_extra_rfe_table_size 0000000000000000     <absolute>
 0000:00000000       __AbsoluteZero             0000000000000000     <absolute>
 0000:00000000       ___safe_se_handler_count   0000000000000000     <absolute>
 0000:00000000       __guard_check_icall_a64n_fptr 0000000000000000     <absolute>
 0000:00000000       __guard_fids_table         0000000000000000     <absolute>
 0000:00000000       __guard_eh_cont_count      0000000000000000     <absolute>
 0000:00000000       __arm64x_redirection_metadata_count 0000000000000000     <absolute>
 0000:00000000       __enclave_config           0000000000000000     <absolute>
 0000:00000000       __guard_eh_cont_table      0000000000000000     <absolute>
 0000:00000000       __arm64x_native_entrypoint 0000000000000000     <absolute>
 0000:00000000       __hybrid_code_map_count    0000000000000000     <absolute>
 0000:00000100       __guard_flags              0000000000000100     <absolute>
 0000:00000000       __ImageBase                0000000180000000     <linker-defined>
 0001:00000000       UpdateAndRender            0000000180001000 f   hy3d_engine.obj
 0001:000000f0       ?dangerous_get_state_array@?$dual_state_global@PEAU__crt_multibyte_data@@@__crt_state_management@@QEAAPEAPEAU__crt_multibyte_data@@XZ 00000001800010f0 f i libucrtd:mbctype.obj
 0001:000000f0       ?get_address_of@?$__crt_unique_handle_t@U__crt_hmodule_traits@@@@QEAAPEAPEAUHINSTANCE__@@XZ 00000001800010f0 f i libucrtd:exit.obj
 0001:000000f0       ?dangerous_get_state_array@?$dual_state_global@PEAU__crt_locale_data@@@__crt_state_management@@QEAAPEAPEAU__crt_locale_data@@XZ 00000001800010f0 f i libucrtd:per_thread_data.obj
 0001:000000f0       ??$_Atomic_address_as@_JU?$_Atomic_padded@_J@std@@@std@@YAPEC_JAEAU?$_Atomic_padded@_J@0@@Z 00000001800010f0 f i libcpmtd:xtime.obj
 0001:000000f0       ??$_Atomic_address_as@_JU?$_Atomic_padded@_J@std@@@std@@YAPED_JAEBU?$_Atomic_padded@_J@0@@Z 00000001800010f0 f i libcpmtd:xtime.obj
 0001:000000f0       ??$forward@AEAViterator@TryBlockMap@__FrameHandler3@@@std@@YAAEAViterator@TryBlockMap@__FrameHandler3@@AEAV123@@Z 00000001800010f0 f i libvcruntimed:risctrnsctrl.obj
 0001:000000f0       ?debug_info@?$__crt_win32_buffer@_WU__crt_win32_buffer_internal_dynamic_resizing@@@@QEBAAEBV__crt_win32_buffer_empty_debug_info@@XZ 00000001800010f0 f i libucrtd:argv_wildcards.obj
 0001:000000f0       ?dangerous_get_state_array@?$dual_state_global@P6AXPEB_W00I_K@Z@__crt_state_management@@QEAAPEAP6AXPEB_W00I_K@ZXZ 00000001800010f0 f i libucrtd:invalid_parameter.obj
 0001:000000f0       ?dangerous_get_state_array@?$dual_state_global@PEAE@__crt_state_management@@QEAAPEAPEAEXZ 00000001800010f0 f i libucrtd:mbctype.obj
 0001:000000f0       ?get_address_of@?$__crt_unique_heap_ptr@PEADU__crt_internal_free_policy@@@@QEAAPEAPEAPEADXZ 00000001800010f0 f i libucrtd:argv_parsing.obj
 0001:000000f0       ?debug_info@?$__crt_win32_buffer@DU__crt_win32_buffer_internal_dynamic_resizing@@@@QEBAAEBV__crt_win32_buffer_empty_debug_info@@XZ 00000001800010f0 f i libucrtd:argv_wildcards.obj
 0001:000000f0       ?debug_info@?$__crt_win32_buffer@DU__crt_win32_buffer_no_resizing@@@@QEBAAEBV__crt_win32_buffer_empty_debug_info@@XZ 00000001800010f0 f i libucrtd:getmodulefilenamea.obj
 0001:00000100       ?public_stream@__crt_stdio_stream@@QEBAPEAU_iobuf@@XZ 0000000180001100 f i libucrtd:output.obj
 0001:00000100       ?save_state@?$c_string_character_source@D@__crt_strtox@@QEBAPEBDXZ 0000000180001100 f i libucrtd:atox.obj
 0001:00000100       ?get@?$__crt_unique_heap_ptr@U__crt_lowio_handle_data@@U__crt_internal_free_policy@@@@QEBAPEAU__crt_lowio_handle_data@@XZ 0000000180001100 f i libucrtd:osfinfo.obj
 0001:00000100       ?get@?$__crt_unique_heap_ptr@U__acrt_ptd@@U__crt_internal_free_policy@@@@QEBAPEAU__acrt_ptd@@XZ 0000000180001100 f i libucrtd:per_thread_data.obj
 0001:00000100       ??C__crt_stdio_stream@@QEBAPEAU__crt_stdio_stream_data@@XZ 0000000180001100 f i libucrtd:output.obj
 0001:00000100       ?get@?$__crt_unique_heap_ptr@U__vcrt_ptd@@U__crt_internal_free_policy@@@@QEBAPEAU__vcrt_ptd@@XZ 0000000180001100 f i libvcruntimed:per_thread_data.obj
 0001:00000100       ?get@?$__crt_unique_handle_t@U__crt_findfile_traits@@@@QEBAPEAXXZ 0000000180001100 f i libucrtd:argv_wildcards.obj
 0001:00000100       ?get@?$__crt_unique_heap_ptr@PEADU__crt_internal_free_policy@@@@QEBAPEAPEADXZ 0000000180001100 f i libucrtd:argv_parsing.obj
 0001:00000100       ?get@?$__crt_unique_heap_ptr@U__crt_multibyte_data@@U__crt_internal_free_policy@@@@QEBAPEAU__crt_multibyte_data@@XZ 0000000180001100 f i libucrtd:mbctype.obj
 0001:00000100       ??$_Atomic_reinterpret_as@_J_J@std@@YA_JAEB_J@Z 0000000180001100 f i libcpmtd:xtime.obj
 0001:00000100       ?get@?$__crt_unique_heap_ptr@DU__crt_internal_free_policy@@@@QEBAPEADXZ 0000000180001100 f i libvcruntimed:std_type_info.obj
 0001:00000100       ?get@?$__crt_unique_heap_ptr@DU__crt_public_free_policy@@@@QEBAPEADXZ 0000000180001100 f i libvcruntimed:std_exception.obj
 0001:00000100       ?save_state@?$c_string_character_source@_W@__crt_strtox@@QEBAPEB_WXZ 0000000180001100 f i libucrtd:atox.obj
 0001:00000100       ?get@?$__crt_unique_handle_t@U__crt_hmodule_traits@@@@QEBAPEAUHINSTANCE__@@XZ 0000000180001100 f i libucrtd:exit.obj
 0001:00000100       ?get@?$__crt_scoped_stack_ptr@_W@@QEBAPEA_WXZ 0000000180001100 f i libucrtd:getstringtypea.obj
 0001:00000100       ?get@?$__crt_unique_heap_ptr@EU__crt_internal_free_policy@@@@QEBAPEAEXZ 0000000180001100 f i libucrtd:argv_parsing.obj
 0001:00000110       ?_Load_barrier@std@@YAXW4memory_order@1@@Z 0000000180001110 f i libcpmtd:xtime.obj
 0001:000001d0       ?load@?$_Atomic_storage@_J$07@std@@QEBA_JW4memory_order@2@@Z 00000001800011d0 f i libcpmtd:xtime.obj
 0001:00000210       ?store@?$_Atomic_storage@_J$07@std@@QEAAX_J@Z 0000000180001210 f i libcpmtd:xtime.obj
 0001:00000260       ?store@?$_Atomic_storage@_J$07@std@@QEAAX_JW4memory_order@2@@Z 0000000180001260 f i libcpmtd:xtime.obj
 0001:00000380       _Query_perf_counter        0000000180001380 f   libcpmtd:xtime.obj
 0001:000003a0       _Query_perf_frequency      00000001800013a0 f   libcpmtd:xtime.obj
 0001:00000e20       _DllMainCRTStartup         0000000180001e20 f   LIBCMTD:dll_dllmain.obj
 0001:00000e60       __GSHandlerCheck           0000000180001e60 f   LIBCMTD:gshandler.obj
 0001:00000ea0       __GSHandlerCheckCommon     0000000180001ea0 f   LIBCMTD:gshandler.obj
 0001:00000fb0       __security_check_cookie    0000000180001fb0 f   LIBCMTD:amdsecgs.obj
 0001:00000fd0       _guard_check_icall_nop     0000000180001fd0 f i LIBCMTD:guard_support.obj
 0001:00000fd0       ??1scoped_global_state_reset@__crt_state_management@@QEAA@XZ 0000000180001fd0 f i libucrtd:onexit.obj
 0001:00000fd0       ??1?$__crt_simd_cleanup_guard@$0A@@@QEAA@XZ 0000000180001fd0 f i libucrtd:strnlen.obj
 0001:00000fe0       ReadNoFence64              0000000180001fe0 f i LIBCMTD:guard_support.obj
 0001:00001000       ReadPointerNoFence         0000000180002000 f i LIBCMTD:guard_support.obj
 0001:00001020       _guard_icall_checks_enforced 0000000180002020 f i LIBCMTD:guard_support.obj
 0001:00001120       __security_init_cookie     0000000180002120 f   LIBCMTD:gs_support.obj
 0001:000011a0       DllMain                    00000001800021a0 f   LIBCMTD:dll_dllmain_stub.obj
 0001:000011c0       ?__scrt_initialize_type_info@@YAXXZ 00000001800021c0 f   LIBCMTD:tncleanup.obj
 0001:000011e0       ?__scrt_uninitialize_type_info@@YAXXZ 00000001800021e0 f   LIBCMTD:tncleanup.obj
 0001:00001200       __local_stdio_printf_options 0000000180002200 f i LIBCMTD:default_local_stdio_options.obj
 0001:00001210       __local_stdio_scanf_options 0000000180002210 f i LIBCMTD:default_local_stdio_options.obj
 0001:00001220       __scrt_initialize_default_local_stdio_options 0000000180002220 f   LIBCMTD:default_local_stdio_options.obj
 0001:00001270       ?configure_argv@__scrt_narrow_argv_policy@@SAHXZ 0000000180002270 f i LIBCMTD:utility.obj
 0001:00001360       ?initialize_environment@__scrt_narrow_environment_policy@@SAHXZ 0000000180002360 f i LIBCMTD:utility.obj
 0001:00001400       NtCurrentTeb               0000000180002400 f i LIBCMTD:utility.obj
 0001:00001410       __scrt_acquire_startup_lock 0000000180002410 f   LIBCMTD:utility.obj
 0001:00001480       __scrt_dllmain_after_initialize_c 0000000180002480 f   LIBCMTD:utility.obj
 0001:000014b0       __scrt_dllmain_before_initialize_c 00000001800024b0 f   LIBCMTD:utility.obj
 0001:000014d0       __scrt_dllmain_crt_thread_attach 00000001800024d0 f   LIBCMTD:utility.obj
 0001:00001500       __scrt_dllmain_crt_thread_detach 0000000180002500 f   LIBCMTD:utility.obj
 0001:00001520       __scrt_dllmain_exception_filter 0000000180002520 f   LIBCMTD:utility.obj
 0001:00001590       __scrt_dllmain_uninitialize_c 0000000180002590 f   LIBCMTD:utility.obj
 0001:000015c0       __scrt_dllmain_uninitialize_critical 00000001800025c0 f   LIBCMTD:utility.obj
 0001:000015e0       __scrt_initialize_crt      00000001800025e0 f   LIBCMTD:utility.obj
 0001:00001630       __scrt_initialize_onexit_tables 0000000180002630 f   LIBCMTD:utility.obj
 0001:00001740       __scrt_is_nonwritable_in_current_image 0000000180002740 f   LIBCMTD:utility.obj
 0001:000017d0       __scrt_release_startup_lock 00000001800027d0 f   LIBCMTD:utility.obj
 0001:00001800       __scrt_uninitialize_crt    0000000180002800 f   LIBCMTD:utility.obj
 0001:00001840       __scrt_get_dyn_tls_init_callback 0000000180002840 f   LIBCMTD:dyn_tls_init.obj
 0001:00001850       __crt_debugger_hook        0000000180002850 f   LIBCMTD:utility_desktop.obj
 0001:00001860       __scrt_fastfail            0000000180002860 f   LIBCMTD:utility_desktop.obj
 0001:00001a00       _RTC_Initialize            0000000180002a00 f   LIBCMTD:initsect.obj
 0001:00001a50       _RTC_Terminate             0000000180002a50 f   LIBCMTD:initsect.obj
 0001:00001aa0       __raise_securityfailure    0000000180002aa0 f   LIBCMTD:gs_report.obj
 0001:00001ae0       __report_gsfailure         0000000180002ae0 f   LIBCMTD:gs_report.obj
 0001:00001bc0       __report_rangecheckfailure 0000000180002bc0 f   LIBCMTD:gs_report.obj
 0001:00001be0       __report_securityfailure   0000000180002be0 f   LIBCMTD:gs_report.obj
 0001:00001de0       __isa_available_init       0000000180002de0 f   LIBCMTD:cpu_disp.obj
 0001:00002180       _get_startup_argv_mode     0000000180003180 f   LIBCMTD:argv_mode.obj
 0001:00002190       __scrt_is_ucrt_dll_in_use  0000000180003190 f   LIBCMTD:ucrt_detection.obj
 0001:000021c0       __C_specific_handler       00000001800031c0 f   libvcruntimed:riscchandler.obj
 0001:00002630       ??$?RPEAU__crt_stdio_stream_data@@@__crt_internal_free_policy@@QEBAXQEBQEAU__crt_stdio_stream_data@@@Z 0000000180003630 f i libucrtd:_file.obj
 0001:00002630       ??$?RU__vcrt_ptd@@@__crt_internal_free_policy@@QEBAXQEBU__vcrt_ptd@@@Z 0000000180003630 f i libvcruntimed:per_thread_data.obj
 0001:00002630       ??$?RU__crt_multibyte_data@@@__crt_internal_free_policy@@QEBAXQEBU__crt_multibyte_data@@@Z 0000000180003630 f i libucrtd:mbctype.obj
 0001:00002630       ??$?RD@__crt_internal_free_policy@@QEBAXQEBD@Z 0000000180003630 f i libvcruntimed:std_type_info.obj
 0001:00002630       ??$?RU__crt_lowio_handle_data@@@__crt_internal_free_policy@@QEBAXQEBU__crt_lowio_handle_data@@@Z 0000000180003630 f i libucrtd:osfinfo.obj
 0001:00002630       ??$?RU__acrt_ptd@@@__crt_internal_free_policy@@QEBAXQEBU__acrt_ptd@@@Z 0000000180003630 f i libucrtd:per_thread_data.obj
 0001:00002630       ??$?RE@__crt_internal_free_policy@@QEBAXQEBE@Z 0000000180003630 f i libucrtd:argv_parsing.obj
 0001:00002630       ??$?RPEAD@__crt_internal_free_policy@@QEBAXQEBQEAD@Z 0000000180003630 f i libucrtd:argv_parsing.obj
 0001:00002660       ??0?$__crt_scoped_stack_ptr@_W@@QEAA@U?$__crt_scoped_stack_ptr_tag@_W@@@Z 0000000180003660 f i libucrtd:getstringtypea.obj
 0001:00002660       ??0?$__crt_unique_heap_ptr@DU__crt_public_free_policy@@@@QEAA@QEAD@Z 0000000180003660 f i libvcruntimed:std_exception.obj
 0001:00002660       ??0?$__crt_unique_handle_t@U__crt_findfile_traits@@@@QEAA@QEAX@Z 0000000180003660 f i libucrtd:argv_wildcards.obj
 0001:00002660       ??0?$__crt_unique_heap_ptr@U__crt_multibyte_data@@U__crt_internal_free_policy@@@@QEAA@QEAU__crt_multibyte_data@@@Z 0000000180003660 f i libucrtd:mbctype.obj
 0001:00002660       ??0?$__crt_unique_heap_ptr@EU__crt_internal_free_policy@@@@QEAA@QEAE@Z 0000000180003660 f i libucrtd:argv_parsing.obj
 0001:00002660       ??0?$__crt_unique_heap_ptr@PEADU__crt_internal_free_policy@@@@QEAA@QEAPEAD@Z 0000000180003660 f i libucrtd:argv_parsing.obj
 0001:00002660       ??0?$__crt_unique_heap_ptr@DU__crt_internal_free_policy@@@@QEAA@QEAD@Z 0000000180003660 f i libvcruntimed:std_type_info.obj
 0001:00002660       ??0?$__crt_unique_heap_ptr@U__crt_lowio_handle_data@@U__crt_internal_free_policy@@@@QEAA@QEAU__crt_lowio_handle_data@@@Z 0000000180003660 f i libucrtd:osfinfo.obj
 0001:00002660       ??0?$__crt_unique_heap_ptr@U__acrt_ptd@@U__crt_internal_free_policy@@@@QEAA@QEAU__acrt_ptd@@@Z 0000000180003660 f i libucrtd:per_thread_data.obj
 0001:00002660       ??0?$__crt_unique_handle_t@U__crt_hmodule_traits@@@@QEAA@QEAUHINSTANCE__@@@Z 0000000180003660 f i libucrtd:exit.obj
 0001:00002660       ??0?$__crt_scoped_stack_ptr_tag@_W@@QEAA@QEA_W@Z 0000000180003660 f i libucrtd:getstringtypea.obj
 0001:00002660       ??0?$string_output_adapter@D@__crt_stdio_output@@QEAA@QEAU?$string_output_adapter_context@D@1@@Z 0000000180003660 f i libucrtd:output.obj
 0001:00002660       ??0?$__crt_unique_heap_ptr@PEAU__crt_stdio_stream_data@@U__crt_internal_free_policy@@@@QEAA@QEAPEAU__crt_stdio_stream_data@@@Z 0000000180003660 f i libucrtd:_file.obj
 0001:00002660       ??0?$__crt_unique_heap_ptr@U__vcrt_ptd@@U__crt_internal_free_policy@@@@QEAA@QEAU__vcrt_ptd@@@Z 0000000180003660 f i libvcruntimed:per_thread_data.obj
 0001:00002660       ??0?$string_output_adapter@_W@__crt_stdio_output@@QEAA@QEAU?$string_output_adapter_context@_W@1@@Z 0000000180003660 f i libucrtd:output.obj
 0001:00002660       ??0__crt_stdio_stream@@QEAA@QEAU__crt_stdio_stream_data@@@Z 0000000180003660 f i libucrtd:fflush.obj
 0001:00002660       ??0__crt_stdio_stream@@QEAA@QEAU_iobuf@@@Z 0000000180003660 f i libucrtd:output.obj
 0001:00002680       ??1?$__crt_unique_heap_ptr@PEAU__crt_stdio_stream_data@@U__crt_internal_free_policy@@@@QEAA@XZ 0000000180003680 f i libucrtd:_file.obj
 0001:00002680       ??1?$__crt_unique_heap_ptr@U__acrt_ptd@@U__crt_internal_free_policy@@@@QEAA@XZ 0000000180003680 f i libucrtd:per_thread_data.obj
 0001:00002680       ??1?$__crt_unique_heap_ptr@PEADU__crt_internal_free_policy@@@@QEAA@XZ 0000000180003680 f i libucrtd:argv_parsing.obj
 0001:00002680       ??1?$__crt_unique_heap_ptr@U__crt_multibyte_data@@U__crt_internal_free_policy@@@@QEAA@XZ 0000000180003680 f i libucrtd:mbctype.obj
 0001:00002680       ??1?$__crt_unique_heap_ptr@U__vcrt_ptd@@U__crt_internal_free_policy@@@@QEAA@XZ 0000000180003680 f i libvcruntimed:per_thread_data.obj
 0001:00002680       ??1?$__crt_unique_heap_ptr@EU__crt_internal_free_policy@@@@QEAA@XZ 0000000180003680 f i libucrtd:argv_parsing.obj
 0001:00002680       ??1?$__crt_unique_heap_ptr@DU__crt_internal_free_policy@@@@QEAA@XZ 0000000180003680 f i libvcruntimed:std_type_info.obj
 0001:00002680       ??1?$__crt_unique_heap_ptr@U__crt_lowio_handle_data@@U__crt_internal_free_policy@@@@QEAA@XZ 0000000180003680 f i libucrtd:osfinfo.obj
 0001:000026a0       ??B?$__crt_unique_heap_ptr@U__acrt_ptd@@U__crt_internal_free_policy@@@@QEBA_NXZ 00000001800036a0 f i libucrtd:per_thread_data.obj
 0001:000026a0       ??B?$__crt_unique_heap_ptr@DU__crt_public_free_policy@@@@QEBA_NXZ 00000001800036a0 f i libvcruntimed:std_exception.obj
 0001:000026a0       ??B?$__crt_unique_heap_ptr@EU__crt_internal_free_policy@@@@QEBA_NXZ 00000001800036a0 f i libucrtd:argv_parsing.obj
 0001:000026a0       ??B?$__crt_unique_heap_ptr@U__crt_lowio_handle_data@@U__crt_internal_free_policy@@@@QEBA_NXZ 00000001800036a0 f i libucrtd:osfinfo.obj
 0001:000026a0       ??B?$__crt_unique_heap_ptr@U__crt_multibyte_data@@U__crt_internal_free_policy@@@@QEBA_NXZ 00000001800036a0 f i libucrtd:mbctype.obj
 0001:000026a0       ??B?$__crt_unique_heap_ptr@DU__crt_internal_free_policy@@@@QEBA_NXZ 00000001800036a0 f i libvcruntimed:std_type_info.obj
 0001:000026a0       ??B?$__crt_unique_heap_ptr@U__vcrt_ptd@@U__crt_internal_free_policy@@@@QEBA_NXZ 00000001800036a0 f i libvcruntimed:per_thread_data.obj
 0001:000026c0       ?__crt_interlocked_read_64@@YA_JPED_J@Z 00000001800036c0 f i libvcruntimed:std_type_info.obj
 0001:000026e0       ?is_valid@?$__crt_unique_heap_ptr@EU__crt_internal_free_policy@@@@QEBA_NXZ 00000001800036e0 f i libucrtd:argv_parsing.obj
 0001:000026e0       ?is_valid@?$__crt_unique_heap_ptr@U__acrt_ptd@@U__crt_internal_free_policy@@@@QEBA_NXZ 00000001800036e0 f i libucrtd:per_thread_data.obj
 0001:000026e0       ?is_valid@?$__crt_unique_heap_ptr@DU__crt_internal_free_policy@@@@QEBA_NXZ 00000001800036e0 f i libvcruntimed:std_type_info.obj
 0001:000026e0       ?is_valid@?$__crt_unique_heap_ptr@U__crt_lowio_handle_data@@U__crt_internal_free_policy@@@@QEBA_NXZ 00000001800036e0 f i libucrtd:osfinfo.obj
 0001:000026e0       ??B?$__crt_scoped_stack_ptr@_W@@QEBA_NXZ 00000001800036e0 f i libucrtd:lcmapstringa.obj
 0001:000026e0       ?is_valid@?$__crt_unique_heap_ptr@DU__crt_public_free_policy@@@@QEBA_NXZ 00000001800036e0 f i libvcruntimed:std_exception.obj
 0001:000026e0       ?is_valid@?$__crt_unique_heap_ptr@U__vcrt_ptd@@U__crt_internal_free_policy@@@@QEBA_NXZ 00000001800036e0 f i libvcruntimed:per_thread_data.obj
 0001:000026e0       ?valid@__crt_stdio_stream@@QEBA_NXZ 00000001800036e0 f i libucrtd:output.obj
 0001:000026e0       ?is_valid@?$__crt_unique_heap_ptr@U__crt_multibyte_data@@U__crt_internal_free_policy@@@@QEBA_NXZ 00000001800036e0 f i libucrtd:mbctype.obj
 0001:00002710       ?release@?$__crt_unique_heap_ptr@PEAU__crt_stdio_stream_data@@U__crt_internal_free_policy@@@@QEAAXXZ 0000000180003710 f i libucrtd:_file.obj
 0001:00002710       ?release@?$__crt_unique_heap_ptr@PEADU__crt_internal_free_policy@@@@QEAAXXZ 0000000180003710 f i libucrtd:argv_parsing.obj
 0001:00002710       ?release@?$__crt_unique_heap_ptr@U__acrt_ptd@@U__crt_internal_free_policy@@@@QEAAXXZ 0000000180003710 f i libucrtd:per_thread_data.obj
 0001:00002710       ?release@?$__crt_unique_heap_ptr@U__vcrt_ptd@@U__crt_internal_free_policy@@@@QEAAXXZ 0000000180003710 f i libvcruntimed:per_thread_data.obj
 0001:00002710       ?release@?$__crt_unique_heap_ptr@EU__crt_internal_free_policy@@@@QEAAXXZ 0000000180003710 f i libucrtd:argv_parsing.obj
 0001:00002710       ?release@?$__crt_unique_heap_ptr@U__crt_multibyte_data@@U__crt_internal_free_policy@@@@QEAAXXZ 0000000180003710 f i libucrtd:mbctype.obj
 0001:00002710       ?release@?$__crt_unique_heap_ptr@DU__crt_internal_free_policy@@@@QEAAXXZ 0000000180003710 f i libvcruntimed:std_type_info.obj
 0001:00002710       ?release@?$__crt_unique_heap_ptr@U__crt_lowio_handle_data@@U__crt_internal_free_policy@@@@QEAAXXZ 0000000180003710 f i libucrtd:osfinfo.obj
 0001:00002740       __std_type_info_compare    0000000180003740 f   libvcruntimed:std_type_info.obj
 0001:00002780       __std_type_info_destroy_list 0000000180003780 f   libvcruntimed:std_type_info.obj
 0001:000027e0       __vcrt_initialize          00000001800037e0 f   libvcruntimed:initialization.obj
 0001:00002820       __vcrt_thread_attach       0000000180003820 f   libvcruntimed:initialization.obj
 0001:00002840       __vcrt_thread_detach       0000000180003840 f   libvcruntimed:initialization.obj
 0001:00002860       __vcrt_uninitialize        0000000180003860 f   libvcruntimed:initialization.obj
 0001:00002880       __vcrt_uninitialize_critical 0000000180003880 f   libvcruntimed:initialization.obj
 0001:000028a0       __DestructExceptionObject  00000001800038a0 f   libvcruntimed:ehhelpers.obj
 0001:000029a0       ?_CallMemberFunction0@@YAXQEAX0@Z 00000001800039a0 f i libvcruntimed:ehhelpers.obj
 0001:00002a70       _IsExceptionObjectToBeDestroyed 0000000180003a70 f   libvcruntimed:ehhelpers.obj
 0001:00002ac0       __AdjustPointer            0000000180003ac0 f   libvcruntimed:ehhelpers.obj
 0001:00002b40       __FrameUnwindFilter        0000000180003b40 f   libvcruntimed:ehhelpers.obj
 0001:00002c00       _NLG_Notify                0000000180003c00 f   libvcruntimed:notify.obj
 0001:00002c20       __NLG_Dispatch2            0000000180003c20 f   libvcruntimed:notify.obj
 0001:00002c30       __NLG_Return2              0000000180003c30 f   libvcruntimed:notify.obj
 0001:00002c40       __except_validate_context_record 0000000180003c40 f   libvcruntimed:jbcxrval.obj
 0001:00002ca0       _vsprintf_s_l              0000000180003ca0 f i libvcruntimed:undname.obj
 0001:00002d10       sprintf_s                  0000000180003d10 f i libvcruntimed:undname.obj
 0001:00002db0       ?detach@?$__crt_unique_heap_ptr@U__crt_lowio_handle_data@@U__crt_internal_free_policy@@@@QEAAPEAU__crt_lowio_handle_data@@XZ 0000000180003db0 f i libucrtd:osfinfo.obj
 0001:00002db0       ?detach@?$__crt_unique_heap_ptr@U__crt_multibyte_data@@U__crt_internal_free_policy@@@@QEAAPEAU__crt_multibyte_data@@XZ 0000000180003db0 f i libucrtd:mbctype.obj
 0001:00002db0       ?detach@?$__crt_unique_heap_ptr@PEADU__crt_internal_free_policy@@@@QEAAPEAPEADXZ 0000000180003db0 f i libucrtd:argv_parsing.obj
 0001:00002db0       ?detach@?$__crt_unique_heap_ptr@EU__crt_internal_free_policy@@@@QEAAPEAEXZ 0000000180003db0 f i libucrtd:argv_parsing.obj
 0001:00002db0       ?detach@?$__crt_unique_heap_ptr@DU__crt_public_free_policy@@@@QEAAPEADXZ 0000000180003db0 f i libvcruntimed:std_exception.obj
 0001:00002db0       ?detach@?$__crt_unique_heap_ptr@PEAU__crt_stdio_stream_data@@U__crt_internal_free_policy@@@@QEAAPEAPEAU__crt_stdio_stream_data@@XZ 0000000180003db0 f i libucrtd:_file.obj
 0001:00002db0       ?detach@?$__crt_unique_heap_ptr@U__vcrt_ptd@@U__crt_internal_free_policy@@@@QEAAPEAU__vcrt_ptd@@XZ 0000000180003db0 f i libvcruntimed:per_thread_data.obj
 0001:00002db0       ?detach@?$__crt_unique_heap_ptr@U__acrt_ptd@@U__crt_internal_free_policy@@@@QEAAPEAU__acrt_ptd@@XZ 0000000180003db0 f i libucrtd:per_thread_data.obj
 0001:00002e20       __vcrt_freefls             0000000180003e20 f   libvcruntimed:per_thread_data.obj
 0001:00002e60       __vcrt_freeptd             0000000180003e60 f   libvcruntimed:per_thread_data.obj
 0001:00002ec0       __vcrt_getptd              0000000180003ec0 f   libvcruntimed:per_thread_data.obj
 0001:00002ef0       __vcrt_getptd_noexit       0000000180003ef0 f   libvcruntimed:per_thread_data.obj
 0001:00003090       __vcrt_initialize_ptd      0000000180004090 f   libvcruntimed:per_thread_data.obj
 0001:000030e0       __vcrt_uninitialize_ptd    00000001800040e0 f   libvcruntimed:per_thread_data.obj
 0001:00003110       __vcrt_initialize_locks    0000000180004110 f   libvcruntimed:locks.obj
 0001:00003180       __vcrt_uninitialize_locks  0000000180004180 f   libvcruntimed:locks.obj
 0001:000031f0       memcpy_repmovs             00000001800041f0 f   libvcruntimed:memcpy.obj
 0001:00003210       memmove                    0000000180004210 f   libvcruntimed:memcpy.obj
 0001:00003210       memcpy                     0000000180004210 f   libvcruntimed:memcpy.obj
 0001:00003890       ??$?0AEAViterator@TryBlockMap@__FrameHandler3@@AEAV012@$0A@@?$pair@Viterator@TryBlockMap@__FrameHandler3@@V123@@std@@QEAA@AEAViterator@TryBlockMap@__FrameHandler3@@0@Z 0000000180004890 f i libvcruntimed:risctrnsctrl.obj
 0001:000039a0       ??$_CallSETranslator@V__FrameHandler3@@@@YAHPEAUEHExceptionRecord@@PEA_KPEAU_CONTEXT@@PEAU_xDISPATCHER_CONTEXT@@PEBU_s_FuncInfo@@K1H@Z 00000001800049a0 f i libvcruntimed:risctrnsctrl.obj
 0001:00003a30       ??0iterator@TryBlockMap@__FrameHandler3@@QEAA@AEAV12@I@Z 0000000180004a30 f i libvcruntimed:risctrnsctrl.obj
 0001:00003a30       ??0iterator@HandlerMap@__FrameHandler3@@QEAA@AEAV12@I@Z 0000000180004a30 f i libvcruntimed:frame.obj
 0001:00003a60       ?CatchTryBlock@__FrameHandler3@@SAPEBU_s_TryBlockMapEntry@@PEBU_s_FuncInfo@@H@Z 0000000180004a60 f   libvcruntimed:risctrnsctrl.obj
 0001:00003af0       ?ExecutionInCatch@__FrameHandler3@@SA_NPEAU_xDISPATCHER_CONTEXT@@PEBU_s_FuncInfo@@@Z 0000000180004af0 f   libvcruntimed:risctrnsctrl.obj
 0001:00003b40       ?FrameUnwindToEmptyState@__FrameHandler3@@SAXPEA_KPEAU_xDISPATCHER_CONTEXT@@PEBU_s_FuncInfo@@@Z 0000000180004b40 f   libvcruntimed:risctrnsctrl.obj
 0001:00003be0       ?GetEstablisherFrame@__FrameHandler3@@SAPEA_KPEA_KPEAU_xDISPATCHER_CONTEXT@@PEBU_s_FuncInfo@@0@Z 0000000180004be0 f   libvcruntimed:risctrnsctrl.obj
 0001:00003d50       ?GetRangeOfTrysToCheck@__FrameHandler3@@SA?AU?$pair@Viterator@TryBlockMap@__FrameHandler3@@V123@@std@@AEAVTryBlockMap@1@HPEAU_xDISPATCHER_CONTEXT@@PEBU_s_FuncInfo@@H@Z 0000000180004d50 f   libvcruntimed:risctrnsctrl.obj
 0001:00003f90       ?UnwindNestedFrames@__FrameHandler3@@SAXPEA_KPEAUEHExceptionRecord@@PEAU_CONTEXT@@0PEAXPEBU_s_FuncInfo@@HHPEBU_s_HandlerType@@PEAU_xDISPATCHER_CONTEXT@@E@Z 0000000180004f90 f   libvcruntimed:risctrnsctrl.obj
 0001:00004100       _CreateFrameInfo           0000000180005100 f   libvcruntimed:risctrnsctrl.obj
 0001:00004170       _FindAndUnlinkFrame        0000000180005170 f   libvcruntimed:risctrnsctrl.obj
 0001:000041f0       _GetImageBase              00000001800051f0 f   libvcruntimed:risctrnsctrl.obj
 0001:00004210       _GetThrowImageBase         0000000180005210 f   libvcruntimed:risctrnsctrl.obj
 0001:00004230       _SetImageBase              0000000180005230 f   libvcruntimed:risctrnsctrl.obj
 0001:00004250       _SetThrowImageBase         0000000180005250 f   libvcruntimed:risctrnsctrl.obj
 0001:00004270       __CxxFrameHandler3         0000000180005270 f   libvcruntimed:risctrnsctrl.obj
 0001:00004350       ??$__crt_interlocked_exchange_pointer@UHINSTANCE__@@PEAU1@@@YAPEAUHINSTANCE__@@PEDSEAU0@QEAU0@@Z 0000000180005350 f i libvcruntimed:winapi_downlevel.obj
 0001:00004350       ??$__crt_interlocked_exchange_pointer@UHINSTANCE__@@PEAX@@YAPEAUHINSTANCE__@@PEDSEAU0@QEAX@Z 0000000180005350 f i libvcruntimed:winapi_downlevel.obj
 0001:00004350       ??$__crt_interlocked_exchange_pointer@XPEAX@@YAPEAXPEDSEAXQEAX@Z 0000000180005350 f i libvcruntimed:winapi_downlevel.obj
 0001:00004370       ??$__crt_interlocked_read_pointer@X@@YAPEAXPEDSEAX@Z 0000000180005370 f i libvcruntimed:winapi_downlevel.obj
 0001:00004370       ??$__crt_interlocked_read_pointer@UHINSTANCE__@@@@YAPEAUHINSTANCE__@@PEDSEAU0@@Z 0000000180005370 f i libvcruntimed:winapi_downlevel.obj
 0001:00004390       ?get_invalid_value@__crt_findfile_traits@@SAPEAXXZ 0000000180005390 f   libucrtd:argv_wildcards.obj
 0001:00004880       __vcrt_FlsAlloc            0000000180005880 f   libvcruntimed:winapi_downlevel.obj
 0001:000048d0       __vcrt_FlsFree             00000001800058d0 f   libvcruntimed:winapi_downlevel.obj
 0001:00004920       __vcrt_FlsGetValue         0000000180005920 f   libvcruntimed:winapi_downlevel.obj
 0001:00004970       __vcrt_FlsSetValue         0000000180005970 f   libvcruntimed:winapi_downlevel.obj
 0001:000049d0       __vcrt_InitializeCriticalSectionEx 00000001800059d0 f   libvcruntimed:winapi_downlevel.obj
 0001:00004a40       ?GetCurrentState@__FrameHandler3@@SAHPEA_KPEAU_xDISPATCHER_CONTEXT@@PEBU_s_FuncInfo@@@Z 0000000180005a40 f   libvcruntimed:ehstate.obj
 0001:00004aa0       ?GetUnwindTryBlock@__FrameHandler3@@SAHPEA_KPEAU_xDISPATCHER_CONTEXT@@PEBU_s_FuncInfo@@@Z 0000000180005aa0 f   libvcruntimed:ehstate.obj
 0001:00004af0       ?SetState@__FrameHandler3@@SAXPEA_KPEBU_s_FuncInfo@@H@Z 0000000180005af0 f   libvcruntimed:ehstate.obj
 0001:00004b20       ?SetUnwindTryBlock@__FrameHandler3@@SAXPEA_KPEAU_xDISPATCHER_CONTEXT@@PEBU_s_FuncInfo@@H@Z 0000000180005b20 f   libvcruntimed:ehstate.obj
 0001:00004b90       ?StateFromControlPc@__FrameHandler3@@SAHPEBU_s_FuncInfo@@PEAU_xDISPATCHER_CONTEXT@@@Z 0000000180005b90 f   libvcruntimed:ehstate.obj
 0001:00004bd0       ?StateFromIp@__FrameHandler3@@SAHPEBU_s_FuncInfo@@PEAU_xDISPATCHER_CONTEXT@@_K@Z 0000000180005bd0 f   libvcruntimed:ehstate.obj
 0001:00004cc0       ?__RVAtoRealOffset@@YA_KPEAU_xDISPATCHER_CONTEXT@@H@Z 0000000180005cc0 f i libvcruntimed:ehstate.obj
 0001:00005e90       ??$TypeMatchHelper@V__FrameHandler3@@@@YAHPEBU_s_HandlerType@@PEBU_s_CatchableType@@PEBU_s_ThrowInfo@@@Z 0000000180006e90 f i libvcruntimed:frame.obj
 0001:00006090       ??$__InternalCxxFrameHandler@V__FrameHandler3@@@@YA?AW4_EXCEPTION_DISPOSITION@@PEAUEHExceptionRecord@@PEA_KPEAU_CONTEXT@@PEAU_xDISPATCHER_CONTEXT@@PEBU_s_FuncInfo@@H1E@Z 0000000180007090 f i libvcruntimed:frame.obj
 0001:00006500       ??0HandlerMap@__FrameHandler3@@QEAA@PEBU_s_TryBlockMapEntry@@_KI@Z 0000000180007500 f i libvcruntimed:frame.obj
 0001:00006550       ??0TryBlockMap@__FrameHandler3@@QEAA@PEBU_s_FuncInfo@@_K@Z 0000000180007550 f i libvcruntimed:frame.obj
 0001:00006580       ??0bad_exception@std@@QEAA@AEBV01@@Z 0000000180007580 f i libvcruntimed:frame.obj
 0001:000065c0       ??0bad_exception@std@@QEAA@XZ 00000001800075c0 f i libvcruntimed:frame.obj
 0001:00006600       ??0exception@std@@QEAA@AEBV01@@Z 0000000180007600 f i libvcruntimed:frame.obj
 0001:00006660       ??0exception@std@@QEAA@QEBDH@Z 0000000180007660 f i libvcruntimed:frame.obj
 0001:000066b0       ??1bad_exception@std@@UEAA@XZ 00000001800076b0 f i libvcruntimed:frame.obj
 0001:000066d0       ??1exception@std@@UEAA@XZ  00000001800076d0 f i libvcruntimed:frame.obj
 0001:00006700       ??8iterator@HandlerMap@__FrameHandler3@@QEBA_NAEBV012@@Z 0000000180007700 f i libvcruntimed:frame.obj
 0001:00006740       ??8type_info@@QEBA_NAEBV0@@Z 0000000180007740 f i libvcruntimed:frame.obj
 0001:00006790       ??9iterator@HandlerMap@__FrameHandler3@@QEBA_NAEBV012@@Z 0000000180007790 f i libvcruntimed:frame.obj
 0001:000067d0       ??Diterator@HandlerMap@__FrameHandler3@@QEAA?BU_s_HandlerType@@XZ 00000001800077d0 f i libvcruntimed:frame.obj
 0001:00006810       ??Diterator@TryBlockMap@__FrameHandler3@@QEAA?BU_s_TryBlockMapEntry@@XZ 0000000180007810 f i libvcruntimed:frame.obj
 0001:00006860       ??Eiterator@TryBlockMap@__FrameHandler3@@QEAAAEAV012@XZ 0000000180007860 f i libvcruntimed:frame.obj
 0001:00006860       ??Eiterator@HandlerMap@__FrameHandler3@@QEAAAEAV012@XZ 0000000180007860 f i libvcruntimed:frame.obj
 0001:00006880       ??Miterator@TryBlockMap@__FrameHandler3@@QEBA_NAEBV012@@Z 0000000180007880 f i libvcruntimed:frame.obj
 0001:000068c0       ??_Ebad_exception@std@@UEAAPEAXI@Z 00000001800078c0 f i libvcruntimed:frame.obj
 0001:000068c0       ??_Gbad_exception@std@@UEAAPEAXI@Z 00000001800078c0 f i libvcruntimed:frame.obj
 0001:00006900       ??_Gexception@std@@UEAAPEAXI@Z 0000000180007900 f i libvcruntimed:frame.obj
 0001:00006900       ??_Eexception@std@@UEAAPEAXI@Z 0000000180007900 f i libvcruntimed:frame.obj
 0001:00006940       ?BuildCatchObject@__FrameHandler3@@SAXPEAUEHExceptionRecord@@PEAXPEBU_s_HandlerType@@PEBU_s_CatchableType@@@Z 0000000180007940 f   libvcruntimed:frame.obj
 0001:00006980       ?CxxCallCatchBlock@__FrameHandler3@@SAPEAXPEAU_EXCEPTION_RECORD@@@Z 0000000180007980 f   libvcruntimed:frame.obj
 0001:00006ce0       ?FrameUnwindToState@__FrameHandler3@@SAXPEA_KPEAU_xDISPATCHER_CONTEXT@@PEBU_s_FuncInfo@@H@Z 0000000180007ce0 f   libvcruntimed:frame.obj
 0001:00006f30       ?GetHandlerSearchState@__FrameHandler3@@SAHPEA_KPEAU_xDISPATCHER_CONTEXT@@PEBU_s_FuncInfo@@@Z 0000000180007f30 f i libvcruntimed:frame.obj
 0001:00006fe0       ?GetMaxState@__FrameHandler3@@SAHPEAU_xDISPATCHER_CONTEXT@@PEBU_s_FuncInfo@@@Z 0000000180007fe0 f i libvcruntimed:frame.obj
 0001:000071e0       __TypeMatch                00000001800081e0 f   libvcruntimed:frame.obj
 0001:000071e0       ?TypeMatch@__FrameHandler3@@SAHPEBU_s_HandlerType@@PEBU_s_CatchableType@@PEBU_s_ThrowInfo@@@Z 00000001800081e0 f   libvcruntimed:frame.obj
 0001:00007210       ?_CallMemberFunction1@@YAXQEAX00@Z 0000000180008210 f i libvcruntimed:frame.obj
 0001:00007250       ?_CallMemberFunction2@@YAXQEAX00H@Z 0000000180008250 f i libvcruntimed:frame.obj
 0001:000072e0       ?begin@HandlerMap@__FrameHandler3@@QEAA?AViterator@12@XZ 00000001800082e0 f i libvcruntimed:frame.obj
 0001:00007310       ?end@HandlerMap@__FrameHandler3@@QEAA?AViterator@12@XZ 0000000180008310 f i libvcruntimed:frame.obj
 0001:00007340       ?getESTypes@__FrameHandler3@@SAPEBU_s_ESTypeList@@PEBU_s_FuncInfo@@@Z 0000000180008340 f i libvcruntimed:frame.obj
 0001:00007380       ?getLastEntry@HandlerMap@__FrameHandler3@@QEAAPEBU_s_HandlerType@@XZ 0000000180008380 f i libvcruntimed:frame.obj
 0001:000073a0       ?getMagicNum@__FrameHandler3@@SAIPEBU_s_FuncInfo@@@Z 00000001800083a0 f i libvcruntimed:frame.obj
 0001:000073c0       ?getNumTryBlocks@TryBlockMap@__FrameHandler3@@QEAAIXZ 00000001800083c0 f i libvcruntimed:frame.obj
 0001:000073e0       ?isEHs@__FrameHandler3@@SA_NPEBU_s_FuncInfo@@@Z 00000001800083e0 f i libvcruntimed:frame.obj
 0001:00007420       ?isNoExcept@__FrameHandler3@@SA_NPEBU_s_FuncInfo@@@Z 0000000180008420 f i libvcruntimed:frame.obj
 0001:00007460       ?what@exception@std@@UEBAPEBDXZ 0000000180008460 f i libvcruntimed:frame.obj
 0001:000074a0       __vcrt_EncodePointer       00000001800084a0 f i libvcruntimed:frame.obj
 0001:000074d0       memset_repmovs             00000001800084d0 f   libvcruntimed:memset.obj
 0001:000074f0       memset                     00000001800084f0 f   libvcruntimed:memset.obj
 0001:00007690       _CallSettingFrame          0000000180008690 f   libvcruntimed:handlers.obj
 0001:000076e0       _CallSettingFrame_LookupContinuationIndex 00000001800086e0 f   libvcruntimed:handlers.obj
 0001:00007710       _CallSettingFrame_NotifyContinuationAddr 0000000180008710 f   libvcruntimed:handlers.obj
 0001:00007740       _CallSettingFrameEncoded   0000000180008740 f   libvcruntimed:handlers.obj
 0001:00007790       ??$?RD@__crt_public_free_policy@@QEBAXQEBD@Z 0000000180008790 f i libvcruntimed:std_exception.obj
 0001:000077b0       ??1?$__crt_unique_heap_ptr@DU__crt_public_free_policy@@@@QEAA@XZ 00000001800087b0 f i libvcruntimed:std_exception.obj
 0001:000077d0       ?release@?$__crt_unique_heap_ptr@DU__crt_public_free_policy@@@@QEAAXXZ 00000001800087d0 f i libvcruntimed:std_exception.obj
 0001:00007800       __std_exception_copy       0000000180008800 f   libvcruntimed:std_exception.obj
 0001:00007940       __std_exception_destroy    0000000180008940 f   libvcruntimed:std_exception.obj
 0001:00007980       _CxxThrowException         0000000180008980 f   libvcruntimed:throw.obj
 0001:00007ab0       ??$__crt_fast_decode_pointer@PEAP6AXXZ@@YAPEAP6AXXZQEAP6AXXZ@Z 0000000180008ab0 f i libucrtd:onexit.obj
 0001:00007ab0       ??$__crt_fast_decode_pointer@PEAX@@YAPEAXQEAX@Z 0000000180008ab0 f i libucrtd:winapi_thunks.obj
 0001:00007ab0       ??$__crt_fast_decode_pointer@P6AH_K@Z@@YAP6AH_K@ZQ6AH0@Z@Z 0000000180008ab0 f i libucrtd:new_handler.obj
 0001:00007ab0       ??$__crt_fast_decode_pointer@P6AXXZ@@YAP6AXXZQ6AXXZ@Z 0000000180008ab0 f i libucrtd:onexit.obj
 0001:00007ab0       ??$__crt_fast_decode_pointer@P6AXH@Z@@YAP6AXH@ZQ6AXH@Z@Z 0000000180008ab0 f i libucrtd:signal.obj
 0001:00007ab0       ??$__crt_fast_decode_pointer@P6AHPEAU_exception@@@Z@@YAP6AHPEAU_exception@@@ZQ6AH0@Z@Z 0000000180008ab0 f i libucrtd:matherr.obj
 0001:00007ab0       ??$__crt_fast_decode_pointer@P6AXPEAXK0@Z@@YAP6AXPEAXK0@ZQ6AX0K0@Z@Z 0000000180008ab0 f i libucrtd:exit.obj
 0001:00007ab0       ??$__crt_fast_decode_pointer@P6AXPEB_W00I_K@Z@@YAP6AXPEB_W00I_K@ZQ6AX000I1@Z@Z 0000000180008ab0 f i libucrtd:invalid_parameter.obj
 0001:00007af0       ??$initialize_from_array@$$BY00Q6AXPEB_W00I_K@Z@?$dual_state_global@P6AXPEB_W00I_K@Z@__crt_state_management@@QEAAXAEAY00Q6AXPEB_W00I_K@Z@Z 0000000180008af0 f i libucrtd:invalid_parameter.obj
 0001:00007b50       ?__crt_rotate_pointer_value@@YA_K_KH@Z 0000000180008b50 f i libucrtd:invalid_parameter.obj
 0001:00007b70       ?get_invalid_value@__crt_hmodule_traits@@SAPEAUHINSTANCE__@@XZ 0000000180008b70 f i libucrtd:exit.obj
 0001:00007b70       ?get_current_state_index@__crt_state_management@@YA_KXZ 0000000180008b70 f i libucrtd:invalid_parameter.obj
 0001:00007b80       ?value@?$dual_state_global@PEAU__crt_locale_data@@@__crt_state_management@@QEAAAEAPEAU__crt_locale_data@@XZ 0000000180008b80 f i libucrtd:per_thread_data.obj
 0001:00007b80       ?value@?$dual_state_global@PEAU__crt_multibyte_data@@@__crt_state_management@@QEAAAEAPEAU__crt_multibyte_data@@XZ 0000000180008b80 f i libucrtd:mbctype.obj
 0001:00007b80       ?value@?$dual_state_global@P6AXPEB_W00I_K@Z@__crt_state_management@@QEAAAEAP6AXPEB_W00I_K@ZXZ 0000000180008b80 f i libucrtd:invalid_parameter.obj
 0001:00007b80       ?value@?$dual_state_global@P6AXH@Z@__crt_state_management@@QEAAAEAP6AXH@ZXZ 0000000180008b80 f i libucrtd:signal.obj
 0001:00007b80       ?value@?$dual_state_global@P6AHPEAU_exception@@@Z@__crt_state_management@@QEAAAEAP6AHPEAU_exception@@@ZXZ 0000000180008b80 f i libucrtd:matherr.obj
 0001:00007b80       ?value@?$dual_state_global@PEAE@__crt_state_management@@QEAAAEAPEAEXZ 0000000180008b80 f i libucrtd:mbctype.obj
 0001:00007b80       ?value@?$dual_state_global@P6AH_K@Z@__crt_state_management@@QEAAAEAP6AH_K@ZXZ 0000000180008b80 f i libucrtd:new_handler.obj
 0001:00007ba0       __acrt_call_reportfault    0000000180008ba0 f   libucrtd:invalid_parameter.obj
 0001:00007cd0       __acrt_initialize_invalid_parameter_handler 0000000180008cd0 f   libucrtd:invalid_parameter.obj
 0001:00007d00       _invalid_parameter         0000000180008d00 f   libucrtd:invalid_parameter.obj
 0001:00007e00       _invalid_parameter_noinfo  0000000180008e00 f   libucrtd:invalid_parameter.obj
 0001:00007e30       _invoke_watson             0000000180008e30 f   libucrtd:invalid_parameter.obj
 0001:00008c40       ??$get_module_file_name@$$TAEAY0BAF@DH@?$__crt_char_traits@D@@SAK$$QEA$$TAEAY0BAF@D$$QEAH@Z 0000000180009c40 f i libucrtd:argv_parsing.obj
 0001:00008c40       ??$get_module_file_name@AEAPEAUHINSTANCE__@@AEAY0BAF@DK@?$__crt_char_traits@D@@SAKAEAPEAUHINSTANCE__@@AEAY0BAF@D$$QEAK@Z 0000000180009c40 f i libucrtd:dbgrpt.obj
 0001:00008c80       ??$get_module_file_name@AEAPEAUHINSTANCE__@@AEAY0BAF@_WK@?$__crt_char_traits@_W@@SAKAEAPEAUHINSTANCE__@@AEAY0BAF@_W$$QEAK@Z 0000000180009c80 f i libucrtd:dbgrpt.obj
 0001:00008cc0       ??$tcscpy_s@AEAY0BAF@D_KPEBD@?$__crt_char_traits@D@@SAHAEAY0BAF@D$$QEA_K$$QEAPEBD@Z 0000000180009cc0 f i libucrtd:dbgrpt.obj
 0001:00008d00       ??$tcscpy_s@AEAY0BAF@_W_KPEB_W@?$__crt_char_traits@_W@@SAHAEAY0BAF@_W$$QEA_K$$QEAPEB_W@Z 0000000180009d00 f i libucrtd:dbgrpt.obj
 0001:00008d40       ??$tcslen@AEAY0BAF@D@?$__crt_char_traits@D@@SA_KAEAY0BAF@D@Z 0000000180009d40 f i libucrtd:dbgrpt.obj
 0001:00008d60       ??$tcslen@AEAY0BAF@_W@?$__crt_char_traits@_W@@SA_KAEAY0BAF@_W@Z 0000000180009d60 f i libucrtd:dbgrpt.obj
 0001:00008d80       ??$tcslen@AEBQEBD@?$__crt_char_traits@D@@SA_KAEBQEBD@Z 0000000180009d80 f i libucrtd:dbgrpt.obj
 0001:00008da0       ??$tcslen@AEBQEB_W@?$__crt_char_traits@_W@@SA_KAEBQEB_W@Z 0000000180009da0 f i libucrtd:dbgrpt.obj
 0001:00008e00       _CrtDbgReport              0000000180009e00 f   libucrtd:dbgrpt.obj
 0001:00008e80       _CrtDbgReportW             0000000180009e80 f   libucrtd:dbgrpt.obj
 0001:00008f00       __acrt_MessageWindowA      0000000180009f00 f   libucrtd:dbgrpt.obj
 0001:00008f50       __acrt_MessageWindowW      0000000180009f50 f   libucrtd:dbgrpt.obj
 0001:00008fa0       _invoke_watson_if_error    0000000180009fa0 f i libucrtd:dbgrpt.obj
 0001:00008ff0       _invoke_watson_if_oneof    0000000180009ff0 f i libucrtd:dbgrpt.obj
 0001:00009050       _snwprintf_s               000000018000a050 f i libucrtd:dbgrpt.obj
 0001:000090c0       _vsnwprintf_s_l            000000018000a0c0 f i libucrtd:dbgrpt.obj
 0001:00009140       _initterm                  000000018000a140 f   libucrtd:initterm.obj
 0001:000091a0       _initterm_e                000000018000a1a0 f   libucrtd:initterm.obj
 0001:00009290       _seh_filter_dll            000000018000a290 f   libucrtd:exception_filter.obj
 0001:000092c0       _seh_filter_exe            000000018000a2c0 f   libucrtd:exception_filter.obj
 0001:00009560       ??$?B$$A6AXH@Z@__crt_fast_encoded_nullptr_t@@QEBAP6AXH@ZXZ 000000018000a560 f i libucrtd:signal.obj
 0001:00009560       ??$?B$$A6AXPEAXK0@Z@__crt_fast_encoded_nullptr_t@@QEBAP6AXPEAXK0@ZXZ 000000018000a560 f i libucrtd:exit.obj
 0001:00009560       ??$?B$$A6AXXZ@__crt_fast_encoded_nullptr_t@@QEBAP6AXXZXZ 000000018000a560 f i libucrtd:onexit.obj
 0001:00009560       ??$?BX@__crt_fast_encoded_nullptr_t@@QEBAPEAXXZ 000000018000a560 f i libucrtd:initialization.obj
 0001:00009560       ??$?BP6AXXZ@__crt_fast_encoded_nullptr_t@@QEBAPEAP6AXXZXZ 000000018000a560 f i libucrtd:onexit.obj
 0001:00009610       ??$__crt_fast_encode_pointer@P6AXXZ@@YAP6AXXZQ6AXXZ@Z 000000018000a610 f i libucrtd:onexit.obj
 0001:00009610       ??$__crt_fast_encode_pointer@P6AXPEAXK0@Z@@YAP6AXPEAXK0@ZQ6AX0K0@Z@Z 000000018000a610 f i libucrtd:exit.obj
 0001:00009610       ??$__crt_fast_encode_pointer@P6AXH@Z@@YAP6AXH@ZQ6AXH@Z@Z 000000018000a610 f i libucrtd:signal.obj
 0001:00009610       ??$__crt_fast_encode_pointer@PEAX@@YAPEAXQEAX@Z 000000018000a610 f i libucrtd:initialization.obj
 0001:00009610       ??$__crt_fast_encode_pointer@PEAP6AXXZ@@YAPEAP6AXXZQEAP6AXXZ@Z 000000018000a610 f i libucrtd:onexit.obj
 0001:00009650       ??$__crt_get_proc_address@P6AXI@Z@@YAP6AXI@ZQEAUHINSTANCE__@@QEBD@Z 000000018000a650 f i libucrtd:exit.obj
 0001:00009680       ??$__crt_interlocked_read@J@@YAJPEDJ@Z 000000018000a680 f i libucrtd:exit.obj
 0001:00009710       ??1?$__crt_unique_handle_t@U__crt_hmodule_traits@@@@QEAA@XZ 000000018000a710 f i libucrtd:exit.obj
 0001:00009870       ?__acrt_select_exit_lock@@YA?AW4__acrt_lock_id@@XZ 000000018000a870 f i libucrtd:exit.obj
 0001:00009880       ?__crt_fast_encode_pointer@@YA?AU__crt_fast_encoded_nullptr_t@@$$T@Z 000000018000a880 f i libucrtd:exit.obj
 0001:000098a0       ?__crt_interlocked_read_32@@YAHPEDH@Z 000000018000a8a0 f i libucrtd:exit.obj
 0001:000098e0       ?close@?$__crt_unique_handle_t@U__crt_hmodule_traits@@@@QEAAXXZ 000000018000a8e0 f i libucrtd:exit.obj
 0001:00009920       ?close@__crt_hmodule_traits@@SA_NPEAUHINSTANCE__@@@Z 000000018000a920 f i libucrtd:exit.obj
 0001:00009be0       __acrt_initialize_thread_local_exit_callback 000000018000abe0 f   libucrtd:exit.obj
 0001:00009c00       _cexit                     000000018000ac00 f   libucrtd:exit.obj
 0001:00009c20       _exit                      000000018000ac20 f   libucrtd:exit.obj
 0001:00009c40       _is_c_termination_complete 000000018000ac40 f   libucrtd:exit.obj
 0001:0000a480       ??$set_program_name@PEAD@?$__crt_char_traits@D@@SAX$$QEAPEAD@Z 000000018000b480 f i libucrtd:argv_parsing.obj
 0001:0000a5b0       __acrt_allocate_buffer_for_argv 000000018000b5b0 f   libucrtd:argv_parsing.obj
 0001:0000a6d0       _configure_narrow_argv     000000018000b6d0 f   libucrtd:argv_parsing.obj
 0001:0000a6f0       _set_pgmptr                000000018000b6f0 f i libucrtd:argv_parsing.obj
 0001:0000a920       ??$tcslen@AEAPEAD@?$__crt_char_traits@D@@SA_KAEAPEAD@Z 000000018000b920 f i libucrtd:environment_initialization.obj
 0001:0000a96c       ??B?$__crt_unique_heap_ptr@PEADU__crt_internal_free_policy@@@@QEBA_NXZ 000000018000b96c f i libucrtd:environment_initialization.obj
 0001:0000a974       ?detach@?$__crt_unique_heap_ptr@DU__crt_internal_free_policy@@@@QEAAPEADXZ 000000018000b974 f i libucrtd:environment_initialization.obj
 0001:0000a97c       __dcrt_uninitialize_environments_nolock 000000018000b97c f   libucrtd:environment_initialization.obj
 0001:0000a9b4       _initialize_narrow_environment 000000018000b9b4 f   libucrtd:environment_initialization.obj
 0001:0000ac90       _execute_onexit_table      000000018000bc90 f   libucrtd:onexit.obj
 0001:0000acd0       _initialize_onexit_table   000000018000bcd0 f   libucrtd:onexit.obj
 0001:0000ada0       __acrt_uninitialize_command_line 000000018000bda0 f   libucrtd:argv_data.obj
 0001:0000b010       ?initialize@?$dual_state_global@PEAU__crt_multibyte_data@@@__crt_state_management@@QEAAXQEAU__crt_multibyte_data@@@Z 000000018000c010 f i libucrtd:mbctype.obj
 0001:0000b010       ?initialize@?$dual_state_global@P6AHPEAU_exception@@@Z@__crt_state_management@@QEAAXQ6AHPEAU_exception@@@Z@Z 000000018000c010 f i libucrtd:matherr.obj
 0001:0000b010       ?initialize@?$dual_state_global@PEAU__crt_locale_data@@@__crt_state_management@@QEAAXQEAU__crt_locale_data@@@Z 000000018000c010 f i libucrtd:initialization.obj
 0001:0000b010       ?initialize@?$dual_state_global@P6AH_K@Z@__crt_state_management@@QEAAXQ6AH_K@Z@Z 000000018000c010 f i libucrtd:new_handler.obj
 0001:0000b010       ?initialize@?$dual_state_global@P6AXH@Z@__crt_state_management@@QEAAXQ6AXH@Z@Z 000000018000c010 f i libucrtd:signal.obj
 0001:0000b060       __acrt_initialize          000000018000c060 f   libucrtd:initialization.obj
 0001:0000b090       __acrt_thread_attach       000000018000c090 f   libucrtd:initialization.obj
 0001:0000b0b0       __acrt_thread_detach       000000018000c0b0 f   libucrtd:initialization.obj
 0001:0000b0c0       __acrt_uninitialize        000000018000c0c0 f   libucrtd:initialization.obj
 0001:0000b0f0       __acrt_uninitialize_critical 000000018000c0f0 f   libucrtd:initialization.obj
 0001:0000b110       terminate                  000000018000c110 f   libucrtd:terminate.obj
 0001:0000b150       ??0_LocaleUpdate@@QEAA@QEAU__crt_locale_pointers@@@Z 000000018000c150 f i libucrtd:debug_heap.obj
 0001:0000b270       ??1_LocaleUpdate@@QEAA@XZ  000000018000c270 f i libucrtd:debug_heap.obj
 0001:0000b2a0       ?GetLocaleT@_LocaleUpdate@@QEAAPEAU__crt_locale_pointers@@XZ 000000018000c2a0 f i libucrtd:debug_heap.obj
 0001:0000d280       _CrtCheckMemory            000000018000e280 f   libucrtd:debug_heap.obj
 0001:0000d410       _CrtDumpMemoryLeaks        000000018000e410 f   libucrtd:debug_heap.obj
 0001:0000d4d0       _CrtIsValidHeapPointer     000000018000e4d0 f   libucrtd:debug_heap.obj
 0001:0000d510       _CrtIsValidPointer         000000018000e510 f   libucrtd:debug_heap.obj
 0001:0000d550       _CrtMemCheckpoint          000000018000e550 f   libucrtd:debug_heap.obj
 0001:0000d7d0       _CrtMemDumpAllObjectsSince 000000018000e7d0 f   libucrtd:debug_heap.obj
 0001:0000d830       _CrtSetDbgFlag             000000018000e830 f   libucrtd:debug_heap.obj
 0001:0000d990       _CrtSetDumpClient          000000018000e990 f   libucrtd:debug_heap.obj
 0001:0000d9c0       __acrt_disable_global_locale_sync 000000018000e9c0 f i libucrtd:debug_heap.obj
 0001:0000d9f0       __acrt_enable_global_locale_sync 000000018000e9f0 f i libucrtd:debug_heap.obj
 0001:0000da20       __acrt_get_locale_data_prefix 000000018000ea20 f i libucrtd:debug_heap.obj
 0001:0000da40       __acrt_locale_changed      000000018000ea40 f i libucrtd:debug_heap.obj
 0001:0000da70       _calloc_dbg                000000018000ea70 f   libucrtd:debug_heap.obj
 0001:0000db10       _chvalidchk_l              000000018000eb10 f i libucrtd:debug_heap.obj
 0001:0000db40       _free_dbg                  000000018000eb40 f   libucrtd:debug_heap.obj
 0001:0000dbb0       _ischartype_l              000000018000ebb0 f i libucrtd:debug_heap.obj
 0001:0000dc40       _malloc_dbg                000000018000ec40 f   libucrtd:debug_heap.obj
 0001:0000dc80       _msize_dbg                 000000018000ec80 f   libucrtd:debug_heap.obj
 0001:0000de20       _realloc_dbg               000000018000ee20 f   libucrtd:debug_heap.obj
 0001:0000de90       _recalloc_dbg              000000018000ee90 f   libucrtd:debug_heap.obj
 0001:0000e460       strcpy_s                   000000018000f460 f   libucrtd:strcpy_s.obj
 0001:0000e4a0       strcmp                     000000018000f4a0 f   libucrtd:strcmp.obj
 0001:0000e520       strlen                     000000018000f520 f   libucrtd:strlen.obj
 0001:0000e5d0       abort                      000000018000f5d0 f   libucrtd:abort.obj
 0001:0000e650       ??$?0AEBV?$string_output_adapter@D@__crt_stdio_output@@AEB_KAEBQEBDAEBQEAU__crt_locale_pointers@@AEBQEAD@?$format_validation_base@DV?$string_output_adapter@D@__crt_stdio_output@@@__crt_stdio_output@@IEAA@AEBV?$string_output_adapter@D@1@AEB_KAEBQEBDAEBQEAU__crt_locale_pointers@@AEBQEAD@Z 000000018000f650 f i libucrtd:output.obj
 0001:0000e6a0       ??$?0AEBV?$string_output_adapter@D@__crt_stdio_output@@AEB_KAEBQEBDAEBQEAU__crt_locale_pointers@@AEBQEAD@?$standard_base@DV?$string_output_adapter@D@__crt_stdio_output@@@__crt_stdio_output@@IEAA@AEBV?$string_output_adapter@D@1@AEB_KAEBQEBDAEBQEAU__crt_locale_pointers@@AEBQEAD@Z 000000018000f6a0 f i libucrtd:output.obj
 0001:0000e710       ??$?0AEBV?$string_output_adapter@_W@__crt_stdio_output@@AEB_KAEBQEB_WAEBQEAU__crt_locale_pointers@@AEBQEAD@?$format_validation_base@_WV?$string_output_adapter@_W@__crt_stdio_output@@@__crt_stdio_output@@IEAA@AEBV?$string_output_adapter@_W@1@AEB_KAEBQEB_WAEBQEAU__crt_locale_pointers@@AEBQEAD@Z 000000018000f710 f i libucrtd:output.obj
 0001:0000e760       ??$?0AEBV?$string_output_adapter@_W@__crt_stdio_output@@AEB_KAEBQEB_WAEBQEAU__crt_locale_pointers@@AEBQEAD@?$standard_base@_WV?$string_output_adapter@_W@__crt_stdio_output@@@__crt_stdio_output@@IEAA@AEBV?$string_output_adapter@_W@1@AEB_KAEBQEB_WAEBQEAU__crt_locale_pointers@@AEBQEAD@Z 000000018000f760 f i libucrtd:output.obj
 0001:000100e0       ??$count@D@formatting_buffer@__crt_stdio_output@@QEBA_KXZ 00000001800110e0 f i libucrtd:output.obj
 0001:00010130       ??$count@_W@formatting_buffer@__crt_stdio_output@@QEBA_KXZ 0000000180011130 f i libucrtd:output.obj
 0001:00010180       ??$data@D@formatting_buffer@__crt_stdio_output@@QEAAPEADXZ 0000000180011180 f i libucrtd:output.obj
 0001:00010180       ??$data@_W@formatting_buffer@__crt_stdio_output@@QEAAPEA_WXZ 0000000180011180 f i libucrtd:output.obj
 0001:000101d0       ??$ensure_buffer_is_big_enough@D@formatting_buffer@__crt_stdio_output@@QEAA_N_K@Z 00000001800111d0 f i libucrtd:output.obj
 0001:00010300       ??$ensure_buffer_is_big_enough@_W@formatting_buffer@__crt_stdio_output@@QEAA_N_K@Z 0000000180011300 f i libucrtd:output.obj
 0001:00010430       ??$extract_argument_from_va_list@C_J@?$standard_base@_WV?$string_output_adapter@_W@__crt_stdio_output@@@__crt_stdio_output@@IEAA_NAEA_J@Z 0000000180011430 f i libucrtd:output.obj
 0001:00010430       ??$extract_argument_from_va_list@C_J@?$standard_base@DV?$string_output_adapter@D@__crt_stdio_output@@@__crt_stdio_output@@IEAA_NAEA_J@Z 0000000180011430 f i libucrtd:output.obj
 0001:00010470       ??$extract_argument_from_va_list@E_J@?$standard_base@DV?$string_output_adapter@D@__crt_stdio_output@@@__crt_stdio_output@@IEAA_NAEA_J@Z 0000000180011470 f i libucrtd:output.obj
 0001:00010470       ??$extract_argument_from_va_list@E_J@?$standard_base@_WV?$string_output_adapter@_W@__crt_stdio_output@@@__crt_stdio_output@@IEAA_NAEA_J@Z 0000000180011470 f i libucrtd:output.obj
 0001:000104b0       ??$extract_argument_from_va_list@F_J@?$standard_base@DV?$string_output_adapter@D@__crt_stdio_output@@@__crt_stdio_output@@IEAA_NAEA_J@Z 00000001800114b0 f i libucrtd:output.obj
 0001:000104b0       ??$extract_argument_from_va_list@F_J@?$standard_base@_WV?$string_output_adapter@_W@__crt_stdio_output@@@__crt_stdio_output@@IEAA_NAEA_J@Z 00000001800114b0 f i libucrtd:output.obj
 0001:000104f0       ??$extract_argument_from_va_list@GD@?$standard_base@DV?$string_output_adapter@D@__crt_stdio_output@@@__crt_stdio_output@@IEAA_NAEAD@Z 00000001800114f0 f i libucrtd:output.obj
 0001:00010520       ??$extract_argument_from_va_list@G_J@?$standard_base@_WV?$string_output_adapter@_W@__crt_stdio_output@@@__crt_stdio_output@@IEAA_NAEA_J@Z 0000000180011520 f i libucrtd:output.obj
 0001:00010520       ??$extract_argument_from_va_list@G_J@?$standard_base@DV?$string_output_adapter@D@__crt_stdio_output@@@__crt_stdio_output@@IEAA_NAEA_J@Z 0000000180011520 f i libucrtd:output.obj
 0001:00010560       ??$extract_argument_from_va_list@H_J@?$standard_base@DV?$string_output_adapter@D@__crt_stdio_output@@@__crt_stdio_output@@IEAA_NAEA_J@Z 0000000180011560 f i libucrtd:output.obj
 0001:00010560       ??$extract_argument_from_va_list@H_J@?$standard_base@_WV?$string_output_adapter@_W@__crt_stdio_output@@@__crt_stdio_output@@IEAA_NAEA_J@Z 0000000180011560 f i libucrtd:output.obj
 0001:00010590       ??$extract_argument_from_va_list@I_J@?$standard_base@_WV?$string_output_adapter@_W@__crt_stdio_output@@@__crt_stdio_output@@IEAA_NAEA_J@Z 0000000180011590 f i libucrtd:output.obj
 0001:00010590       ??$extract_argument_from_va_list@I_J@?$standard_base@DV?$string_output_adapter@D@__crt_stdio_output@@@__crt_stdio_output@@IEAA_NAEA_J@Z 0000000180011590 f i libucrtd:output.obj
 0001:000105c0       ??$extract_argument_from_va_list@PEAUansi_string@?1??type_case_Z@?$output_processor@DV?$string_output_adapter@D@__crt_stdio_output@@V?$format_validation_base@DV?$string_output_adapter@D@__crt_stdio_output@@@2@@__crt_stdio_output@@AEAA_NXZ@PEAU1?1??234@AEAA_NXZ@@?$standard_base@DV?$string_output_adapter@D@__crt_stdio_output@@@__crt_stdio_output@@IEAA_NAEAPEAUansi_string@?1??type_case_Z@?$output_processor@DV?$string_output_adapter@D@__crt_stdio_output@@V?$format_validation_base@DV?$string_output_adapter@D@__crt_stdio_output@@@2@@1@AEAA_NXZ@@Z 00000001800115c0 f i libucrtd:output.obj
 0001:000105c0       ??$extract_argument_from_va_list@_K_J@?$standard_base@DV?$string_output_adapter@D@__crt_stdio_output@@@__crt_stdio_output@@IEAA_NAEA_J@Z 00000001800115c0 f i libucrtd:output.obj
 0001:000105c0       ??$extract_argument_from_va_list@_J_J@?$standard_base@_WV?$string_output_adapter@_W@__crt_stdio_output@@@__crt_stdio_output@@IEAA_NAEA_J@Z 00000001800115c0 f i libucrtd:output.obj
 0001:000105c0       ??$extract_argument_from_va_list@PEADPEAD@?$standard_base@DV?$string_output_adapter@D@__crt_stdio_output@@@__crt_stdio_output@@IEAA_NAEAPEAD@Z 00000001800115c0 f i libucrtd:output.obj
 0001:000105c0       ??$extract_argument_from_va_list@PEADPEAD@?$standard_base@_WV?$string_output_adapter@_W@__crt_stdio_output@@@__crt_stdio_output@@IEAA_NAEAPEAD@Z 00000001800115c0 f i libucrtd:output.obj
 0001:000105c0       ??$extract_argument_from_va_list@_J_J@?$standard_base@DV?$string_output_adapter@D@__crt_stdio_output@@@__crt_stdio_output@@IEAA_NAEA_J@Z 00000001800115c0 f i libucrtd:output.obj
 0001:000105c0       ??$extract_argument_from_va_list@PEAXPEAX@?$standard_base@_WV?$string_output_adapter@_W@__crt_stdio_output@@@__crt_stdio_output@@IEAA_NAEAPEAX@Z 00000001800115c0 f i libucrtd:output.obj
 0001:000105c0       ??$extract_argument_from_va_list@PEAXPEAX@?$standard_base@DV?$string_output_adapter@D@__crt_stdio_output@@@__crt_stdio_output@@IEAA_NAEAPEAX@Z 00000001800115c0 f i libucrtd:output.obj
 0001:000105c0       ??$extract_argument_from_va_list@_K_J@?$standard_base@_WV?$string_output_adapter@_W@__crt_stdio_output@@@__crt_stdio_output@@IEAA_NAEA_J@Z 00000001800115c0 f i libucrtd:output.obj
 0001:000105c0       ??$extract_argument_from_va_list@PEAUansi_string@?1??type_case_Z@?$output_processor@_WV?$string_output_adapter@_W@__crt_stdio_output@@V?$format_validation_base@_WV?$string_output_adapter@_W@__crt_stdio_output@@@2@@__crt_stdio_output@@AEAA_NXZ@PEAU1?1??234@AEAA_NXZ@@?$standard_base@_WV?$string_output_adapter@_W@__crt_stdio_output@@@__crt_stdio_output@@IEAA_NAEAPEAUansi_string@?1??type_case_Z@?$output_processor@_WV?$string_output_adapter@_W@__crt_stdio_output@@V?$format_validation_base@_WV?$string_output_adapter@_W@__crt_stdio_output@@@2@@1@AEAA_NXZ@@Z 00000001800115c0 f i libucrtd:output.obj
 0001:000105f0       ??$extract_argument_from_va_list@U_CRT_DOUBLE@@U1@@?$standard_base@_WV?$string_output_adapter@_W@__crt_stdio_output@@@__crt_stdio_output@@IEAA_NAEAU_CRT_DOUBLE@@@Z 00000001800115f0 f i libucrtd:output.obj
 0001:000105f0       ??$extract_argument_from_va_list@U_CRT_DOUBLE@@U1@@?$standard_base@DV?$string_output_adapter@D@__crt_stdio_output@@@__crt_stdio_output@@IEAA_NAEAU_CRT_DOUBLE@@@Z 00000001800115f0 f i libucrtd:output.obj
 0001:00010640       ??$extract_argument_from_va_list@_W_W@?$standard_base@DV?$string_output_adapter@D@__crt_stdio_output@@@__crt_stdio_output@@IEAA_NAEA_W@Z 0000000180011640 f i libucrtd:output.obj
 0001:00010640       ??$extract_argument_from_va_list@_W_W@?$standard_base@_WV?$string_output_adapter@_W@__crt_stdio_output@@@__crt_stdio_output@@IEAA_NAEA_W@Z 0000000180011640 f i libucrtd:output.obj
 0001:00010670       ??$is_wide_character_specifier@D@__crt_stdio_output@@YA_N_KDW4length_modifier@0@@Z 0000000180011670 f i libucrtd:output.obj
 0001:00010710       ??$is_wide_character_specifier@_W@__crt_stdio_output@@YA_N_K_WW4length_modifier@0@@Z 0000000180011710 f i libucrtd:output.obj
 0001:000107e0       ??$read_va_arg@E@__crt_stdio_output@@YAEAEAPEAD@Z 00000001800117e0 f i libucrtd:output.obj
 0001:000107e0       ??$read_va_arg@C@__crt_stdio_output@@YACAEAPEAD@Z 00000001800117e0 f i libucrtd:output.obj
 0001:00010850       ??$read_va_arg@F@__crt_stdio_output@@YAFAEAPEAD@Z 0000000180011850 f i libucrtd:output.obj
 0001:00010850       ??$read_va_arg@_W@__crt_stdio_output@@YA_WAEAPEAD@Z 0000000180011850 f i libucrtd:output.obj
 0001:00010850       ??$read_va_arg@G@__crt_stdio_output@@YAGAEAPEAD@Z 0000000180011850 f i libucrtd:output.obj
 0001:000108c0       ??$read_va_arg@H@__crt_stdio_output@@YAHAEAPEAD@Z 00000001800118c0 f i libucrtd:output.obj
 0001:000108c0       ??$read_va_arg@I@__crt_stdio_output@@YAIAEAPEAD@Z 00000001800118c0 f i libucrtd:output.obj
 0001:00010920       ??$read_va_arg@PEAUansi_string@?1??type_case_Z@?$output_processor@_WV?$string_output_adapter@_W@__crt_stdio_output@@V?$format_validation_base@_WV?$string_output_adapter@_W@__crt_stdio_output@@@2@@__crt_stdio_output@@AEAA_NXZ@@__crt_stdio_output@@YAPEAUansi_string@?1??type_case_Z@?$output_processor@_WV?$string_output_adapter@_W@__crt_stdio_output@@V?$format_validation_base@_WV?$string_output_adapter@_W@__crt_stdio_output@@@2@@0@AEAA_NXZ@AEAPEAD@Z 0000000180011920 f i libucrtd:output.obj
 0001:00010920       ??$read_va_arg@U_CRT_DOUBLE@@@__crt_stdio_output@@YA?AU_CRT_DOUBLE@@AEAPEAD@Z 0000000180011920 f i libucrtd:output.obj
 0001:00010920       ??$read_va_arg@PEAD@__crt_stdio_output@@YAPEADAEAPEAD@Z 0000000180011920 f i libucrtd:output.obj
 0001:00010920       ??$read_va_arg@_K@__crt_stdio_output@@YA_KAEAPEAD@Z 0000000180011920 f i libucrtd:output.obj
 0001:00010920       ??$read_va_arg@PEAUansi_string@?1??type_case_Z@?$output_processor@DV?$string_output_adapter@D@__crt_stdio_output@@V?$format_validation_base@DV?$string_output_adapter@D@__crt_stdio_output@@@2@@__crt_stdio_output@@AEAA_NXZ@@__crt_stdio_output@@YAPEAUansi_string@?1??type_case_Z@?$output_processor@DV?$string_output_adapter@D@__crt_stdio_output@@V?$format_validation_base@DV?$string_output_adapter@D@__crt_stdio_output@@@2@@0@AEAA_NXZ@AEAPEAD@Z 0000000180011920 f i libucrtd:output.obj
 0001:00010920       ??$read_va_arg@PEAX@__crt_stdio_output@@YAPEAXAEAPEAD@Z 0000000180011920 f i libucrtd:output.obj
 0001:00010920       ??$read_va_arg@_J@__crt_stdio_output@@YA_JAEAPEAD@Z 0000000180011920 f i libucrtd:output.obj
 0001:00010990       ??$scratch_count@D@formatting_buffer@__crt_stdio_output@@QEBA_KXZ 0000000180011990 f i libucrtd:output.obj
 0001:000109b0       ??$scratch_data@D@formatting_buffer@__crt_stdio_output@@QEAAPEADXZ 00000001800119b0 f i libucrtd:output.obj
 0001:00010a20       ??$tcstol@PEBDPEAPEADH@?$__crt_char_traits@D@@SAJ$$QEAPEBD$$QEAPEAPEAD$$QEAH@Z 0000000180011a20 f i libucrtd:output.obj
 0001:00010a60       ??$tcstol@PEB_WPEAPEA_WH@?$__crt_char_traits@_W@@SAJ$$QEAPEB_W$$QEAPEAPEA_W$$QEAH@Z 0000000180011a60 f i libucrtd:output.obj
 0001:00010aa0       ??$type_case_integer_parse_into_buffer@I@?$output_processor@DV?$string_output_adapter@D@__crt_stdio_output@@V?$format_validation_base@DV?$string_output_adapter@D@__crt_stdio_output@@@2@@__crt_stdio_output@@AEAAXII_N@Z 0000000180011aa0 f i libucrtd:output.obj
 0001:00010bd0       ??$type_case_integer_parse_into_buffer@I@?$output_processor@_WV?$string_output_adapter@_W@__crt_stdio_output@@V?$format_validation_base@_WV?$string_output_adapter@_W@__crt_stdio_output@@@2@@__crt_stdio_output@@AEAAXII_N@Z 0000000180011bd0 f i libucrtd:output.obj
 0001:00010d10       ??$type_case_integer_parse_into_buffer@_K@?$output_processor@DV?$string_output_adapter@D@__crt_stdio_output@@V?$format_validation_base@DV?$string_output_adapter@D@__crt_stdio_output@@@2@@__crt_stdio_output@@AEAAX_KI_N@Z 0000000180011d10 f i libucrtd:output.obj
 0001:00010e60       ??$type_case_integer_parse_into_buffer@_K@?$output_processor@_WV?$string_output_adapter@_W@__crt_stdio_output@@V?$format_validation_base@_WV?$string_output_adapter@_W@__crt_stdio_output@@@2@@__crt_stdio_output@@AEAAX_KI_N@Z 0000000180011e60 f i libucrtd:output.obj
 0001:00010fc0       ??$write_multiple_characters@V?$string_output_adapter@D@__crt_stdio_output@@D@__crt_stdio_output@@YAXAEBV?$string_output_adapter@D@0@DHQEAH@Z 0000000180011fc0 f i libucrtd:output.obj
 0001:00011020       ??$write_multiple_characters@V?$string_output_adapter@_W@__crt_stdio_output@@D@__crt_stdio_output@@YAXAEBV?$string_output_adapter@_W@0@DHQEAH@Z 0000000180012020 f i libucrtd:output.obj
 0001:00011080       ??0?$common_data@D@__crt_stdio_output@@IEAA@XZ 0000000180012080 f i libucrtd:output.obj
 0001:00011150       ??0?$common_data@_W@__crt_stdio_output@@IEAA@XZ 0000000180012150 f i libucrtd:output.obj
 0001:00011220       ??0?$output_adapter_data@DV?$string_output_adapter@D@__crt_stdio_output@@@__crt_stdio_output@@IEAA@AEBV?$string_output_adapter@D@1@_KQEBDQEAU__crt_locale_pointers@@QEAD@Z 0000000180012220 f i libucrtd:output.obj
 0001:000112a0       ??0?$output_adapter_data@_WV?$string_output_adapter@_W@__crt_stdio_output@@@__crt_stdio_output@@IEAA@AEBV?$string_output_adapter@_W@1@_KQEB_WQEAU__crt_locale_pointers@@QEAD@Z 00000001800122a0 f i libucrtd:output.obj
 0001:00011320       ??0?$output_processor@DV?$string_output_adapter@D@__crt_stdio_output@@V?$format_validation_base@DV?$string_output_adapter@D@__crt_stdio_output@@@2@@__crt_stdio_output@@QEAA@AEBV?$string_output_adapter@D@1@_KQEBDQEAU__crt_locale_pointers@@QEAD@Z 0000000180012320 f i libucrtd:output.obj
 0001:00011370       ??0?$output_processor@_WV?$string_output_adapter@_W@__crt_stdio_output@@V?$format_validation_base@_WV?$string_output_adapter@_W@__crt_stdio_output@@@2@@__crt_stdio_output@@QEAA@AEBV?$string_output_adapter@_W@1@_KQEB_WQEAU__crt_locale_pointers@@QEAD@Z 0000000180012370 f i libucrtd:output.obj
 0001:000113c0       ??0__crt_deferred_errno_cache@@QEAA@XZ 00000001800123c0 f i libucrtd:output.obj
 0001:000113e0       ??0__crt_errno_guard@@QEAA@QEAH@Z 00000001800123e0 f i libucrtd:output.obj
 0001:00011420       ??0formatting_buffer@__crt_stdio_output@@QEAA@XZ 0000000180012420 f i libucrtd:output.obj
 0001:00011460       ??1?$common_data@D@__crt_stdio_output@@QEAA@XZ 0000000180012460 f i libucrtd:output.obj
 0001:00011460       ??1?$common_data@_W@__crt_stdio_output@@QEAA@XZ 0000000180012460 f i libucrtd:output.obj
 0001:00011480       ??1?$format_validation_base@_WV?$string_output_adapter@_W@__crt_stdio_output@@@__crt_stdio_output@@QEAA@XZ 0000000180012480 f i libucrtd:output.obj
 0001:00011480       ??1?$format_validation_base@DV?$string_output_adapter@D@__crt_stdio_output@@@__crt_stdio_output@@QEAA@XZ 0000000180012480 f i libucrtd:output.obj
 0001:000114a0       ??1?$output_adapter_data@_WV?$string_output_adapter@_W@__crt_stdio_output@@@__crt_stdio_output@@QEAA@XZ 00000001800124a0 f i libucrtd:output.obj
 0001:000114a0       ??1?$output_adapter_data@DV?$string_output_adapter@D@__crt_stdio_output@@@__crt_stdio_output@@QEAA@XZ 00000001800124a0 f i libucrtd:output.obj
 0001:000114c0       ??1?$output_processor@DV?$string_output_adapter@D@__crt_stdio_output@@V?$format_validation_base@DV?$string_output_adapter@D@__crt_stdio_output@@@2@@__crt_stdio_output@@QEAA@XZ 00000001800124c0 f i libucrtd:output.obj
 0001:000114c0       ??1?$output_processor@_WV?$string_output_adapter@_W@__crt_stdio_output@@V?$format_validation_base@_WV?$string_output_adapter@_W@__crt_stdio_output@@@2@@__crt_stdio_output@@QEAA@XZ 00000001800124c0 f i libucrtd:output.obj
 0001:000114e0       ??1?$standard_base@DV?$string_output_adapter@D@__crt_stdio_output@@@__crt_stdio_output@@QEAA@XZ 00000001800124e0 f i libucrtd:output.obj
 0001:000114e0       ??1?$standard_base@_WV?$string_output_adapter@_W@__crt_stdio_output@@@__crt_stdio_output@@QEAA@XZ 00000001800124e0 f i libucrtd:output.obj
 0001:00011500       ??1__crt_errno_guard@@QEAA@XZ 0000000180012500 f i libucrtd:output.obj
 0001:00011530       ??1formatting_buffer@__crt_stdio_output@@QEAA@XZ 0000000180012530 f i libucrtd:output.obj
 0001:00011560       ??4?$__crt_unique_heap_ptr@DU__crt_internal_free_policy@@@@QEAAAEAV0@$$QEAV0@@Z 0000000180012560 f i libucrtd:output.obj
 0001:000115a0       ??A?$spectre_mitigated_lookup_table@Ustate_transition_pair@__crt_stdio_output@@$0IA@@__crt_stdio_output@@QEBAAEBUstate_transition_pair@1@_K@Z 00000001800125a0 f i libucrtd:output.obj
 0001:000115c0       ?adjust_hexit@?$output_processor@DV?$string_output_adapter@D@__crt_stdio_output@@V?$format_validation_base@DV?$string_output_adapter@D@__crt_stdio_output@@@2@@__crt_stdio_output@@CADH_N@Z 00000001800125c0 f i libucrtd:output.obj
 0001:000115c0       ?adjust_hexit@?$output_processor@_WV?$string_output_adapter@_W@__crt_stdio_output@@V?$format_validation_base@_WV?$string_output_adapter@_W@__crt_stdio_output@@@2@@__crt_stdio_output@@CADH_N@Z 00000001800125c0 f i libucrtd:output.obj
 0001:00011610       ?advance_to_next_pass@?$standard_base@_WV?$string_output_adapter@_W@__crt_stdio_output@@@__crt_stdio_output@@IEAA_NXZ 0000000180012610 f i libucrtd:output.obj
 0001:00011610       ?advance_to_next_pass@?$standard_base@DV?$string_output_adapter@D@__crt_stdio_output@@@__crt_stdio_output@@IEAA_NXZ 0000000180012610 f i libucrtd:output.obj
 0001:00011660       ?crop_zeroes@__crt_stdio_output@@YAXPEADQEAU__crt_locale_pointers@@@Z 0000000180012660 f i libucrtd:output.obj
 0001:000117a0       ?find_next_state@?$output_processor@DV?$string_output_adapter@D@__crt_stdio_output@@V?$format_validation_base@DV?$string_output_adapter@D@__crt_stdio_output@@@2@@__crt_stdio_output@@AEBA?AW4state@2@DW432@@Z 00000001800127a0 f i libucrtd:output.obj
 0001:00011830       ?find_next_state@?$output_processor@_WV?$string_output_adapter@_W@__crt_stdio_output@@V?$format_validation_base@_WV?$string_output_adapter@_W@__crt_stdio_output@@@2@@__crt_stdio_output@@AEBA?AW4state@2@_WW432@@Z 0000000180012830 f i libucrtd:output.obj
 0001:000118c0       ?force_decimal_point@__crt_stdio_output@@YAXPEADQEAU__crt_locale_pointers@@@Z 00000001800128c0 f i libucrtd:output.obj
 0001:000119c0       ?get@__crt_deferred_errno_cache@@QEAAAEAHXZ 00000001800129c0 f i libucrtd:output.obj
 0001:000119f0       ?get_flags@__crt_stdio_stream@@QEBAJXZ 00000001800129f0 f i libucrtd:output.obj
 0001:00011a20       ?has_flag@?$output_processor@_WV?$string_output_adapter@_W@__crt_stdio_output@@V?$format_validation_base@_WV?$string_output_adapter@_W@__crt_stdio_output@@@2@@__crt_stdio_output@@AEBA_NI@Z 0000000180012a20 f i libucrtd:output.obj
 0001:00011a20       ?has_flag@?$output_processor@DV?$string_output_adapter@D@__crt_stdio_output@@V?$format_validation_base@DV?$string_output_adapter@D@__crt_stdio_output@@@2@@__crt_stdio_output@@AEBA_NI@Z 0000000180012a20 f i libucrtd:output.obj
 0001:00011a60       ?is_string_backed@__crt_stdio_stream@@QEBA_NXZ 0000000180012a60 f i libucrtd:output.obj
 0001:00011aa0       ?narrow_null_string@?$output_processor@DV?$string_output_adapter@D@__crt_stdio_output@@V?$format_validation_base@DV?$string_output_adapter@D@__crt_stdio_output@@@2@@__crt_stdio_output@@CAPEADXZ 0000000180012aa0 f i libucrtd:output.obj
 0001:00011aa0       ?narrow_null_string@?$output_processor@_WV?$string_output_adapter@_W@__crt_stdio_output@@V?$format_validation_base@_WV?$string_output_adapter@_W@__crt_stdio_output@@@2@@__crt_stdio_output@@CAPEADXZ 0000000180012aa0 f i libucrtd:output.obj
 0001:00011ab0       ?parse_int_from_format_string@?$output_processor@DV?$string_output_adapter@D@__crt_stdio_output@@V?$format_validation_base@DV?$string_output_adapter@D@__crt_stdio_output@@@2@@__crt_stdio_output@@AEAA_NQEAH@Z 0000000180012ab0 f i libucrtd:output.obj
 0001:00011ba0       ?parse_int_from_format_string@?$output_processor@_WV?$string_output_adapter@_W@__crt_stdio_output@@V?$format_validation_base@_WV?$string_output_adapter@_W@__crt_stdio_output@@@2@@__crt_stdio_output@@AEAA_NQEAH@Z 0000000180012ba0 f i libucrtd:output.obj
 0001:00011c90       ?process@?$output_processor@DV?$string_output_adapter@D@__crt_stdio_output@@V?$format_validation_base@DV?$string_output_adapter@D@__crt_stdio_output@@@2@@__crt_stdio_output@@QEAAHXZ 0000000180012c90 f i libucrtd:output.obj
 0001:00011ff0       ?process@?$output_processor@_WV?$string_output_adapter@_W@__crt_stdio_output@@V?$format_validation_base@_WV?$string_output_adapter@_W@__crt_stdio_output@@@2@@__crt_stdio_output@@QEAAHXZ 0000000180012ff0 f i libucrtd:output.obj
 0001:00012350       ?set_flag@?$output_processor@DV?$string_output_adapter@D@__crt_stdio_output@@V?$format_validation_base@DV?$string_output_adapter@D@__crt_stdio_output@@@2@@__crt_stdio_output@@AEAAXI@Z 0000000180013350 f i libucrtd:output.obj
 0001:00012350       ?set_flag@?$output_processor@_WV?$string_output_adapter@_W@__crt_stdio_output@@V?$format_validation_base@_WV?$string_output_adapter@_W@__crt_stdio_output@@@2@@__crt_stdio_output@@AEAAXI@Z 0000000180013350 f i libucrtd:output.obj
 0001:00012370       ?validate_and_update_state_at_beginning_of_format_character@?$standard_base@_WV?$string_output_adapter@_W@__crt_stdio_output@@@__crt_stdio_output@@IEAA_NXZ 0000000180013370 f i libucrtd:output.obj
 0001:00012370       ?validate_state_for_type_case_a@?$standard_base@DV?$string_output_adapter@D@__crt_stdio_output@@@__crt_stdio_output@@IEBA_NXZ 0000000180013370 f i libucrtd:output.obj
 0001:00012370       ?should_format@?$standard_base@_WV?$string_output_adapter@_W@__crt_stdio_output@@@__crt_stdio_output@@IEAA_NXZ 0000000180013370 f i libucrtd:output.obj
 0001:00012370       ?validate_and_update_state_at_beginning_of_format_character@?$standard_base@DV?$string_output_adapter@D@__crt_stdio_output@@@__crt_stdio_output@@IEAA_NXZ 0000000180013370 f i libucrtd:output.obj
 0001:00012370       ?validate_state_for_type_case_a@?$standard_base@_WV?$string_output_adapter@_W@__crt_stdio_output@@@__crt_stdio_output@@IEBA_NXZ 0000000180013370 f i libucrtd:output.obj
 0001:00012370       ?should_format@?$standard_base@DV?$string_output_adapter@D@__crt_stdio_output@@@__crt_stdio_output@@IEAA_NXZ 0000000180013370 f i libucrtd:output.obj
 0001:00012380       ?should_skip_type_state_output@?$standard_base@_WV?$string_output_adapter@_W@__crt_stdio_output@@@__crt_stdio_output@@IEBA_NXZ 0000000180013380 f i libucrtd:output.obj
 0001:00012380       ?should_skip_normal_state_processing@?$standard_base@_WV?$string_output_adapter@_W@__crt_stdio_output@@@__crt_stdio_output@@IEAA_NXZ 0000000180013380 f i libucrtd:output.obj
 0001:00012380       ?should_skip_type_state_output@?$standard_base@DV?$string_output_adapter@D@__crt_stdio_output@@@__crt_stdio_output@@IEBA_NXZ 0000000180013380 f i libucrtd:output.obj
 0001:00012380       ?should_skip_normal_state_processing@?$standard_base@DV?$string_output_adapter@D@__crt_stdio_output@@@__crt_stdio_output@@IEAA_NXZ 0000000180013380 f i libucrtd:output.obj
 0001:00012390       ?state_case_dot@?$output_processor@_WV?$string_output_adapter@_W@__crt_stdio_output@@V?$format_validation_base@_WV?$string_output_adapter@_W@__crt_stdio_output@@@2@@__crt_stdio_output@@AEAA_NXZ 0000000180013390 f i libucrtd:output.obj
 0001:00012390       ?state_case_dot@?$output_processor@DV?$string_output_adapter@D@__crt_stdio_output@@V?$format_validation_base@DV?$string_output_adapter@D@__crt_stdio_output@@@2@@__crt_stdio_output@@AEAA_NXZ 0000000180013390 f i libucrtd:output.obj
 0001:000123b0       ?state_case_flag@?$output_processor@DV?$string_output_adapter@D@__crt_stdio_output@@V?$format_validation_base@DV?$string_output_adapter@D@__crt_stdio_output@@@2@@__crt_stdio_output@@AEAA_NXZ 00000001800133b0 f i libucrtd:output.obj
 0001:00012450       ?state_case_flag@?$output_processor@_WV?$string_output_adapter@_W@__crt_stdio_output@@V?$format_validation_base@_WV?$string_output_adapter@_W@__crt_stdio_output@@@2@@__crt_stdio_output@@AEAA_NXZ 0000000180013450 f i libucrtd:output.obj
 0001:000124f0       ?state_case_normal@?$output_processor@DV?$string_output_adapter@D@__crt_stdio_output@@V?$format_validation_base@DV?$string_output_adapter@D@__crt_stdio_output@@@2@@__crt_stdio_output@@AEAA_NXZ 00000001800134f0 f i libucrtd:output.obj
 0001:000125d0       ?state_case_normal@?$output_processor@_WV?$string_output_adapter@_W@__crt_stdio_output@@V?$format_validation_base@_WV?$string_output_adapter@_W@__crt_stdio_output@@@2@@__crt_stdio_output@@AEAA_NXZ 00000001800135d0 f i libucrtd:output.obj
 0001:000126b0       ?state_case_normal_common@?$output_processor@DV?$string_output_adapter@D@__crt_stdio_output@@V?$format_validation_base@DV?$string_output_adapter@D@__crt_stdio_output@@@2@@__crt_stdio_output@@AEAA_NXZ 00000001800136b0 f i libucrtd:output.obj
 0001:00012700       ?state_case_normal_common@?$output_processor@_WV?$string_output_adapter@_W@__crt_stdio_output@@V?$format_validation_base@_WV?$string_output_adapter@_W@__crt_stdio_output@@@2@@__crt_stdio_output@@AEAA_NXZ 0000000180013700 f i libucrtd:output.obj
 0001:00012750       ?state_case_normal_tchar@?$output_processor@DV?$string_output_adapter@D@__crt_stdio_output@@V?$format_validation_base@DV?$string_output_adapter@D@__crt_stdio_output@@@2@@__crt_stdio_output@@AEAA_ND@Z 0000000180013750 f i libucrtd:output.obj
 0001:00012890       ?state_case_normal_tchar@?$output_processor@_WV?$string_output_adapter@_W@__crt_stdio_output@@V?$format_validation_base@_WV?$string_output_adapter@_W@__crt_stdio_output@@@2@@__crt_stdio_output@@AEAA_N_W@Z 0000000180013890 f i libucrtd:output.obj
 0001:000128b0       ?state_case_percent@?$output_processor@_WV?$string_output_adapter@_W@__crt_stdio_output@@V?$format_validation_base@_WV?$string_output_adapter@_W@__crt_stdio_output@@@2@@__crt_stdio_output@@AEAA_NXZ 00000001800138b0 f i libucrtd:output.obj
 0001:000128b0       ?state_case_percent@?$output_processor@DV?$string_output_adapter@D@__crt_stdio_output@@V?$format_validation_base@DV?$string_output_adapter@D@__crt_stdio_output@@@2@@__crt_stdio_output@@AEAA_NXZ 00000001800138b0 f i libucrtd:output.obj
 0001:00012900       ?state_case_precision@?$output_processor@DV?$string_output_adapter@D@__crt_stdio_output@@V?$format_validation_base@DV?$string_output_adapter@D@__crt_stdio_output@@@2@@__crt_stdio_output@@AEAA_NXZ 0000000180013900 f i libucrtd:output.obj
 0001:00012980       ?state_case_precision@?$output_processor@_WV?$string_output_adapter@_W@__crt_stdio_output@@V?$format_validation_base@_WV?$string_output_adapter@_W@__crt_stdio_output@@@2@@__crt_stdio_output@@AEAA_NXZ 0000000180013980 f i libucrtd:output.obj
 0001:00012a00       ?state_case_size@?$output_processor@DV?$string_output_adapter@D@__crt_stdio_output@@V?$format_validation_base@DV?$string_output_adapter@D@__crt_stdio_output@@@2@@__crt_stdio_output@@AEAA_NXZ 0000000180013a00 f i libucrtd:output.obj
 0001:00012e80       ?state_case_size@?$output_processor@_WV?$string_output_adapter@_W@__crt_stdio_output@@V?$format_validation_base@_WV?$string_output_adapter@_W@__crt_stdio_output@@@2@@__crt_stdio_output@@AEAA_NXZ 0000000180013e80 f i libucrtd:output.obj
 0001:00013300       ?state_case_type@?$output_processor@DV?$string_output_adapter@D@__crt_stdio_output@@V?$format_validation_base@DV?$string_output_adapter@D@__crt_stdio_output@@@2@@__crt_stdio_output@@AEAA_NXZ 0000000180014300 f i libucrtd:output.obj
 0001:000137a0       ?state_case_type@?$output_processor@_WV?$string_output_adapter@_W@__crt_stdio_output@@V?$format_validation_base@_WV?$string_output_adapter@_W@__crt_stdio_output@@@2@@__crt_stdio_output@@AEAA_NXZ 00000001800147a0 f i libucrtd:output.obj
 0001:00013d00       ?state_case_width@?$output_processor@DV?$string_output_adapter@D@__crt_stdio_output@@V?$format_validation_base@DV?$string_output_adapter@D@__crt_stdio_output@@@2@@__crt_stdio_output@@AEAA_NXZ 0000000180014d00 f i libucrtd:output.obj
 0001:00013d90       ?state_case_width@?$output_processor@_WV?$string_output_adapter@_W@__crt_stdio_output@@V?$format_validation_base@_WV?$string_output_adapter@_W@__crt_stdio_output@@@2@@__crt_stdio_output@@AEAA_NXZ 0000000180014d90 f i libucrtd:output.obj
 0001:00013e20       ?state_count@?$format_validation_base@_WV?$string_output_adapter@_W@__crt_stdio_output@@@__crt_stdio_output@@KAIXZ 0000000180014e20 f i libucrtd:output.obj
 0001:00013e20       ?state_count@?$format_validation_base@DV?$string_output_adapter@D@__crt_stdio_output@@@__crt_stdio_output@@KAIXZ 0000000180014e20 f i libucrtd:output.obj
 0001:00013e30       ?state_transition_table@?$format_validation_base@_WV?$string_output_adapter@_W@__crt_stdio_output@@@__crt_stdio_output@@KAAEBV?$spectre_mitigated_lookup_table@Ustate_transition_pair@__crt_stdio_output@@$0IA@@2@XZ 0000000180014e30 f i libucrtd:output.obj
 0001:00013e30       ?state_transition_table@?$format_validation_base@DV?$string_output_adapter@D@__crt_stdio_output@@@__crt_stdio_output@@KAAEBV?$spectre_mitigated_lookup_table@Ustate_transition_pair@__crt_stdio_output@@$0IA@@2@XZ 0000000180014e30 f i libucrtd:output.obj
 0001:00013e40       ?tchar_string@?$common_data@D@__crt_stdio_output@@IEAAAEAPEADD@Z 0000000180014e40 f i libucrtd:output.obj
 0001:00013e60       ?tchar_string@?$common_data@D@__crt_stdio_output@@IEAAAEAPEADXZ 0000000180014e60 f i libucrtd:output.obj
 0001:00013e80       ?tchar_string@?$common_data@_W@__crt_stdio_output@@IEAAAEAPEA_WXZ 0000000180014e80 f i libucrtd:output.obj
 0001:00013ea0       ?tchar_string@?$common_data@_W@__crt_stdio_output@@IEAAAEAPEA_W_W@Z 0000000180014ea0 f i libucrtd:output.obj
 0001:00013ec0       ?to_integer_size@__crt_stdio_output@@YA_KW4length_modifier@1@@Z 0000000180014ec0 f i libucrtd:output.obj
 0001:00013f70       ?type_case_X@?$output_processor@DV?$string_output_adapter@D@__crt_stdio_output@@V?$format_validation_base@DV?$string_output_adapter@D@__crt_stdio_output@@@2@@__crt_stdio_output@@AEAA_NXZ 0000000180014f70 f i libucrtd:output.obj
 0001:00013f90       ?type_case_X@?$output_processor@_WV?$string_output_adapter@_W@__crt_stdio_output@@V?$format_validation_base@_WV?$string_output_adapter@_W@__crt_stdio_output@@@2@@__crt_stdio_output@@AEAA_NXZ 0000000180014f90 f i libucrtd:output.obj
 0001:00013fb0       ?type_case_Z@?$output_processor@DV?$string_output_adapter@D@__crt_stdio_output@@V?$format_validation_base@DV?$string_output_adapter@D@__crt_stdio_output@@@2@@__crt_stdio_output@@AEAA_NXZ 0000000180014fb0 f i libucrtd:output.obj
 0001:000140d0       ?type_case_Z@?$output_processor@_WV?$string_output_adapter@_W@__crt_stdio_output@@V?$format_validation_base@_WV?$string_output_adapter@_W@__crt_stdio_output@@@2@@__crt_stdio_output@@AEAA_NXZ 00000001800150d0 f i libucrtd:output.obj
 0001:000141f0       ?type_case_a@?$output_processor@DV?$string_output_adapter@D@__crt_stdio_output@@V?$format_validation_base@DV?$string_output_adapter@D@__crt_stdio_output@@@2@@__crt_stdio_output@@AEAA_NXZ 00000001800151f0 f i libucrtd:output.obj
 0001:000145c0       ?type_case_a@?$output_processor@_WV?$string_output_adapter@_W@__crt_stdio_output@@V?$format_validation_base@_WV?$string_output_adapter@_W@__crt_stdio_output@@@2@@__crt_stdio_output@@AEAA_NXZ 00000001800155c0 f i libucrtd:output.obj
 0001:00014990       ?type_case_c@?$output_processor@DV?$string_output_adapter@D@__crt_stdio_output@@V?$format_validation_base@DV?$string_output_adapter@D@__crt_stdio_output@@@2@@__crt_stdio_output@@AEAA_NXZ 0000000180015990 f i libucrtd:output.obj
 0001:000149b0       ?type_case_c@?$output_processor@_WV?$string_output_adapter@_W@__crt_stdio_output@@V?$format_validation_base@_WV?$string_output_adapter@_W@__crt_stdio_output@@@2@@__crt_stdio_output@@AEAA_NXZ 00000001800159b0 f i libucrtd:output.obj
 0001:000149d0       ?type_case_c_tchar@?$output_processor@DV?$string_output_adapter@D@__crt_stdio_output@@V?$format_validation_base@DV?$string_output_adapter@D@__crt_stdio_output@@@2@@__crt_stdio_output@@AEAA_ND@Z 00000001800159d0 f i libucrtd:output.obj
 0001:00014b30       ?type_case_c_tchar@?$output_processor@_WV?$string_output_adapter@_W@__crt_stdio_output@@V?$format_validation_base@_WV?$string_output_adapter@_W@__crt_stdio_output@@@2@@__crt_stdio_output@@AEAA_N_W@Z 0000000180015b30 f i libucrtd:output.obj
 0001:00014c60       ?type_case_d@?$output_processor@DV?$string_output_adapter@D@__crt_stdio_output@@V?$format_validation_base@DV?$string_output_adapter@D@__crt_stdio_output@@@2@@__crt_stdio_output@@AEAA_NXZ 0000000180015c60 f i libucrtd:output.obj
 0001:00014c90       ?type_case_d@?$output_processor@_WV?$string_output_adapter@_W@__crt_stdio_output@@V?$format_validation_base@_WV?$string_output_adapter@_W@__crt_stdio_output@@@2@@__crt_stdio_output@@AEAA_NXZ 0000000180015c90 f i libucrtd:output.obj
 0001:00014cc0       ?type_case_integer@?$output_processor@DV?$string_output_adapter@D@__crt_stdio_output@@V?$format_validation_base@DV?$string_output_adapter@D@__crt_stdio_output@@@2@@__crt_stdio_output@@AEAA_NI_N@Z 0000000180015cc0 f i libucrtd:output.obj
 0001:00015110       ?type_case_integer@?$output_processor@_WV?$string_output_adapter@_W@__crt_stdio_output@@V?$format_validation_base@_WV?$string_output_adapter@_W@__crt_stdio_output@@@2@@__crt_stdio_output@@AEAA_NI_N@Z 0000000180016110 f i libucrtd:output.obj
 0001:00015560       ?type_case_n@?$output_processor@DV?$string_output_adapter@D@__crt_stdio_output@@V?$format_validation_base@DV?$string_output_adapter@D@__crt_stdio_output@@@2@@__crt_stdio_output@@AEAA_NXZ 0000000180016560 f i libucrtd:output.obj
 0001:000157a0       ?type_case_n@?$output_processor@_WV?$string_output_adapter@_W@__crt_stdio_output@@V?$format_validation_base@_WV?$string_output_adapter@_W@__crt_stdio_output@@@2@@__crt_stdio_output@@AEAA_NXZ 00000001800167a0 f i libucrtd:output.obj
 0001:000159e0       ?type_case_o@?$output_processor@DV?$string_output_adapter@D@__crt_stdio_output@@V?$format_validation_base@DV?$string_output_adapter@D@__crt_stdio_output@@@2@@__crt_stdio_output@@AEAA_NXZ 00000001800169e0 f i libucrtd:output.obj
 0001:00015a30       ?type_case_o@?$output_processor@_WV?$string_output_adapter@_W@__crt_stdio_output@@V?$format_validation_base@_WV?$string_output_adapter@_W@__crt_stdio_output@@@2@@__crt_stdio_output@@AEAA_NXZ 0000000180016a30 f i libucrtd:output.obj
 0001:00015a80       ?type_case_p@?$output_processor@DV?$string_output_adapter@D@__crt_stdio_output@@V?$format_validation_base@DV?$string_output_adapter@D@__crt_stdio_output@@@2@@__crt_stdio_output@@AEAA_NXZ 0000000180016a80 f i libucrtd:output.obj
 0001:00015ac0       ?type_case_p@?$output_processor@_WV?$string_output_adapter@_W@__crt_stdio_output@@V?$format_validation_base@_WV?$string_output_adapter@_W@__crt_stdio_output@@@2@@__crt_stdio_output@@AEAA_NXZ 0000000180016ac0 f i libucrtd:output.obj
 0001:00015b00       ?type_case_s@?$output_processor@DV?$string_output_adapter@D@__crt_stdio_output@@V?$format_validation_base@DV?$string_output_adapter@D@__crt_stdio_output@@@2@@__crt_stdio_output@@AEAA_NXZ 0000000180016b00 f i libucrtd:output.obj
 0001:00015c20       ?type_case_s@?$output_processor@_WV?$string_output_adapter@_W@__crt_stdio_output@@V?$format_validation_base@_WV?$string_output_adapter@_W@__crt_stdio_output@@@2@@__crt_stdio_output@@AEAA_NXZ 0000000180016c20 f i libucrtd:output.obj
 0001:00015d40       ?type_case_s_compute_narrow_string_length@?$output_processor@DV?$string_output_adapter@D@__crt_stdio_output@@V?$format_validation_base@DV?$string_output_adapter@D@__crt_stdio_output@@@2@@__crt_stdio_output@@AEBAHHD@Z 0000000180016d40 f i libucrtd:output.obj
 0001:00015d70       ?type_case_s_compute_narrow_string_length@?$output_processor@_WV?$string_output_adapter@_W@__crt_stdio_output@@V?$format_validation_base@_WV?$string_output_adapter@_W@__crt_stdio_output@@@2@@__crt_stdio_output@@AEBAHH_W@Z 0000000180016d70 f i libucrtd:output.obj
 0001:00015e00       ?type_case_u@?$output_processor@DV?$string_output_adapter@D@__crt_stdio_output@@V?$format_validation_base@DV?$string_output_adapter@D@__crt_stdio_output@@@2@@__crt_stdio_output@@AEAA_NXZ 0000000180016e00 f i libucrtd:output.obj
 0001:00015e20       ?type_case_u@?$output_processor@_WV?$string_output_adapter@_W@__crt_stdio_output@@V?$format_validation_base@_WV?$string_output_adapter@_W@__crt_stdio_output@@@2@@__crt_stdio_output@@AEAA_NXZ 0000000180016e20 f i libucrtd:output.obj
 0001:00015e40       ?type_case_x@?$output_processor@DV?$string_output_adapter@D@__crt_stdio_output@@V?$format_validation_base@DV?$string_output_adapter@D@__crt_stdio_output@@@2@@__crt_stdio_output@@AEAA_NXZ 0000000180016e40 f i libucrtd:output.obj
 0001:00015e60       ?type_case_x@?$output_processor@_WV?$string_output_adapter@_W@__crt_stdio_output@@V?$format_validation_base@_WV?$string_output_adapter@_W@__crt_stdio_output@@@2@@__crt_stdio_output@@AEAA_NXZ 0000000180016e60 f i libucrtd:output.obj
 0001:00015e80       ?unset_flag@?$output_processor@_WV?$string_output_adapter@_W@__crt_stdio_output@@V?$format_validation_base@_WV?$string_output_adapter@_W@__crt_stdio_output@@@2@@__crt_stdio_output@@AEAAXI@Z 0000000180016e80 f i libucrtd:output.obj
 0001:00015e80       ?unset_flag@?$output_processor@DV?$string_output_adapter@D@__crt_stdio_output@@V?$format_validation_base@DV?$string_output_adapter@D@__crt_stdio_output@@@2@@__crt_stdio_output@@AEAAXI@Z 0000000180016e80 f i libucrtd:output.obj
 0001:00015eb0       ?update_field_width@?$standard_base@_WV?$string_output_adapter@_W@__crt_stdio_output@@@__crt_stdio_output@@IEAA_NXZ 0000000180016eb0 f i libucrtd:output.obj
 0001:00015eb0       ?update_field_width@?$standard_base@DV?$string_output_adapter@D@__crt_stdio_output@@@__crt_stdio_output@@IEAA_NXZ 0000000180016eb0 f i libucrtd:output.obj
 0001:00015ee0       ?update_precision@?$standard_base@DV?$string_output_adapter@D@__crt_stdio_output@@@__crt_stdio_output@@IEAA_NXZ 0000000180016ee0 f i libucrtd:output.obj
 0001:00015ee0       ?update_precision@?$standard_base@_WV?$string_output_adapter@_W@__crt_stdio_output@@@__crt_stdio_output@@IEAA_NXZ 0000000180016ee0 f i libucrtd:output.obj
 0001:00015f10       ?validate@?$string_output_adapter@D@__crt_stdio_output@@QEBA_NXZ 0000000180016f10 f i libucrtd:output.obj
 0001:00015fd0       ?validate@?$string_output_adapter@_W@__crt_stdio_output@@QEBA_NXZ 0000000180016fd0 f i libucrtd:output.obj
 0001:00016090       ?validate_and_update_state_at_end_of_format_string@?$format_validation_base@DV?$string_output_adapter@D@__crt_stdio_output@@@__crt_stdio_output@@IEBA_NXZ 0000000180017090 f i libucrtd:output.obj
 0001:00016150       ?validate_and_update_state_at_end_of_format_string@?$format_validation_base@_WV?$string_output_adapter@_W@__crt_stdio_output@@@__crt_stdio_output@@IEBA_NXZ 0000000180017150 f i libucrtd:output.obj
 0001:00016210       ?wide_null_string@?$output_processor@_WV?$string_output_adapter@_W@__crt_stdio_output@@V?$format_validation_base@_WV?$string_output_adapter@_W@__crt_stdio_output@@@2@@__crt_stdio_output@@CAPEA_WXZ 0000000180017210 f i libucrtd:output.obj
 0001:00016210       ?wide_null_string@?$output_processor@DV?$string_output_adapter@D@__crt_stdio_output@@V?$format_validation_base@DV?$string_output_adapter@D@__crt_stdio_output@@@2@@__crt_stdio_output@@CAPEA_WXZ 0000000180017210 f i libucrtd:output.obj
 0001:00016220       ?write_character@?$string_output_adapter@D@__crt_stdio_output@@QEBA_NDQEAH@Z 0000000180017220 f i libucrtd:output.obj
 0001:000162e0       ?write_character@?$string_output_adapter@_W@__crt_stdio_output@@QEBA_N_WQEAH@Z 00000001800172e0 f i libucrtd:output.obj
 0001:000163a0       ?write_stored_string_tchar@?$output_processor@DV?$string_output_adapter@D@__crt_stdio_output@@V?$format_validation_base@DV?$string_output_adapter@D@__crt_stdio_output@@@2@@__crt_stdio_output@@AEAA_ND@Z 00000001800173a0 f i libucrtd:output.obj
 0001:00016560       ?write_stored_string_tchar@?$output_processor@_WV?$string_output_adapter@_W@__crt_stdio_output@@V?$format_validation_base@_WV?$string_output_adapter@_W@__crt_stdio_output@@@2@@__crt_stdio_output@@AEAA_N_W@Z 0000000180017560 f i libucrtd:output.obj
 0001:000166b0       ?write_string@?$string_output_adapter@D@__crt_stdio_output@@QEBAXQEBDHQEAHAEAV__crt_deferred_errno_cache@@@Z 00000001800176b0 f i libucrtd:output.obj
 0001:00016820       ?write_string@?$string_output_adapter@_W@__crt_stdio_output@@QEBAXQEB_WHQEAHAEAV__crt_deferred_errno_cache@@@Z 0000000180017820 f i libucrtd:output.obj
 0001:00016990       __acrt_isleadbyte_l_noupdate 0000000180017990 f i libucrtd:output.obj
 0001:000169c0       __acrt_locale_get_ctype_array_value 00000001800179c0 f i libucrtd:output.obj
 0001:00016a00       __stdio_common_vsnprintf_s 0000000180017a00 f   libucrtd:output.obj
 0001:00016a60       __stdio_common_vsnwprintf_s 0000000180017a60 f   libucrtd:output.obj
 0001:00016ac0       __stdio_common_vsprintf_s  0000000180017ac0 f   libucrtd:output.obj
 0001:00016b10       _ctype_fast_check_internal 0000000180017b10 f i libucrtd:output.obj
 0001:00016b40       _isdigit_fast_internal     0000000180017b40 f i libucrtd:output.obj
 0001:00016b70       _tolower_fast_internal     0000000180017b70 f i libucrtd:output.obj
 0001:00016ba0       ??$is_overflow_condition@K@__crt_strtox@@YA_NIK@Z 0000000180017ba0 f i libucrtd:atox.obj
 0001:00016c10       ??$parse_integer@KV?$c_string_character_source@D@__crt_strtox@@@__crt_strtox@@YAKQEAU__crt_locale_pointers@@V?$c_string_character_source@D@0@H_N@Z 0000000180017c10 f i libucrtd:atox.obj
 0001:000170a0       ??$parse_integer@KV?$c_string_character_source@_W@__crt_strtox@@@__crt_strtox@@YAKQEAU__crt_locale_pointers@@V?$c_string_character_source@_W@0@H_N@Z 00000001800180a0 f i libucrtd:atox.obj
 0001:00017550       ??0?$c_string_character_source@D@__crt_strtox@@QEAA@QEBDQEAPEBD@Z 0000000180018550 f i libucrtd:atox.obj
 0001:00017550       ??0?$c_string_character_source@_W@__crt_strtox@@QEAA@QEB_WQEAPEB_W@Z 0000000180018550 f i libucrtd:atox.obj
 0001:000175a0       ??1?$c_string_character_source@_W@__crt_strtox@@QEAA@XZ 00000001800185a0 f i libucrtd:atox.obj
 0001:000175a0       ??1?$c_string_character_source@D@__crt_strtox@@QEAA@XZ 00000001800185a0 f i libucrtd:atox.obj
 0001:000175d0       ?get@?$c_string_character_source@D@__crt_strtox@@QEAADXZ 00000001800185d0 f i libucrtd:atox.obj
 0001:00017610       ?get@?$c_string_character_source@_W@__crt_strtox@@QEAA_WXZ 0000000180018610 f i libucrtd:atox.obj
 0001:00017650       ?is_space@__crt_strtox@@YA_NDQEAU__crt_locale_pointers@@@Z 0000000180018650 f i libucrtd:atox.obj
 0001:000176a0       ?is_space@__crt_strtox@@YA_N_WPEAU__crt_locale_pointers@@@Z 00000001800186a0 f i libucrtd:atox.obj
 0001:000176e0       ?maximum_signed_value@__crt_strtox@@YAJK@Z 00000001800186e0 f i libucrtd:atox.obj
 0001:000176f0       ?minimum_signed_value@__crt_strtox@@YAJK@Z 00000001800186f0 f i libucrtd:atox.obj
 0001:00017700       ?parse_digit@__crt_strtox@@YAID@Z 0000000180018700 f i libucrtd:atox.obj
 0001:00017770       ?parse_digit@__crt_strtox@@YAI_W@Z 0000000180018770 f i libucrtd:atox.obj
 0001:000177c0       ?restore_state@?$c_string_character_source@D@__crt_strtox@@QEAA_NQEBD@Z 00000001800187c0 f i libucrtd:atox.obj
 0001:000177c0       ?restore_state@?$c_string_character_source@_W@__crt_strtox@@QEAA_NQEB_W@Z 00000001800187c0 f i libucrtd:atox.obj
 0001:000177e0       ?unget@?$c_string_character_source@D@__crt_strtox@@QEAAXD@Z 00000001800187e0 f i libucrtd:atox.obj
 0001:000178c0       ?unget@?$c_string_character_source@_W@__crt_strtox@@QEAAX_W@Z 00000001800188c0 f i libucrtd:atox.obj
 0001:000179a0       ?validate@?$c_string_character_source@D@__crt_strtox@@QEBA_NXZ 00000001800189a0 f i libucrtd:atox.obj
 0001:00017a60       ?validate@?$c_string_character_source@_W@__crt_strtox@@QEBA_NXZ 0000000180018a60 f i libucrtd:atox.obj
 0001:00017b20       ?wide_character_to_digit@__crt_strtox@@YAH_W@Z 0000000180018b20 f i libucrtd:atox.obj
 0001:00017e90       __ascii_iswalpha           0000000180018e90 f i libucrtd:atox.obj
 0001:00017ed0       __ascii_toupper            0000000180018ed0 f i libucrtd:atox.obj
 0001:00017ef0       __ascii_towupper           0000000180018ef0 f i libucrtd:atox.obj
 0001:00017f20       strncmp                    0000000180018f20 f   libucrtd:strncmp.obj
 0001:00017fa0       wcsncmp                    0000000180018fa0 f   libucrtd:wcsncmp.obj
 0001:00018030       free                       0000000180019030 f   libucrtd:free.obj
 0001:00018060       malloc                     0000000180019060 f   libucrtd:malloc.obj
 0001:000182d0       ??0__crt_scoped_get_last_error_reset@@QEAA@XZ 00000001800192d0 f i libucrtd:per_thread_data.obj
 0001:000182f0       ??1__crt_scoped_get_last_error_reset@@QEAA@XZ 00000001800192f0 f i libucrtd:per_thread_data.obj
 0001:000186f0       ?get_current_state_index@__crt_state_management@@YA_KAEBV__crt_scoped_get_last_error_reset@@@Z 00000001800196f0 f i libucrtd:per_thread_data.obj
 0001:000189a0       __acrt_freeptd             00000001800199a0 f   libucrtd:per_thread_data.obj
 0001:000189e0       __acrt_getptd              00000001800199e0 f   libucrtd:per_thread_data.obj
 0001:00018a10       __acrt_getptd_head         0000000180019a10 f   libucrtd:per_thread_data.obj
 0001:00018a40       __acrt_getptd_noexit       0000000180019a40 f   libucrtd:per_thread_data.obj
 0001:00018a50       __acrt_initialize_ptd      0000000180019a50 f   libucrtd:per_thread_data.obj
 0001:00018a90       __acrt_uninitialize_ptd    0000000180019a90 f   libucrtd:per_thread_data.obj
 0001:00018ac0       _VCrtDbgReportA            0000000180019ac0 f   libucrtd:dbgrptt.obj
 0001:000194a0       _VCrtDbgReportW            000000018001a4a0 f   libucrtd:dbgrptt.obj
 0001:0001a020       _snprintf_s                000000018001b020 f i libucrtd:dbgrptt.obj
 0001:0001a090       _vsnprintf_s               000000018001b090 f i libucrtd:dbgrptt.obj
 0001:0001a0e0       _vsnprintf_s_l             000000018001b0e0 f i libucrtd:dbgrptt.obj
 0001:0001a160       __acrt_errno_from_os_error 000000018001b160 f   libucrtd:errno.obj
 0001:0001a1f0       __acrt_errno_map_os_error  000000018001b1f0 f   libucrtd:errno.obj
 0001:0001a220       __doserrno                 000000018001b220 f   libucrtd:errno.obj
 0001:0001a250       _errno                     000000018001b250 f   libucrtd:errno.obj
 0001:0001a760       wcscpy_s                   000000018001b760 f   libucrtd:wcscpy_s.obj
 0001:0001baf0       ??1?$__crt_simd_cleanup_guard@$00@@QEAA@XZ 000000018001caf0 f i libucrtd:strnlen.obj
 0001:0001bb00       ?compare_equals@?$__crt_simd_traits@$00E@@SA?AT__m256i@@T2@0@Z 000000018001cb00 f i libucrtd:strnlen.obj
 0001:0001bb40       ?compare_equals@?$__crt_simd_traits@$00G@@SA?AT__m256i@@T2@0@Z 000000018001cb40 f i libucrtd:strnlen.obj
 0001:0001bb80       ?compare_equals@?$__crt_simd_traits@$0A@E@@SA?AT__m128i@@T2@0@Z 000000018001cb80 f i libucrtd:strnlen.obj
 0001:0001bbb0       ?compare_equals@?$__crt_simd_traits@$0A@G@@SA?AT__m128i@@T2@0@Z 000000018001cbb0 f i libucrtd:strnlen.obj
 0001:0001bbe0       ?compute_byte_mask@?$__crt_simd_pack_traits@$00@@SAHT__m256i@@@Z 000000018001cbe0 f i libucrtd:strnlen.obj
 0001:0001bc00       ?compute_byte_mask@?$__crt_simd_pack_traits@$0A@@@SAHT__m128i@@@Z 000000018001cc00 f i libucrtd:strnlen.obj
 0001:0001bc20       ?get_zero_pack@?$__crt_simd_pack_traits@$00@@SA?AT__m256i@@XZ 000000018001cc20 f i libucrtd:strnlen.obj
 0001:0001bc50       ?get_zero_pack@?$__crt_simd_pack_traits@$0A@@@SA?AT__m128i@@XZ 000000018001cc50 f i libucrtd:strnlen.obj
 0001:0001bc70       strnlen                    000000018001cc70 f   libucrtd:strnlen.obj
 0001:0001bca0       wcslen                     000000018001cca0 f   libucrtd:strnlen.obj
 0001:0001bcc0       wcsnlen                    000000018001ccc0 f   libucrtd:strnlen.obj
 0001:0001be90       ??$__acrt_wcs_to_mbs_cp@U__crt_win32_buffer_no_resizing@@@@YAHQEB_WAEAV?$__crt_win32_buffer@DU__crt_win32_buffer_no_resizing@@@@I@Z 000000018001ce90 f i libucrtd:getmodulefilenamea.obj
 0001:0001bee0       ??0?$__crt_win32_buffer@DU__crt_win32_buffer_no_resizing@@@@QEAA@QEAD_K@Z 000000018001cee0 f i libucrtd:getmodulefilenamea.obj
 0001:0001bf50       ??1?$__crt_win32_buffer@DU__crt_win32_buffer_no_resizing@@@@QEAA@XZ 000000018001cf50 f i libucrtd:getmodulefilenamea.obj
 0001:0001bfe0       ?__acrt_get_utf8_acp_compatibility_codepage@@YAIXZ 000000018001cfe0 f i libucrtd:getmodulefilenamea.obj
 0001:0001c080       ?_deallocate@?$__crt_win32_buffer@DU__crt_win32_buffer_no_resizing@@@@AEAAXXZ 000000018001d080 f i libucrtd:getmodulefilenamea.obj
 0001:0001c0c0       ?allocate@?$__crt_win32_buffer@DU__crt_win32_buffer_no_resizing@@@@QEAAH_K@Z 000000018001d0c0 f i libucrtd:getmodulefilenamea.obj
 0001:0001c140       ?allocate@__crt_win32_buffer_no_resizing@@SAHQEAPEAX_KAEBV__crt_win32_buffer_empty_debug_info@@@Z 000000018001d140 f i libucrtd:getmodulefilenamea.obj
 0001:0001c170       ?capacity@?$__crt_win32_buffer@DU__crt_win32_buffer_no_resizing@@@@QEBA_KXZ 000000018001d170 f i libucrtd:getmodulefilenamea.obj
 0001:0001c170       ?capacity@?$__crt_win32_buffer@_WU__crt_win32_buffer_internal_dynamic_resizing@@@@QEBA_KXZ 000000018001d170 f i libucrtd:argv_wildcards.obj
 0001:0001c170       ?capacity@?$__crt_win32_buffer@DU__crt_win32_buffer_internal_dynamic_resizing@@@@QEBA_KXZ 000000018001d170 f i libucrtd:argv_wildcards.obj
 0001:0001c180       ?data@?$__crt_win32_buffer@DU__crt_win32_buffer_internal_dynamic_resizing@@@@QEAAPEADXZ 000000018001d180 f i libucrtd:argv_wildcards.obj
 0001:0001c180       ?data@?$__crt_win32_buffer@DU__crt_win32_buffer_no_resizing@@@@QEAAPEADXZ 000000018001d180 f i libucrtd:getmodulefilenamea.obj
 0001:0001c180       ?data@?$__crt_win32_buffer@_WU__crt_win32_buffer_internal_dynamic_resizing@@@@QEAAPEA_WXZ 000000018001d180 f i libucrtd:argv_wildcards.obj
 0001:0001c190       ?deallocate@__crt_win32_buffer_no_resizing@@SAXQEAXAEBV__crt_win32_buffer_empty_debug_info@@@Z 000000018001d190 f i libucrtd:getmodulefilenamea.obj
 0001:0001c1a0       ?set_to_nullptr@?$__crt_win32_buffer@DU__crt_win32_buffer_no_resizing@@@@QEAAXXZ 000000018001d1a0 f i libucrtd:getmodulefilenamea.obj
 0001:0001c1e0       ?size@?$__crt_win32_buffer@_WU__crt_win32_buffer_internal_dynamic_resizing@@@@QEAAX_K@Z 000000018001d1e0 f i libucrtd:argv_wildcards.obj
 0001:0001c1e0       ?size@?$__crt_win32_buffer@DU__crt_win32_buffer_internal_dynamic_resizing@@@@QEAAX_K@Z 000000018001d1e0 f i libucrtd:argv_wildcards.obj
 0001:0001c1e0       ?size@?$__crt_win32_buffer@DU__crt_win32_buffer_no_resizing@@@@QEAAX_K@Z 000000018001d1e0 f i libucrtd:getmodulefilenamea.obj
 0001:0001c200       ?size@?$__crt_win32_buffer@DU__crt_win32_buffer_no_resizing@@@@QEBA_KXZ 000000018001d200 f i libucrtd:getmodulefilenamea.obj
 0001:0001c210       __acrt_GetModuleFileNameA  000000018001d210 f   libucrtd:getmodulefilenamea.obj
 0001:0001c430       ??$message_box@$$TAEBQEB_WAEBQEB_WK@?$__crt_char_traits@_W@@SAH$$QEA$$TAEBQEB_W1$$QEAK@Z 000000018001d430 f i libucrtd:crtmbox.obj
 0001:0001c430       ??$message_box@PEAUHWND__@@AEBQEB_WAEBQEB_WAEBI@?$__crt_char_traits@_W@@SAH$$QEAPEAUHWND__@@AEBQEB_W1AEBI@Z 000000018001d430 f i libucrtd:crtmbox.obj
 0001:0001c480       ??$output_debug_string@AEBQEB_W@?$__crt_char_traits@_W@@SAXAEBQEB_W@Z 000000018001d480 f i libucrtd:crtmbox.obj
 0001:0001c4a0       __acrt_show_wide_message_box 000000018001d4a0 f   libucrtd:crtmbox.obj
 0001:0001c4d0       __acrt_initialize_locks    000000018001d4d0 f   libucrtd:locks.obj
 0001:0001c540       __acrt_lock                000000018001d540 f   libucrtd:locks.obj
 0001:0001c570       __acrt_uninitialize_locks  000000018001d570 f   libucrtd:locks.obj
 0001:0001c5d0       __acrt_unlock              000000018001d5d0 f   libucrtd:locks.obj
 0001:0001c7c0       __acrt_get_sigabrt_handler 000000018001d7c0 f   libucrtd:signal.obj
 0001:0001c7f0       __acrt_initialize_signal_handlers 000000018001d7f0 f   libucrtd:signal.obj
 0001:0001c850       __fpecode                  000000018001d850 f   libucrtd:signal.obj
 0001:0001c870       raise                      000000018001d870 f   libucrtd:signal.obj
 0001:0001d010       __acrt_get_developer_information_policy 000000018001e010 f   libucrtd:win_policies.obj
 0001:0001d030       __acrt_get_process_end_policy 000000018001e030 f   libucrtd:win_policies.obj
 0001:0001d040       __acrt_get_windowing_model_policy 000000018001e040 f   libucrtd:win_policies.obj
 0001:0001d3d0       ??$__acrt_mbs_to_wcs_cp@U__crt_win32_buffer_internal_dynamic_resizing@@@@YAHQEBDAEAV?$__crt_win32_buffer@_WU__crt_win32_buffer_internal_dynamic_resizing@@@@I@Z 000000018001e3d0 f i libucrtd:argv_wildcards.obj
 0001:0001d420       ??$__acrt_wcs_to_mbs_cp@U__crt_win32_buffer_internal_dynamic_resizing@@@@YAHQEB_WAEAV?$__crt_win32_buffer@DU__crt_win32_buffer_internal_dynamic_resizing@@@@I@Z 000000018001e420 f i libucrtd:argv_wildcards.obj
 0001:0001de70       ??$tcsncpy_s@PEADAEB_KAEBQEBDAEB_K@?$__crt_char_traits@D@@SAH$$QEAPEADAEB_KAEBQEBD1@Z 000000018001ee70 f i libucrtd:argv_wildcards.obj
 0001:0001de70       ??$tcsncpy_s@PEAD_KAEBQEBDAEB_K@?$__crt_char_traits@D@@SAH$$QEAPEAD$$QEA_KAEBQEBDAEB_K@Z 000000018001ee70 f i libucrtd:argv_wildcards.obj
 0001:0001de70       ??$tcsncpy_s@AEAPEAD_KAEAPEADAEB_K@?$__crt_char_traits@D@@SAHAEAPEAD$$QEA_K0AEB_K@Z 000000018001ee70 f i libucrtd:argv_wildcards.obj
 0001:0001dec0       ??$tcspbrk@AEAPEADAEAY02$$CBD@?$__crt_char_traits@D@@SAPEADAEAPEADAEAY02$$CBD@Z 000000018001eec0 f i libucrtd:argv_wildcards.obj
 0001:0001def0       ??0?$__crt_win32_buffer@_WU__crt_win32_buffer_internal_dynamic_resizing@@@@QEAA@XZ 000000018001eef0 f i libucrtd:argv_wildcards.obj
 0001:0001def0       ??0?$__crt_win32_buffer@DU__crt_win32_buffer_internal_dynamic_resizing@@@@QEAA@XZ 000000018001eef0 f i libucrtd:argv_wildcards.obj
 0001:0001df90       ??1?$__crt_unique_handle_t@U__crt_findfile_traits@@@@QEAA@XZ 000000018001ef90 f i libucrtd:argv_wildcards.obj
 0001:0001dfb0       ??1?$__crt_win32_buffer@_WU__crt_win32_buffer_internal_dynamic_resizing@@@@QEAA@XZ 000000018001efb0 f i libucrtd:argv_wildcards.obj
 0001:0001dfb0       ??1?$__crt_win32_buffer@DU__crt_win32_buffer_internal_dynamic_resizing@@@@QEAA@XZ 000000018001efb0 f i libucrtd:argv_wildcards.obj
 0001:0001e140       ?_deallocate@?$__crt_win32_buffer@_WU__crt_win32_buffer_internal_dynamic_resizing@@@@AEAAXXZ 000000018001f140 f i libucrtd:argv_wildcards.obj
 0001:0001e140       ?_deallocate@?$__crt_win32_buffer@DU__crt_win32_buffer_internal_dynamic_resizing@@@@AEAAXXZ 000000018001f140 f i libucrtd:argv_wildcards.obj
 0001:0001e180       ?allocate@?$__crt_win32_buffer@DU__crt_win32_buffer_internal_dynamic_resizing@@@@QEAAH_K@Z 000000018001f180 f i libucrtd:argv_wildcards.obj
 0001:0001e200       ?allocate@?$__crt_win32_buffer@_WU__crt_win32_buffer_internal_dynamic_resizing@@@@QEAAH_K@Z 000000018001f200 f i libucrtd:argv_wildcards.obj
 0001:0001e290       ?allocate@__crt_win32_buffer_internal_dynamic_resizing@@SAHQEAPEAX_KAEBV__crt_win32_buffer_empty_debug_info@@@Z 000000018001f290 f i libucrtd:argv_wildcards.obj
 0001:0001e360       ?close@?$__crt_unique_handle_t@U__crt_findfile_traits@@@@QEAAXXZ 000000018001f360 f i libucrtd:argv_wildcards.obj
 0001:0001e3a0       ?close@__crt_findfile_traits@@SA_NPEAX@Z 000000018001f3a0 f i libucrtd:argv_wildcards.obj
 0001:0001e3e0       ?deallocate@__crt_win32_buffer_internal_dynamic_resizing@@SAXQEAXAEBV__crt_win32_buffer_empty_debug_info@@@Z 000000018001f3e0 f i libucrtd:argv_wildcards.obj
 0001:0001e6d0       ?set_to_nullptr@?$__crt_win32_buffer@DU__crt_win32_buffer_internal_dynamic_resizing@@@@QEAAXXZ 000000018001f6d0 f i libucrtd:argv_wildcards.obj
 0001:0001e6d0       ?set_to_nullptr@?$__crt_win32_buffer@_WU__crt_win32_buffer_internal_dynamic_resizing@@@@QEAAXXZ 000000018001f6d0 f i libucrtd:argv_wildcards.obj
 0001:0001e730       ?strpbrk@@YAPEADQEADQEBD@Z 000000018001f730 f i libucrtd:argv_wildcards.obj
 0001:0001e760       __acrt_expand_narrow_argv_wildcards 000000018001f760 f   libucrtd:argv_wildcards.obj
 0001:0001e820       ??$initialize_from_array@$$BY10BAA@E@?$dual_state_global@PEAE@__crt_state_management@@QEAAXAEAY10BAA@E@Z 000000018001f820 f i libucrtd:mbctype.obj
 0001:0001e890       ??$initialize_from_array@$$BY10BAB@E@?$dual_state_global@PEAE@__crt_state_management@@QEAAXAEAY10BAB@E@Z 000000018001f890 f i libucrtd:mbctype.obj
 0001:0001f400       __acrt_initialize_multibyte 0000000180020400 f   libucrtd:mbctype.obj
 0001:0001f4d0       __acrt_should_sync_with_global_locale 00000001800204d0 f i libucrtd:mbctype.obj
 0001:0001f510       __acrt_update_thread_multibyte_data 0000000180020510 f   libucrtd:mbctype.obj
 0001:0001f540       _setmbcp_nolock            0000000180020540 f   libucrtd:mbctype.obj
 0001:0001fbe4       _ismbblead                 0000000180020be4 f   libucrtd:ismbbyte.obj
 0001:0001fc00       __acrt_initialize_command_line 0000000180020c00 f   libucrtd:argv_data.obj
 0001:0001fcd0       __acrt_MultiByteToWideChar 0000000180020cd0 f   libucrtd:multibytetowidechar.obj
 0001:0001fdd0       __acrt_WideCharToMultiByte 0000000180020dd0 f   libucrtd:widechartomultibyte.obj
 0001:0001ff00       __dcrt_get_narrow_environment_from_os 0000000180020f00 f   libucrtd:get_environment_from_os.obj
 0001:00020790       GetCurrentThreadEffectiveToken 0000000180021790 f i libucrtd:winapi_thunks.obj
 0001:000207a0       __acrt_AppPolicyGetProcessTerminationMethodInternal 00000001800217a0 f   libucrtd:winapi_thunks.obj
 0001:000207f0       __acrt_AppPolicyGetShowDeveloperDiagnosticInternal 00000001800217f0 f   libucrtd:winapi_thunks.obj
 0001:00020840       __acrt_AppPolicyGetWindowingModelInternal 0000000180021840 f   libucrtd:winapi_thunks.obj
 0001:00020890       __acrt_AreFileApisANSI     0000000180021890 f   libucrtd:winapi_thunks.obj
 0001:000208d0       __acrt_FlsAlloc            00000001800218d0 f   libucrtd:winapi_thunks.obj
 0001:00020920       __acrt_FlsFree             0000000180021920 f   libucrtd:winapi_thunks.obj
 0001:00020970       __acrt_FlsGetValue         0000000180021970 f   libucrtd:winapi_thunks.obj
 0001:000209c0       __acrt_FlsSetValue         00000001800219c0 f   libucrtd:winapi_thunks.obj
 0001:00020a20       __acrt_InitializeCriticalSectionEx 0000000180021a20 f   libucrtd:winapi_thunks.obj
 0001:00020a80       __acrt_LCMapStringEx       0000000180021a80 f   libucrtd:winapi_thunks.obj
 0001:00020b60       __acrt_LocaleNameToLCID    0000000180021b60 f   libucrtd:winapi_thunks.obj
 0001:00020bb0       __acrt_MessageBoxW         0000000180021bb0 f   libucrtd:winapi_thunks.obj
 0001:00020c10       __acrt_can_show_message_box 0000000180021c10 f   libucrtd:winapi_thunks.obj
 0001:00020c50       __acrt_get_parent_window   0000000180021c50 f   libucrtd:winapi_thunks.obj
 0001:00020cd0       __acrt_initialize_winapi_thunks 0000000180021cd0 f   libucrtd:winapi_thunks.obj
 0001:00020d50       __acrt_is_interactive      0000000180021d50 f   libucrtd:winapi_thunks.obj
 0001:00020e30       __acrt_uninitialize_winapi_thunks 0000000180021e30 f   libucrtd:winapi_thunks.obj
 0001:00020ed0       __acrt_initialize_heap     0000000180021ed0 f   libucrtd:heap_handle.obj
 0001:00020f00       __acrt_uninitialize_heap   0000000180021f00 f   libucrtd:heap_handle.obj
 0001:000212c0       __acrt_initialize_lowio    00000001800222c0 f   libucrtd:ioinit.obj
 0001:00021310       __acrt_uninitialize_lowio  0000000180022310 f   libucrtd:ioinit.obj
 0001:00021390       __acrt_execute_initializers 0000000180022390 f   libucrtd:shared_initialization.obj
 0001:00021480       __acrt_execute_uninitializers 0000000180022480 f   libucrtd:shared_initialization.obj
 0001:00021500       __acrt_initialize_new_handler 0000000180022500 f   libucrtd:new_handler.obj
 0001:00021520       _callnewh                  0000000180022520 f   libucrtd:new_handler.obj
 0001:00021570       _query_new_handler         0000000180022570 f   libucrtd:new_handler.obj
 0001:000215b0       __acrt_has_user_matherr    00000001800225b0 f   libucrtd:matherr.obj
 0001:000215f0       __acrt_initialize_user_matherr 00000001800225f0 f   libucrtd:matherr.obj
 0001:00021610       __acrt_invoke_user_matherr 0000000180022610 f   libucrtd:matherr.obj
 0001:00021660       ?has_any_of@__crt_stdio_stream@@QEBA_NJ@Z 0000000180022660 f i libucrtd:_sftbuf.obj
 0001:000216a0       ?set_flags@__crt_stdio_stream@@QEBA_NJ@Z 00000001800226a0 f i libucrtd:_sftbuf.obj
 0001:00021710       ?unset_flags@__crt_stdio_stream@@QEBA_NJ@Z 0000000180022710 f i libucrtd:_sftbuf.obj
 0001:00021770       _chvalidator_l             0000000180022770 f   libucrtd:isctype.obj
 0001:00021820       _isctype_l                 0000000180022820 f   libucrtd:isctype.obj
 0001:00021a50       _isleadbyte_fast_internal  0000000180022a50 f i libucrtd:isctype.obj
 0001:00021a90       _free_base                 0000000180022a90 f   libucrtd:free_base.obj
 0001:00021af0       _realloc_base              0000000180022af0 f   libucrtd:realloc_base.obj
 0001:00021c10       _expand_base               0000000180022c10 f   libucrtd:expand.obj
 0001:00021da0       __acrt_update_locale_info  0000000180022da0 f   libucrtd:locale_update.obj
 0001:00021df0       __acrt_update_multibyte_info 0000000180022df0 f   libucrtd:locale_update.obj
 0001:00021e40       ?value@?$dual_state_global@J@__crt_state_management@@QEAAAEAJXZ 0000000180022e40 f i libucrtd:new_mode.obj
 0001:00021e60       _query_new_mode            0000000180022e60 f   libucrtd:new_mode.obj
 0001:00021e80       _CrtDefaultAllocHook       0000000180022e80 f   libucrtd:debug_heap_hook.obj
 0001:00022000       __acrt_set_locale_changed  0000000180023000 f   libucrtd:wsetlocale.obj
 0001:00022010       __acrt_uninitialize_locale 0000000180023010 f   libucrtd:wsetlocale.obj
 0001:00022040       __ascii_tolower            0000000180023040 f i libucrtd:wsetlocale.obj
 0001:00022060       __ascii_towlower           0000000180023060 f i libucrtd:wsetlocale.obj
 0001:00022080       _CrtGetDebugFillThreshold  0000000180023080 f   libucrtd:debug_fill_threshold.obj
 0001:00022260       __acrt_report_runtime_error 0000000180023260 f   libucrtd:report_runtime_error.obj
 0001:000224e0       _query_app_type            00000001800234e0 f   libucrtd:report_runtime_error.obj
 0001:000224f0       ??$make_c_string_character_source@_WPEAPEA_W@__crt_strtox@@YA?AV?$c_string_character_source@_W@0@QEB_WQEAPEA_W@Z 00000001800234f0 f i libucrtd:strtox.obj
 0001:000224f0       ??$make_c_string_character_source@DPEAPEAD@__crt_strtox@@YA?AV?$c_string_character_source@D@0@QEBDQEAPEAD@Z 00000001800234f0 f i libucrtd:strtox.obj
 0001:00022530       ??$parse_integer_from_string@JDPEAPEAD@__crt_strtox@@YAJQEBDQEAPEADHQEAU__crt_locale_pointers@@@Z 0000000180023530 f i libucrtd:strtox.obj
 0001:00022580       ??$parse_integer_from_string@J_WPEAPEA_W@__crt_strtox@@YAJQEB_WQEAPEA_WHQEAU__crt_locale_pointers@@@Z 0000000180023580 f i libucrtd:strtox.obj
 0001:000225d0       strtol                     00000001800235d0 f   libucrtd:strtox.obj
 0001:00022600       wcstol                     0000000180023600 f   libucrtd:strtox.obj
 0001:00022630       _mbtowc_l                  0000000180023630 f   libucrtd:mbtowc.obj
 0001:00022a90       mbtowc                     0000000180023a90 f   libucrtd:mbtowc.obj
 0001:00022ac0       _wctomb_s_l                0000000180023ac0 f   libucrtd:wctomb.obj
 0001:00023040       ?__acrt_fp_classify@@YA?AW4__acrt_fp_class@@AEBN@Z 0000000180024040 f i libucrtd:cvt.obj
 0001:00023140       ?__acrt_fp_is_negative@@YA_NAEBN@Z 0000000180024140 f i libucrtd:cvt.obj
 0001:00024b10       ?strrchr@@YAPEADQEADH@Z    0000000180025b10 f i libucrtd:cvt.obj
 0001:00024b30       __acrt_fp_format           0000000180025b30 f   libucrtd:cvt.obj
 0001:00025140       ?lowio_handle@__crt_stdio_stream@@QEBAHXZ 0000000180026140 f i libucrtd:fileno.obj
 0001:00025170       _fileno                    0000000180026170 f   libucrtd:fileno.obj
 0001:00025250       __acrt_initialize_stdio    0000000180026250 f   libucrtd:_file.obj
 0001:00025440       __acrt_uninitialize_stdio  0000000180026440 f   libucrtd:_file.obj
 0001:000254d0       _lock_file                 00000001800264d0 f   libucrtd:_file.obj
 0001:00025510       _unlock_file               0000000180026510 f   libucrtd:_file.obj
 0001:00025550       _get_printf_count_output   0000000180026550 f   libucrtd:printf_count_output.obj
 0001:00025580       iswctype                   0000000180026580 f   libucrtd:iswctype.obj
 0001:00025610       __acrt_add_locale_ref      0000000180026610 f   libucrtd:locale_refcounting.obj
 0001:00025770       __acrt_free_locale         0000000180026770 f   libucrtd:locale_refcounting.obj
 0001:00025af0       __acrt_locale_add_lc_time_reference 0000000180026af0 f   libucrtd:locale_refcounting.obj
 0001:00025b30       __acrt_locale_free_lc_time_if_unreferenced 0000000180026b30 f   libucrtd:locale_refcounting.obj
 0001:00025b90       __acrt_locale_release_lc_time_reference 0000000180026b90 f   libucrtd:locale_refcounting.obj
 0001:00025bd0       __acrt_release_locale_ref  0000000180026bd0 f   libucrtd:locale_refcounting.obj
 0001:00025d40       __acrt_update_thread_locale_data 0000000180026d40 f   libucrtd:locale_refcounting.obj
 0001:00025de0       _updatetlocinfoEx_nolock   0000000180026de0 f   libucrtd:locale_refcounting.obj
 0001:00026a70       _itoa_s                    0000000180027a70 f   libucrtd:xtoa.obj
 0001:00026ad0       _itow_s                    0000000180027ad0 f   libucrtd:xtoa.obj
 0001:00027110       _mbstowcs_s_l              0000000180028110 f   libucrtd:mbstowcs.obj
 0001:000276e0       mbstowcs_s                 00000001800286e0 f   libucrtd:mbstowcs.obj
 0001:00028070       _wcstombs_s_l              0000000180029070 f   libucrtd:wcstombs.obj
 0001:000285b0       wcstombs_s                 00000001800295b0 f   libucrtd:wcstombs.obj
 0001:00028c80       wcscat_s                   0000000180029c80 f   libucrtd:wcscat_s.obj
 0001:00029320       strcat_s                   000000018002a320 f   libucrtd:strcat_s.obj
 0001:00029350       __acrt_OutputDebugStringA  000000018002a350 f   libucrtd:outputdebugstringa.obj
 0001:00029580       qsort                      000000018002a580 f   libucrtd:qsort.obj
 0001:0002a330       wcsncpy_s                  000000018002b330 f   libucrtd:wcsncpy_s.obj
 0001:0002a9f0       strncpy_s                  000000018002b9f0 f   libucrtd:strncpy_s.obj
 0001:0002ab60       strpbrk                    000000018002bb60 f   libucrtd:strpbrk.obj
 0001:0002b450       _mbsdec                    000000018002c450 f   libucrtd:mbsdec.obj
 0001:0002b458       _mbsdec_l                  000000018002c458 f   libucrtd:mbsdec.obj
 0001:0002b550       ??1?$__crt_scoped_stack_ptr@_W@@QEAA@XZ 000000018002c550 f i libucrtd:getstringtypea.obj
 0001:0002b570       _MallocaComputeSize        000000018002c570 f i libucrtd:getstringtypea.obj
 0001:0002b5b0       _MarkAllocaS               000000018002c5b0 f i libucrtd:getstringtypea.obj
 0001:0002b5e0       __acrt_GetStringTypeA      000000018002c5e0 f   libucrtd:getstringtypea.obj
 0001:0002b840       _freea_crt                 000000018002c840 f i libucrtd:getstringtypea.obj
 0001:0002bed0       __acrt_LCMapStringA        000000018002ced0 f   libucrtd:lcmapstringa.obj
 0001:0002c060       __acrt_DownlevelLocaleNameToLCID 000000018002d060 f   libucrtd:lcidtoname_downlevel.obj
 0001:0002c0c0       __acrt_lowio_create_handle_array 000000018002d0c0 f   libucrtd:osfinfo.obj
 0001:0002c280       __acrt_lowio_destroy_handle_array 000000018002d280 f   libucrtd:osfinfo.obj
 0001:0002c300       __acrt_lowio_ensure_fh_exists 000000018002d300 f   libucrtd:osfinfo.obj
 0001:0002c460       __acrt_lowio_lock_fh       000000018002d460 f   libucrtd:osfinfo.obj
 0001:0002c4a0       __acrt_lowio_unlock_fh     000000018002d4a0 f   libucrtd:osfinfo.obj
 0001:0002c4e0       _free_osfhnd               000000018002d4e0 f   libucrtd:osfinfo.obj
 0001:0002c610       _get_osfhandle             000000018002d610 f   libucrtd:osfinfo.obj
 0001:0002c810       __pctype_func              000000018002d810 f   libucrtd:ctype.obj
 0001:0002c850       _isatty                    000000018002d850 f   libucrtd:isatty.obj
 0001:0002ccd0       ?__acrt_stdio_reset_buffer@@YAXV__crt_stdio_stream@@@Z 000000018002dcd0 f i libucrtd:fflush.obj
 0001:0002ce00       ?has_all_of@__crt_stdio_stream@@QEBA_NJ@Z 000000018002de00 f i libucrtd:fflush.obj
 0001:0002cee0       __acrt_stdio_flush_nolock  000000018002dee0 f   libucrtd:fflush.obj
 0001:0002cff0       _fflush_nolock             000000018002dff0 f   libucrtd:fflush.obj
 0001:0002d080       _flushall                  000000018002e080 f   libucrtd:fflush.obj
 0001:0002d090       _malloc_base               000000018002e090 f   libucrtd:malloc_base.obj
 0001:0002d130       __acrt_locale_free_monetary 000000018002e130 f   libucrtd:initmon.obj
 0001:0002d340       __acrt_locale_free_numeric 000000018002e340 f   libucrtd:initnum.obj
 0001:0002d4e0       __acrt_locale_free_time    000000018002e4e0 f   libucrtd:inittime.obj
 0001:0002d650       _set_error_mode            000000018002e650 f   libucrtd:set_error_mode.obj
 0001:0002d750       _isleadbyte_l              000000018002e750 f i libucrtd:_wctype.obj
 0001:0002d820       ?__mbrtowc_utf8@__crt_mbstring@@YA_KPEA_WPEBD_KPEAU_Mbstatet@@@Z 000000018002e820 f   libucrtd:mbrtowc.obj
 0001:0002d890       ?__mbsrtowcs_utf8@__crt_mbstring@@YA_KPEA_WPEAPEBD_KPEAU_Mbstatet@@@Z 000000018002e890 f   libucrtd:mbrtowc.obj
 0001:0002db90       ?__c32rtomb_utf8@__crt_mbstring@@YA_KPEAD_UPEAU_Mbstatet@@@Z 000000018002eb90 f   libucrtd:c32rtomb.obj
 0001:0002de10       ?reset_and_return@__crt_mbstring@@YA_K_KPEAU_Mbstatet@@@Z 000000018002ee10 f i libucrtd:c32rtomb.obj
 0001:0002de50       ?return_illegal_sequence@__crt_mbstring@@YA_KPEAU_Mbstatet@@@Z 000000018002ee50 f i libucrtd:c32rtomb.obj
 0001:0002de90       c32rtomb                   000000018002ee90 f   libucrtd:c32rtomb.obj
 0001:0002e050       __acrt_fp_strflt_to_string 000000018002f050 f   libucrtd:_fptostr.obj
 0001:0002eb50       ??0big_integer@__crt_strtox@@QEAA@AEBU01@@Z 000000018002fb50 f i libucrtd:cfout.obj
 0001:0002eb50       ??4big_integer@__crt_strtox@@QEAAAEAU01@AEBU01@@Z 000000018002fb50 f i libucrtd:cfout.obj
 0001:0002ebb0       ??0big_integer@__crt_strtox@@QEAA@XZ 000000018002fbb0 f i libucrtd:cfout.obj
 0001:0002ec70       ??8__crt_strtox@@YA_NAEBUbig_integer@0@0@Z 000000018002fc70 f i libucrtd:cfout.obj
 0001:0002ece0       ??9__crt_strtox@@YA_NAEBUbig_integer@0@0@Z 000000018002fce0 f i libucrtd:cfout.obj
 0001:0002ed20       ?add_carry@__crt_strtox@@YAIAEAIII@Z 000000018002fd20 f i libucrtd:cfout.obj
 0001:0002ed70       ?add_multiply_carry@__crt_strtox@@YAIAEAIIII@Z 000000018002fd70 f i libucrtd:cfout.obj
 0001:0002edd0       ?bit_scan_reverse@__crt_strtox@@YAII@Z 000000018002fdd0 f i libucrtd:cfout.obj
 0001:0002ee10       ?count_sequential_high_zeroes@__crt_strtox@@YAII@Z 000000018002fe10 f i libucrtd:cfout.obj
 0001:0002ee50       ?divide@__crt_strtox@@YA_KAEAUbig_integer@1@AEBU21@@Z 000000018002fe50 f i libucrtd:cfout.obj
 0001:0002f820       ?is_zero@__crt_strtox@@YA_NAEBUbig_integer@1@@Z 0000000180030820 f i libucrtd:cfout.obj
 0001:0002f850       ?make_big_integer@__crt_strtox@@YA?AUbig_integer@1@_K@Z 0000000180030850 f i libucrtd:cfout.obj
 0001:0002f920       ?make_big_integer_power_of_two@__crt_strtox@@YA?AUbig_integer@1@I@Z 0000000180030920 f i libucrtd:cfout.obj
 0001:0002f9f0       ?multiply@__crt_strtox@@YA_NAEAUbig_integer@1@AEBU21@@Z 00000001800309f0 f i libucrtd:cfout.obj
 0001:0002fd70       ?multiply@__crt_strtox@@YA_NAEAUbig_integer@1@I@Z 0000000180030d70 f i libucrtd:cfout.obj
 0001:0002fe90       ?multiply_64_32@__crt_strtox@@YA_K_KI@Z 0000000180030e90 f i libucrtd:cfout.obj
 0001:0002feb0       ?multiply_by_power_of_ten@__crt_strtox@@YA_NAEAUbig_integer@1@I@Z 0000000180030eb0 f i libucrtd:cfout.obj
 0001:00030060       ?multiply_core@__crt_strtox@@YAIQEAIII@Z 0000000180031060 f i libucrtd:cfout.obj
 0001:000300e0       ?shift_left@__crt_strtox@@YA_NAEAUbig_integer@1@I@Z 00000001800310e0 f i libucrtd:cfout.obj
 0001:000303c0       __acrt_fltout              00000001800313c0 f   libucrtd:cfout.obj
 0001:00030770       fegetround                 0000000180031770 f   libucrtd:fegetround.obj
 0001:00030790       ?is_in_use@__crt_stdio_stream@@QEBA_NXZ 0000000180031790 f i libucrtd:closeall.obj
 0001:000307d0       _fcloseall                 00000001800317d0 f   libucrtd:closeall.obj
 0001:000308e0       ?has_crt_buffer@__crt_stdio_stream@@QEBA_NXZ 00000001800318e0 f i libucrtd:_freebuf.obj
 0001:00030900       __acrt_stdio_free_buffer_nolock 0000000180031900 f   libucrtd:_freebuf.obj
 0001:000309e0       __acrt_GetStringTypeW      00000001800319e0 f   libucrtd:getstringtypew.obj
 0001:00030a20       ?__wcsrtombs_utf8@__crt_mbstring@@YA_KPEADPEAPEB_W_KPEAU_Mbstatet@@@Z 0000000180031a20 f   libucrtd:wcrtomb.obj
 0001:00030c90       __strncnt                  0000000180031c90 f   libucrtd:strncnt.obj
 0001:00030cf0       __ascii_wcsnicmp           0000000180031cf0 f   libucrtd:wcsnicmp.obj
 0001:00030f70       _commit                    0000000180031f70 f   libucrtd:commit.obj
 0001:00032b50       _utf8_no_of_trailbytes     0000000180033b50 f i libucrtd:write.obj
 0001:00032b70       _write                     0000000180033b70 f   libucrtd:write.obj
 0001:00032e10       _write_nolock              0000000180033e10 f   libucrtd:write.obj
 0001:000333e0       ?__mbrtoc32_utf8@__crt_mbstring@@YA_KPEA_UPEBD_KPEAU_Mbstatet@@@Z 00000001800343e0 f   libucrtd:mbrtoc32.obj
 0001:000337a0       log10                      00000001800347a0 f   libucrtd:log10.obj
 0001:00033d50       ceil                       0000000180034d50 f   libucrtd:ceil.obj
 0001:00033f20       _controlfp_s               0000000180034f20 f   libucrtd:contrlfp.obj
 0001:00034050       fegetenv                   0000000180035050 f   libucrtd:fegetenv.obj
 0001:00034080       fesetenv                   0000000180035080 f   libucrtd:fesetenv.obj
 0001:00034100       feholdexcept               0000000180035100 f   libucrtd:feholdexcept.obj
 0001:00034170       ??$__acrt_fenv_shift_bits@W4__acrt_fenv_abstract_status@@@@YA?AW4__acrt_fenv_abstract_status@@W40@0I@Z 0000000180035170 f i libucrtd:_fenvutils.obj
 0001:00034170       ??$__acrt_fenv_shift_bits@W4__acrt_fenv_abstract_control@@@@YA?AW4__acrt_fenv_abstract_control@@W40@0I@Z 0000000180035170 f i libucrtd:_fenvutils.obj
 0001:000341a0       ??$__acrt_fenv_translate_bit@W4__acrt_fenv_abstract_control@@W4__acrt_fenv_machine_sse_control@@@@YA?AW4__acrt_fenv_abstract_control@@W4__acrt_fenv_machine_sse_control@@0W40@1@Z 00000001800351a0 f i libucrtd:_fenvutils.obj
 0001:00034200       ??$__acrt_fenv_translate_bit@W4__acrt_fenv_machine_sse_status@@W4__acrt_fenv_abstract_status@@@@YA?AW4__acrt_fenv_machine_sse_status@@W4__acrt_fenv_abstract_status@@0W40@1@Z 0000000180035200 f i libucrtd:_fenvutils.obj
 0001:00034200       ??$__acrt_fenv_translate_bit@W4__acrt_fenv_abstract_status@@W4__acrt_fenv_machine_sse_status@@@@YA?AW4__acrt_fenv_abstract_status@@W4__acrt_fenv_machine_sse_status@@0W40@1@Z 0000000180035200 f i libucrtd:_fenvutils.obj
 0001:00034250       ??$__acrt_fenv_translate_bit@W4__acrt_fenv_machine_sse_control@@W4__acrt_fenv_abstract_control@@@@YA?AW4__acrt_fenv_machine_sse_control@@W4__acrt_fenv_abstract_control@@0W40@1@Z 0000000180035250 f i libucrtd:_fenvutils.obj
 0001:000342b0       ??$__acrt_fenv_unshift_bits@W4__acrt_fenv_abstract_control@@@@YA?AW4__acrt_fenv_abstract_control@@W40@0I@Z 00000001800352b0 f i libucrtd:_fenvutils.obj
 0001:000342b0       ??$__acrt_fenv_unshift_bits@W4__acrt_fenv_abstract_status@@@@YA?AW4__acrt_fenv_abstract_status@@W40@0I@Z 00000001800352b0 f i libucrtd:_fenvutils.obj
 0001:000347a0       ??I@YA?AW4__acrt_fenv_machine_sse_status@@W40@0@Z 00000001800357a0 f i libucrtd:_fenvutils.obj
 0001:000347a0       ??I@YA?AW4__acrt_fenv_abstract_status@@W40@0@Z 00000001800357a0 f i libucrtd:_fenvutils.obj
 0001:000347a0       ??I@YA?AW4__acrt_fenv_abstract_control@@W40@0@Z 00000001800357a0 f i libucrtd:_fenvutils.obj
 0001:000347c0       ??I@YA?AW4__acrt_fenv_machine_sse_control@@W40@0@Z 00000001800357c0 f i libucrtd:_fenvutils.obj
 0001:000347e0       ??U@YA?AW4__acrt_fenv_abstract_status@@W40@0@Z 00000001800357e0 f i libucrtd:_fenvutils.obj
 0001:000347e0       ??U@YA?AW4__acrt_fenv_abstract_control@@W40@0@Z 00000001800357e0 f i libucrtd:_fenvutils.obj
 0001:00034800       ??U@YA?AW4__acrt_fenv_machine_sse_control@@W40@0@Z 0000000180035800 f i libucrtd:_fenvutils.obj
 0001:00034820       ??_5@YAAEAW4__acrt_fenv_machine_sse_status@@AEAW40@W40@@Z 0000000180035820 f i libucrtd:_fenvutils.obj
 0001:00034820       ??_5@YAAEAW4__acrt_fenv_abstract_status@@AEAW40@W40@@Z 0000000180035820 f i libucrtd:_fenvutils.obj
 0001:00034820       ??_5@YAAEAW4__acrt_fenv_abstract_control@@AEAW40@W40@@Z 0000000180035820 f i libucrtd:_fenvutils.obj
 0001:00034850       ??_5@YAAEAW4__acrt_fenv_machine_sse_control@@AEAW40@W40@@Z 0000000180035850 f i libucrtd:_fenvutils.obj
 0001:00034880       ?__acrt_fenv_shift_abstract_sse_control@@YA?AW4__acrt_fenv_abstract_control@@W41@@Z 0000000180035880 f i libucrtd:_fenvutils.obj
 0001:000348d0       ?__acrt_fenv_shift_abstract_sse_status@@YA?AW4__acrt_fenv_abstract_status@@W41@@Z 00000001800358d0 f i libucrtd:_fenvutils.obj
 0001:00034900       ?__acrt_fenv_unshift_abstract_sse_control@@YA?AW4__acrt_fenv_abstract_control@@W41@@Z 0000000180035900 f i libucrtd:_fenvutils.obj
 0001:00034950       ?__acrt_fenv_unshift_abstract_sse_status@@YA?AW4__acrt_fenv_abstract_status@@W41@@Z 0000000180035950 f i libucrtd:_fenvutils.obj
 0001:00034c20       __acrt_fenv_get_common_round_control 0000000180035c20 f   libucrtd:_fenvutils.obj
 0001:00034c40       __acrt_fenv_get_control    0000000180035c40 f   libucrtd:_fenvutils.obj
 0001:00034c70       __acrt_fenv_get_status     0000000180035c70 f   libucrtd:_fenvutils.obj
 0001:00034ca0       __acrt_fenv_set_control    0000000180035ca0 f   libucrtd:_fenvutils.obj
 0001:00034cc0       __acrt_fenv_set_status     0000000180035cc0 f   libucrtd:_fenvutils.obj
 0001:00034e50       _lseeki64_nolock           0000000180035e50 f   libucrtd:lseek.obj
 0001:00034e80       _fclose_nolock             0000000180035e80 f   libucrtd:fclose.obj
 0001:00035010       fclose                     0000000180036010 f   libucrtd:fclose.obj
 0001:00035150       ?__c16rtomb_utf8@__crt_mbstring@@YA_KPEAD_SPEAU_Mbstatet@@@Z 0000000180036150 f   libucrtd:c16rtomb.obj
 0001:00035364       _putwch_nolock             0000000180036364 f   libucrtd:putwch.obj
 0001:000353a0       __acrt_initialize_fma3     00000001800363a0 f   libucrtd:fma3_available.obj
 0001:00035450       _log10_special             0000000180036450 f   libucrtd:log_special.obj
 0001:00035790       _handle_error              0000000180036790 f   libucrtd:libm_error.obj
 0001:00035920       _handle_nan                0000000180036920 f   libucrtd:libm_error.obj
 0001:00035b60       _clearfp                   0000000180036b60 f   libucrtd:ieee.obj
 0001:00035b80       _control87                 0000000180036b80 f   libucrtd:ieee.obj
 0001:00036040       _close                     0000000180037040 f   libucrtd:close.obj
 0001:00036230       _close_nolock              0000000180037230 f   libucrtd:close.obj
 0001:000362a0       ?__acrt_stdio_free_stream@@YAXV__crt_stdio_stream@@@Z 00000001800372a0 f   libucrtd:stream.obj
 0001:00036340       ?deallocate@__crt_stdio_stream@@QEAAXXZ 0000000180037340 f i libucrtd:stream.obj
 0001:00036358       __dcrt_lowio_ensure_console_output_initialized 0000000180037358 f   libucrtd:initcon.obj
 0001:000363ac       __dcrt_terminate_console_output 00000001800373ac f   libucrtd:initcon.obj
 0001:000363c8       __dcrt_write_console       00000001800373c8 f   libucrtd:initcon.obj
 0001:00036490       _raise_exc                 0000000180037490 f   libucrtd:fpexcept.obj
 0001:000364f0       _raise_exc_ex              00000001800374f0 f   libucrtd:fpexcept.obj
 0001:00036b70       _set_errno_from_matherr    0000000180037b70 f   libucrtd:fpexcept.obj
 0001:00036bc0       _clrfp                     0000000180037bc0 f   libucrtd:fpctrl.obj
 0001:00036bf0       _ctrlfp                    0000000180037bf0 f   libucrtd:fpctrl.obj
 0001:00036ca0       _set_statfp                0000000180037ca0 f   libucrtd:fpctrl.obj
 0001:00036ce0       _statfp                    0000000180037ce0 f   libucrtd:fpctrl.obj
 0001:00036d20       _get_fpsr                  0000000180037d20 f   libucrtd:fpsr.obj
 0001:00036d30       _set_fpsr                  0000000180037d30 f   libucrtd:fpsr.obj
 0001:00036d3a       _fclrf                     0000000180037d3a f   libucrtd:fpsr.obj
 0001:00036d4e       _frnd                      0000000180037d4e f   libucrtd:fpsr.obj
 0001:00036d70       _FindPESection             0000000180037d70 f   LIBCMTD:pesect.obj
 0001:00036e20       _IsNonwritableInCurrentImage 0000000180037e20 f   LIBCMTD:pesect.obj
 0001:00036eb0       _ValidateImageBase         0000000180037eb0 f   LIBCMTD:pesect.obj
 0001:00036f30       ??1type_info@@UEAA@XZ      0000000180037f30 f   LIBCMTD:std_type_info_static.obj
 0001:00036f50       ??_Gtype_info@@UEAAPEAXI@Z 0000000180037f50 f i LIBCMTD:std_type_info_static.obj
 0001:00036f50       ??_Etype_info@@UEAAPEAXI@Z 0000000180037f50 f i LIBCMTD:std_type_info_static.obj
 0001:00036f90       ??3@YAXPEAX_K@Z            0000000180037f90 f   LIBCMTD:delete_scalar_size.obj
 0001:00036fb0       __GSHandlerCheck_SEH       0000000180037fb0 f   LIBCMTD:gshandlerseh.obj
 0001:00037080       _alloca_probe              0000000180038080 f   LIBCMTD:chkstk.obj
 0001:00037080       __chkstk                   0000000180038080 f   LIBCMTD:chkstk.obj
 0001:000370d0       __GSHandlerCheck_EH        00000001800380d0 f   LIBCMTD:gshandlereh.obj
 0001:00037180       ??3@YAXPEAX@Z              0000000180038180 f   LIBCMTD:delete_scalar.obj
 0001:000371b0       memcmp                     00000001800381b0 f   libvcruntimed:memcmp.obj
 0001:00037280       strrchr                    0000000180038280 f   libvcruntimed:strrchr.obj
 0001:000376b0       _guard_dispatch_icall_nop  00000001800386b0 f   LIBCMTD:guard_dispatch.obj
 0001:000376d0       _guard_xfg_dispatch_icall_nop 00000001800386d0 f   LIBCMTD:guard_xfg_dispatch.obj
 0002:00000000       __imp_QueryPerformanceCounter 0000000180039000     kernel32:KERNEL32.dll
 0002:00000008       __imp_QueryPerformanceFrequency 0000000180039008     kernel32:KERNEL32.dll
 0002:00000010       __imp_GetSystemTimeAsFileTime 0000000180039010     kernel32:KERNEL32.dll
 0002:00000018       __imp_GetModuleHandleW     0000000180039018     kernel32:KERNEL32.dll
 0002:00000020       __imp_GetProcAddress       0000000180039020     kernel32:KERNEL32.dll
 0002:00000028       __imp_GetCurrentProcessId  0000000180039028     kernel32:KERNEL32.dll
 0002:00000030       __imp_GetCurrentThreadId   0000000180039030     kernel32:KERNEL32.dll
 0002:00000038       __imp_InitializeSListHead  0000000180039038     kernel32:KERNEL32.dll
 0002:00000040       __imp_RtlCaptureContext    0000000180039040     kernel32:KERNEL32.dll
 0002:00000048       __imp_RtlLookupFunctionEntry 0000000180039048     kernel32:KERNEL32.dll
 0002:00000050       __imp_RtlVirtualUnwind     0000000180039050     kernel32:KERNEL32.dll
 0002:00000058       __imp_IsDebuggerPresent    0000000180039058     kernel32:KERNEL32.dll
 0002:00000060       __imp_UnhandledExceptionFilter 0000000180039060     kernel32:KERNEL32.dll
 0002:00000068       __imp_SetUnhandledExceptionFilter 0000000180039068     kernel32:KERNEL32.dll
 0002:00000070       __imp_GetStartupInfoW      0000000180039070     kernel32:KERNEL32.dll
 0002:00000078       __imp_IsProcessorFeaturePresent 0000000180039078     kernel32:KERNEL32.dll
 0002:00000080       __imp_GetCurrentProcess    0000000180039080     kernel32:KERNEL32.dll
 0002:00000088       __imp_TerminateProcess     0000000180039088     kernel32:KERNEL32.dll
 0002:00000090       __imp_CreateFileW          0000000180039090     kernel32:KERNEL32.dll
 0002:00000098       __imp_RtlUnwindEx          0000000180039098     kernel32:KERNEL32.dll
 0002:000000a0       __imp_InterlockedFlushSList 00000001800390a0     kernel32:KERNEL32.dll
 0002:000000a8       __imp_GetLastError         00000001800390a8     kernel32:KERNEL32.dll
 0002:000000b0       __imp_SetLastError         00000001800390b0     kernel32:KERNEL32.dll
 0002:000000b8       __imp_EnterCriticalSection 00000001800390b8     kernel32:KERNEL32.dll
 0002:000000c0       __imp_LeaveCriticalSection 00000001800390c0     kernel32:KERNEL32.dll
 0002:000000c8       __imp_DeleteCriticalSection 00000001800390c8     kernel32:KERNEL32.dll
 0002:000000d0       __imp_InitializeCriticalSectionAndSpinCount 00000001800390d0     kernel32:KERNEL32.dll
 0002:000000d8       __imp_TlsAlloc             00000001800390d8     kernel32:KERNEL32.dll
 0002:000000e0       __imp_TlsGetValue          00000001800390e0     kernel32:KERNEL32.dll
 0002:000000e8       __imp_TlsSetValue          00000001800390e8     kernel32:KERNEL32.dll
 0002:000000f0       __imp_TlsFree              00000001800390f0     kernel32:KERNEL32.dll
 0002:000000f8       __imp_FreeLibrary          00000001800390f8     kernel32:KERNEL32.dll
 0002:00000100       __imp_LoadLibraryExW       0000000180039100     kernel32:KERNEL32.dll
 0002:00000108       __imp_EncodePointer        0000000180039108     kernel32:KERNEL32.dll
 0002:00000110       __imp_RaiseException       0000000180039110     kernel32:KERNEL32.dll
 0002:00000118       __imp_RtlPcToFileHeader    0000000180039118     kernel32:KERNEL32.dll
 0002:00000120       __imp_GetModuleFileNameW   0000000180039120     kernel32:KERNEL32.dll
 0002:00000128       __imp_GetModuleHandleExW   0000000180039128     kernel32:KERNEL32.dll
 0002:00000130       __imp_ExitProcess          0000000180039130     kernel32:KERNEL32.dll
 0002:00000138       __imp_HeapAlloc            0000000180039138     kernel32:KERNEL32.dll
 0002:00000140       __imp_HeapSize             0000000180039140     kernel32:KERNEL32.dll
 0002:00000148       __imp_HeapValidate         0000000180039148     kernel32:KERNEL32.dll
 0002:00000150       __imp_GetSystemInfo        0000000180039150     kernel32:KERNEL32.dll
 0002:00000158       __imp_GetStdHandle         0000000180039158     kernel32:KERNEL32.dll
 0002:00000160       __imp_GetFileType          0000000180039160     kernel32:KERNEL32.dll
 0002:00000168       __imp_WriteFile            0000000180039168     kernel32:KERNEL32.dll
 0002:00000170       __imp_OutputDebugStringW   0000000180039170     kernel32:KERNEL32.dll
 0002:00000178       __imp_WriteConsoleW        0000000180039178     kernel32:KERNEL32.dll
 0002:00000180       __imp_FindClose            0000000180039180     kernel32:KERNEL32.dll
 0002:00000188       __imp_FindFirstFileExW     0000000180039188     kernel32:KERNEL32.dll
 0002:00000190       __imp_FindNextFileW        0000000180039190     kernel32:KERNEL32.dll
 0002:00000198       __imp_IsValidCodePage      0000000180039198     kernel32:KERNEL32.dll
 0002:000001a0       __imp_GetACP               00000001800391a0     kernel32:KERNEL32.dll
 0002:000001a8       __imp_GetOEMCP             00000001800391a8     kernel32:KERNEL32.dll
 0002:000001b0       __imp_GetCPInfo            00000001800391b0     kernel32:KERNEL32.dll
 0002:000001b8       __imp_GetCommandLineA      00000001800391b8     kernel32:KERNEL32.dll
 0002:000001c0       __imp_GetCommandLineW      00000001800391c0     kernel32:KERNEL32.dll
 0002:000001c8       __imp_MultiByteToWideChar  00000001800391c8     kernel32:KERNEL32.dll
 0002:000001d0       __imp_WideCharToMultiByte  00000001800391d0     kernel32:KERNEL32.dll
 0002:000001d8       __imp_GetEnvironmentStringsW 00000001800391d8     kernel32:KERNEL32.dll
 0002:000001e0       __imp_FreeEnvironmentStringsW 00000001800391e0     kernel32:KERNEL32.dll
 0002:000001e8       __imp_LCMapStringW         00000001800391e8     kernel32:KERNEL32.dll
 0002:000001f0       __imp_GetProcessHeap       00000001800391f0     kernel32:KERNEL32.dll
 0002:000001f8       __imp_HeapFree             00000001800391f8     kernel32:KERNEL32.dll
 0002:00000200       __imp_HeapReAlloc          0000000180039200     kernel32:KERNEL32.dll
 0002:00000208       __imp_HeapQueryInformation 0000000180039208     kernel32:KERNEL32.dll
 0002:00000210       __imp_GetStringTypeW       0000000180039210     kernel32:KERNEL32.dll
 0002:00000218       __imp_SetStdHandle         0000000180039218     kernel32:KERNEL32.dll
 0002:00000220       __imp_SetFilePointerEx     0000000180039220     kernel32:KERNEL32.dll
 0002:00000228       __imp_FlushFileBuffers     0000000180039228     kernel32:KERNEL32.dll
 0002:00000230       __imp_GetConsoleOutputCP   0000000180039230     kernel32:KERNEL32.dll
 0002:00000238       __imp_GetConsoleMode       0000000180039238     kernel32:KERNEL32.dll
 0002:00000240       __imp_CloseHandle          0000000180039240     kernel32:KERNEL32.dll
 0002:00000248       \177KERNEL32_NULL_THUNK_DATA 0000000180039248     kernel32:KERNEL32.dll
 0002:00000250       __guard_check_icall_fptr   0000000180039250     LIBCMTD:guard_support.obj
 0002:00000258       __guard_xfg_check_icall_fptr 0000000180039258     LIBCMTD:guard_support.obj
 0002:00000260       __guard_dispatch_icall_fptr 0000000180039260     LIBCMTD:guard_support.obj
 0002:00000268       __guard_xfg_dispatch_icall_fptr 0000000180039268     LIBCMTD:guard_support.obj
 0002:00000270       __guard_xfg_table_dispatch_icall_fptr 0000000180039270     LIBCMTD:guard_support.obj
 0002:00000278       __xc_a                     0000000180039278     LIBCMTD:initializers.obj
 0002:00000280       __xc_z                     0000000180039280     LIBCMTD:initializers.obj
 0002:00000288       __xi_a                     0000000180039288     LIBCMTD:initializers.obj
 0002:00000298       __acrt_multibyte_initializer 0000000180039298     libucrtd:multibyte_initializer.obj
 0002:000002a0       __acrt_stdio_initializer   00000001800392a0     libucrtd:stdio_initializer.obj
 0002:000002a8       __acrt_tran_fma3_initializer 00000001800392a8     libucrtd:fma3_initializer.obj
 0002:000002b0       __xi_z                     00000001800392b0     LIBCMTD:initializers.obj
 0002:000002b8       __xp_a                     00000001800392b8     LIBCMTD:initializers.obj
 0002:000002c0       __acrt_locale_terminator   00000001800392c0     libucrtd:locale_initializer.obj
 0002:000002c8       __dcrt_console_output_terminator 00000001800392c8     libucrtd:console_output_initializer.obj
 0002:000002d0       __acrt_stdio_terminator    00000001800392d0     libucrtd:stdio_initializer.obj
 0002:000002d8       __xp_z                     00000001800392d8     LIBCMTD:initializers.obj
 0002:000002e0       __xt_a                     00000001800392e0     LIBCMTD:initializers.obj
 0002:000002e8       __xt_z                     00000001800392e8     LIBCMTD:initializers.obj
 0002:000002f0       ??_C@_0BF@FBDAHHJI@Invalid?5memory?5order@ 00000001800392f0     libcpmtd:xtime.obj
 0002:00000308       ??_C@_02DKCKIIND@?$CFs@    0000000180039308     libcpmtd:xtime.obj
 0002:00000310       ??_C@_0DJ@ICCJJFHO@d?3?2agent?2_work?24?2s?2src?2vctools?2@ 0000000180039310     libcpmtd:xtime.obj
 0002:00000350       ??_C@_1HC@NHBJPBBG@?$AAd?$AA?3?$AA?2?$AAa?$AAg?$AAe?$AAn?$AAt?$AA?2?$AA_?$AAw?$AAo?$AAr?$AAk?$AA?2@ 0000000180039350     libcpmtd:xtime.obj
 0002:000003c8       ??_C@_1CO@JOMFDNFG@?$AA?$CC?$AAI?$AAn?$AAv?$AAa?$AAl?$AAi?$AAd?$AA?5?$AAm?$AAe?$AAm?$AAo?$AAr?$AAy@ 00000001800393c8     libcpmtd:xtime.obj
 0002:000003f8       ??_C@_1CG@GPPLBDPC@?$AAs?$AAt?$AAd?$AA?3?$AA?3?$AA_?$AAL?$AAo?$AAa?$AAd?$AA_?$AAb?$AAa?$AAr?$AAr@ 00000001800393f8     libcpmtd:xtime.obj
 0002:00000420       ??_C@_1EO@IPCHPMJO@?$AAs?$AAt?$AAd?$AA?3?$AA?3?$AA_?$AAA?$AAt?$AAo?$AAm?$AAi?$AAc?$AA_?$AAs?$AAt@ 0000000180039420     libcpmtd:xtime.obj
 0002:00000470       ??_C@_1BK@MGMFAEKH@?$AAk?$AAe?$AAr?$AAn?$AAe?$AAl?$AA3?$AA2?$AA?4?$AAd?$AAl?$AAl@ 0000000180039470     libcpmtd:winapisupp.obj
 0002:00000490       ??_C@_08KNHFBNJ@FlsAlloc@  0000000180039490     libcpmtd:winapisupp.obj
 0002:000004a0       ??_C@_07PEJMOBNF@FlsFree@  00000001800394a0     libcpmtd:winapisupp.obj
 0002:000004a8       ??_C@_0M@GDNOONDI@FlsGetValue@ 00000001800394a8     libcpmtd:winapisupp.obj
 0002:000004b8       ??_C@_0M@JCPCPOEF@FlsSetValue@ 00000001800394b8     libcpmtd:winapisupp.obj
 0002:000004c8       ??_C@_0BM@HCFOFFN@InitializeCriticalSectionEx@ 00000001800394c8     libcpmtd:winapisupp.obj
 0002:000004e8       ??_C@_0BE@GPLMMCMH@InitOnceExecuteOnce@ 00000001800394e8     libcpmtd:winapisupp.obj
 0002:00000500       ??_C@_0P@DLHPPCNH@CreateEventExW@ 0000000180039500     libcpmtd:winapisupp.obj
 0002:00000510       ??_C@_0BB@MEFPJLHN@CreateSemaphoreW@ 0000000180039510     libcpmtd:winapisupp.obj
 0002:00000528       ??_C@_0BD@KIEEOEEH@CreateSemaphoreExW@ 0000000180039528     libcpmtd:winapisupp.obj
 0002:00000540       ??_C@_0BG@OGFAJCKC@CreateThreadpoolTimer@ 0000000180039540     libcpmtd:winapisupp.obj
 0002:00000558       ??_C@_0BD@LPLEMMDI@SetThreadpoolTimer@ 0000000180039558     libcpmtd:winapisupp.obj
 0002:00000570       ??_C@_0CA@FMNJENH@WaitForThreadpoolTimerCallbacks@ 0000000180039570     libcpmtd:winapisupp.obj
 0002:00000590       ??_C@_0BF@DCFCCNOC@CloseThreadpoolTimer@ 0000000180039590     libcpmtd:winapisupp.obj
 0002:000005a8       ??_C@_0BF@FLABGKKM@CreateThreadpoolWait@ 00000001800395a8     libcpmtd:winapisupp.obj
 0002:000005c0       ??_C@_0BC@MGCOHNA@SetThreadpoolWait@ 00000001800395c0     libcpmtd:winapisupp.obj
 0002:000005d8       ??_C@_0BE@OCIOMIMP@CloseThreadpoolWait@ 00000001800395d8     libcpmtd:winapisupp.obj
 0002:000005f0       ??_C@_0BJ@LKGHFHBO@FlushProcessWriteBuffers@ 00000001800395f0     libcpmtd:winapisupp.obj
 0002:00000610       ??_C@_0BP@KALKKPMO@FreeLibraryWhenCallbackReturns@ 0000000180039610     libcpmtd:winapisupp.obj
 0002:00000630       ??_C@_0BK@DFNBACLA@GetCurrentProcessorNumber@ 0000000180039630     libcpmtd:winapisupp.obj
 0002:00000650       ??_C@_0BE@FKKLLFLM@CreateSymbolicLinkW@ 0000000180039650     libcpmtd:winapisupp.obj
 0002:00000668       ??_C@_0BE@JOGNEJCI@GetCurrentPackageId@ 0000000180039668     libcpmtd:winapisupp.obj
 0002:00000680       ??_C@_0P@CDHHOHKP@GetTickCount64@ 0000000180039680     libcpmtd:winapisupp.obj
 0002:00000690       ??_C@_0BN@NEEHBBPO@GetFileInformationByHandleEx@ 0000000180039690     libcpmtd:winapisupp.obj
 0002:000006b0       ??_C@_0BL@KBBHGKCM@SetFileInformationByHandle@ 00000001800396b0     libcpmtd:winapisupp.obj
 0002:000006d0       ??_C@_0BP@FPNJPEJC@GetSystemTimePreciseAsFileTime@ 00000001800396d0     libcpmtd:winapisupp.obj
 0002:000006f0       ??_C@_0BM@HLJJNPAH@InitializeConditionVariable@ 00000001800396f0     libcpmtd:winapisupp.obj
 0002:00000710       ??_C@_0BG@BFNILBLN@WakeConditionVariable@ 0000000180039710     libcpmtd:winapisupp.obj
 0002:00000728       ??_C@_0BJ@PGPPEPCC@WakeAllConditionVariable@ 0000000180039728     libcpmtd:winapisupp.obj
 0002:00000748       ??_C@_0BJ@JEBJOJFJ@SleepConditionVariableCS@ 0000000180039748     libcpmtd:winapisupp.obj
 0002:00000768       ??_C@_0BC@MMLHEBPB@InitializeSRWLock@ 0000000180039768     libcpmtd:winapisupp.obj
 0002:00000780       ??_C@_0BI@OMNLIJDB@AcquireSRWLockExclusive@ 0000000180039780     libcpmtd:winapisupp.obj
 0002:00000798       ??_C@_0BL@OGHFEMNA@TryAcquireSRWLockExclusive@ 0000000180039798     libcpmtd:winapisupp.obj
 0002:000007b8       ??_C@_0BI@HMIEPCNJ@ReleaseSRWLockExclusive@ 00000001800397b8     libcpmtd:winapisupp.obj
 0002:000007d0       ??_C@_0BK@LGACAGIC@SleepConditionVariableSRW@ 00000001800397d0     libcpmtd:winapisupp.obj
 0002:000007f0       ??_C@_0BF@GGPHFPJA@CreateThreadpoolWork@ 00000001800397f0     libcpmtd:winapisupp.obj
 0002:00000808       ??_C@_0BF@NHDAIMMO@SubmitThreadpoolWork@ 0000000180039808     libcpmtd:winapisupp.obj
 0002:00000820       ??_C@_0BE@NPHIPNPD@CloseThreadpoolWork@ 0000000180039820     libcpmtd:winapisupp.obj
 0002:00000838       ??_C@_0BA@IHGNDAEB@CompareStringEx@ 0000000180039838     libcpmtd:winapisupp.obj
 0002:00000848       ??_C@_0BA@ONOKGCMP@GetLocaleInfoEx@ 0000000180039848     libcpmtd:winapisupp.obj
 0002:00000858       ??_C@_0O@KKBNKAPF@LCMapStringEx@ 0000000180039858     libcpmtd:winapisupp.obj
 0002:00000868       _pRawDllMain               0000000180039868     LIBCMTD:dll_dllmain.obj
 0002:00000868       _pDefaultRawDllMain        0000000180039868     LIBCMTD:dll_dllmain.obj
 0002:00000880       _pDestructExceptionObject  0000000180039880     libvcruntimed:ehhelpers.obj
 0002:00000f90       ??_C@_08EHJDFFNH@__based?$CI@ 0000000180039f90     libvcruntimed:undname.obj
 0002:00000fa0       ??_C@_07KOLFKCDI@__cdecl@  0000000180039fa0     libvcruntimed:undname.obj
 0002:00000fa8       ??_C@_08GHMPAG@__pascal@   0000000180039fa8     libvcruntimed:undname.obj
 0002:00000fb8       ??_C@_09IFJBGAPI@__stdcall@ 0000000180039fb8     libvcruntimed:undname.obj
 0002:00000fc8       ??_C@_0L@NPHFGOKO@__thiscall@ 0000000180039fc8     libvcruntimed:undname.obj
 0002:00000fd8       ??_C@_0L@JMKHOMEK@__fastcall@ 0000000180039fd8     libvcruntimed:undname.obj
 0002:00000fe8       ??_C@_0N@BCKKPABJ@__vectorcall@ 0000000180039fe8     libvcruntimed:undname.obj
 0002:00000ff8       ??_C@_09HIJEGCPM@__clrcall@ 0000000180039ff8     libvcruntimed:undname.obj
 0002:00001004       ??_C@_06GHPCKEAG@__eabi@   000000018003a004     libvcruntimed:undname.obj
 0002:00001010       ??_C@_09IOPIDJLG@__swift_1@ 000000018003a010     libvcruntimed:undname.obj
 0002:00001020       ??_C@_09KFNFGKHF@__swift_2@ 000000018003a020     libvcruntimed:undname.obj
 0002:00001030       ??_C@_07JOMMBBKO@__ptr64@  000000018003a030     libvcruntimed:undname.obj
 0002:00001038       ??_C@_0L@PILCLIHE@__restrict@ 000000018003a038     libvcruntimed:undname.obj
 0002:00001048       ??_C@_0M@GFIIJFMG@__unaligned@ 000000018003a048     libvcruntimed:undname.obj
 0002:00001058       ??_C@_09DHDLOLLB@restrict?$CI@ 000000018003a058     libvcruntimed:undname.obj
 0002:00001062       ??_C@_00CNPNBAHC@@         000000018003a062     libvcruntimed:undname.obj
 0002:00001064       ??_C@_04NIHEBCM@?5new@     000000018003a064     libvcruntimed:undname.obj
 0002:00001070       ??_C@_07FPCDHGMM@?5delete@ 000000018003a070     libvcruntimed:undname.obj
 0002:00001078       ??_C@_01NEMOKFLO@?$DN@     000000018003a078     libvcruntimed:undname.obj
 0002:0000107c       ??_C@_02GPIOPFAK@?$DO?$DO@ 000000018003a07c     libvcruntimed:undname.obj
 0002:00001080       ??_C@_02FODMEDOG@?$DM?$DM@ 000000018003a080     libvcruntimed:undname.obj
 0002:00001084       ??_C@_01DCLJPIOD@?$CB@     000000018003a084     libvcruntimed:undname.obj
 0002:00001088       ??_C@_02EGOFBIJA@?$DN?$DN@ 000000018003a088     libvcruntimed:undname.obj
 0002:0000108c       ??_C@_02FDNJECIE@?$CB?$DN@ 000000018003a08c     libvcruntimed:undname.obj
 0002:00001090       ??_C@_02GPECMEKF@?$FL?$FN@ 000000018003a090     libvcruntimed:undname.obj
 0002:00001098       ??_C@_08LHJFAFGD@operator@ 000000018003a098     libvcruntimed:undname.obj
 0002:000010a4       ??_C@_02HBOOOICD@?9?$DO@   000000018003a0a4     libvcruntimed:undname.obj
 0002:000010a8       ??_C@_01NBENCBCI@?$CK@     000000018003a0a8     libvcruntimed:undname.obj
 0002:000010ac       ??_C@_02ECNGHCIF@?$CL?$CL@ 000000018003a0ac     libvcruntimed:undname.obj
 0002:000010b0       ??_C@_02BAABKJLB@?9?9@     000000018003a0b0     libvcruntimed:undname.obj
 0002:000010b4       ??_C@_01JOAMLHOP@?9@       000000018003a0b4     libvcruntimed:undname.obj
 0002:000010b8       ??_C@_01MIFGBAGJ@?$CL@     000000018003a0b8     libvcruntimed:undname.obj
 0002:000010bc       ??_C@_01HNPIGOCE@?$CG@     000000018003a0bc     libvcruntimed:undname.obj
 0002:000010c0       ??_C@_03MNHNFDLC@?9?$DO?$CK@ 000000018003a0c0     libvcruntimed:undname.obj
 0002:000010c4       ??_C@_01KMDKNFGN@?1@       000000018003a0c4     libvcruntimed:undname.obj
 0002:000010c8       ??_C@_01FGNFDNOH@?$CF@     000000018003a0c8     libvcruntimed:undname.obj
 0002:000010cc       ??_C@_01MNNFJEPP@?$DM@     000000018003a0cc     libvcruntimed:undname.obj
 0002:000010d0       ??_C@_02EHCHHCKH@?$DM?$DN@ 000000018003a0d0     libvcruntimed:undname.obj
 0002:000010d4       ??_C@_01PPODPGHN@?$DO@     000000018003a0d4     libvcruntimed:undname.obj
 0002:000010d8       ??_C@_02EEKDKGMJ@?$DO?$DN@ 000000018003a0d8     libvcruntimed:undname.obj
 0002:000010dc       ??_C@_01IHBHIGKO@?0@       000000018003a0dc     libvcruntimed:undname.obj
 0002:000010e0       ??_C@_02HCKGKOFO@?$CI?$CJ@ 000000018003a0e0     libvcruntimed:undname.obj
 0002:000010e4       ??_C@_01PJKLJHI@?$HO@      000000018003a0e4     libvcruntimed:undname.obj
 0002:000010e8       ??_C@_01JKBOJNNK@?$FO@     000000018003a0e8     libvcruntimed:undname.obj
 0002:000010ec       ??_C@_01DNKMNLPK@?$HM@     000000018003a0ec     libvcruntimed:undname.obj
 0002:000010f0       ??_C@_02PPKAJPJL@?$CG?$CG@ 000000018003a0f0     libvcruntimed:undname.obj
 0002:000010f4       ??_C@_02NONPIBCD@?$HM?$HM@ 000000018003a0f4     libvcruntimed:undname.obj
 0002:000010f8       ??_C@_02FPIMKNGF@?$CK?$DN@ 000000018003a0f8     libvcruntimed:undname.obj
 0002:000010fc       ??_C@_02FOEOMHFC@?$CL?$DN@ 000000018003a0fc     libvcruntimed:undname.obj
 0002:00001100       ??_C@_02FKMDLLOA@?9?$DN@   000000018003a100     libvcruntimed:undname.obj
 0002:00001104       ??_C@_02FJEHGPIO@?1?$DN@   000000018003a104     libvcruntimed:undname.obj
 0002:00001108       ??_C@_02FENAOKFI@?$CF?$DN@ 000000018003a108     libvcruntimed:undname.obj
 0002:0000110c       ??_C@_03IKFCCPFF@?$DO?$DO?$DN@ 000000018003a10c     libvcruntimed:undname.obj
 0002:00001110       ??_C@_03CDNPDDLA@?$DM?$DM?$DN@ 000000018003a110     libvcruntimed:undname.obj
 0002:00001114       ??_C@_02FGJGFEAB@?$CG?$DN@ 000000018003a114     libvcruntimed:undname.obj
 0002:00001118       ??_C@_02DHLNPPGH@?$HM?$DN@ 000000018003a118     libvcruntimed:undname.obj
 0002:0000111c       ??_C@_02MHEGNOJ@?$FO?$DN@  000000018003a11c     libvcruntimed:undname.obj
 0002:00001120       ??_C@_09IFPLHPGF@?$GAvftable?8@ 000000018003a120     libvcruntimed:undname.obj
 0002:00001130       ??_C@_09BLBHBJP@?$GAvbtable?8@ 000000018003a130     libvcruntimed:undname.obj
 0002:00001140       ??_C@_07FEEIOKP@?$GAvcall?8@ 000000018003a140     libvcruntimed:undname.obj
 0002:00001148       ??_C@_08LLFFHHDJ@?$GAtypeof?8@ 000000018003a148     libvcruntimed:undname.obj
 0002:00001158       ??_C@_0BF@KDPPACIK@?$GAlocal?5static?5guard?8@ 000000018003a158     libvcruntimed:undname.obj
 0002:00001170       ??_C@_08OBABFOLI@?$GAstring?8@ 000000018003a170     libvcruntimed:undname.obj
 0002:00001180       ??_C@_0BD@JDLKDPAB@?$GAvbase?5destructor?8@ 000000018003a180     libvcruntimed:undname.obj
 0002:00001198       ??_C@_0BN@DEGPLNFK@?$GAvector?5deleting?5destructor?8@ 000000018003a198     libvcruntimed:undname.obj
 0002:000011b8       ??_C@_0BO@OBMKPJIG@?$GAdefault?5constructor?5closure?8@ 000000018003a1b8     libvcruntimed:undname.obj
 0002:000011d8       ??_C@_0BN@IMDCHIKM@?$GAscalar?5deleting?5destructor?8@ 000000018003a1d8     libvcruntimed:undname.obj
 0002:000011f8       ??_C@_0BO@PFGOCPJJ@?$GAvector?5constructor?5iterator?8@ 000000018003a1f8     libvcruntimed:undname.obj
 0002:00001218       ??_C@_0BN@LFPFMEDL@?$GAvector?5destructor?5iterator?8@ 000000018003a218     libvcruntimed:undname.obj
 0002:00001238       ??_C@_0CE@IKBNEHA@?$GAvector?5vbase?5constructor?5itera@ 000000018003a238     libvcruntimed:undname.obj
 0002:00001260       ??_C@_0BL@NILFHHPC@?$GAvirtual?5displacement?5map?8@ 000000018003a260     libvcruntimed:undname.obj
 0002:00001280       ??_C@_0CB@JONCMFFK@?$GAeh?5vector?5constructor?5iterator@ 000000018003a280     libvcruntimed:undname.obj
 0002:000012a8       ??_C@_0CA@GCEOPDGL@?$GAeh?5vector?5destructor?5iterator?8@ 000000018003a2a8     libvcruntimed:undname.obj
 0002:000012c8       ??_C@_0CH@OOJPLCPH@?$GAeh?5vector?5vbase?5constructor?5it@ 000000018003a2c8     libvcruntimed:undname.obj
 0002:000012f0       ??_C@_0BL@LLKPOHJI@?$GAcopy?5constructor?5closure?8@ 000000018003a2f0     libvcruntimed:undname.obj
 0002:00001310       ??_C@_0BA@KBCDOMBN@?$GAudt?5returning?8@ 000000018003a310     libvcruntimed:undname.obj
 0002:00001320       ??_C@_03KLGMFNMG@?$GAEH@   000000018003a320     libvcruntimed:undname.obj
 0002:00001324       ??_C@_05KHLCHHI@?$GARTTI@  000000018003a324     libvcruntimed:undname.obj
 0002:00001330       ??_C@_0BA@KKLDJDLB@?$GAlocal?5vftable?8@ 000000018003a330     libvcruntimed:undname.obj
 0002:00001340       ??_C@_0CE@IIHCMGGL@?$GAlocal?5vftable?5constructor?5clos@ 000000018003a340     libvcruntimed:undname.obj
 0002:00001364       ??_C@_06FHBGPFGH@?5new?$FL?$FN@ 000000018003a364     libvcruntimed:undname.obj
 0002:00001370       ??_C@_09LBNFPBCA@?5delete?$FL?$FN@ 000000018003a370     libvcruntimed:undname.obj
 0002:00001380       ??_C@_0P@HJKNJFNN@?$GAomni?5callsig?8@ 000000018003a380     libvcruntimed:undname.obj
 0002:00001390       ??_C@_0BL@CNOONJFP@?$GAplacement?5delete?5closure?8@ 000000018003a390     libvcruntimed:undname.obj
 0002:000013b0       ??_C@_0BN@CKNJLHMB@?$GAplacement?5delete?$FL?$FN?5closure?8@ 000000018003a3b0     libvcruntimed:undname.obj
 0002:000013d0       ??_C@_0CG@CFDHKGGD@?$GAmanaged?5vector?5constructor?5ite@ 000000018003a3d0     libvcruntimed:undname.obj
 0002:000013f8       ??_C@_0CF@IMGKMJNO@?$GAmanaged?5vector?5destructor?5iter@ 000000018003a3f8     libvcruntimed:undname.obj
 0002:00001420       ??_C@_0CG@HLDDJMAG@?$GAeh?5vector?5copy?5constructor?5ite@ 000000018003a420     libvcruntimed:undname.obj
 0002:00001448       ??_C@_0CM@FCBBDIGB@?$GAeh?5vector?5vbase?5copy?5construct@ 000000018003a448     libvcruntimed:undname.obj
 0002:00001478       ??_C@_0BL@CLIPGLGB@?$GAdynamic?5initializer?5for?5?8@ 000000018003a478     libvcruntimed:undname.obj
 0002:00001498       ??_C@_0CB@PDBIFEP@?$GAdynamic?5atexit?5destructor?5for?5@ 000000018003a498     libvcruntimed:undname.obj
 0002:000014c0       ??_C@_0CD@CGAJBKEJ@?$GAvector?5copy?5constructor?5iterat@ 000000018003a4c0     libvcruntimed:undname.obj
 0002:000014e8       ??_C@_0CJ@GJELGAMM@?$GAvector?5vbase?5copy?5constructor?5@ 000000018003a4e8     libvcruntimed:undname.obj
 0002:00001518       ??_C@_0CL@FGIJHLCE@?$GAmanaged?5vector?5copy?5constructo@ 000000018003a518     libvcruntimed:undname.obj
 0002:00001548       ??_C@_0BM@PMGGMLDN@?$GAlocal?5static?5thread?5guard?8@ 000000018003a548     libvcruntimed:undname.obj
 0002:00001568       ??_C@_0N@BDNMDMOL@operator?5?$CC?$CC?5@ 000000018003a568     libvcruntimed:undname.obj
 0002:00001578       ??_C@_0BC@GGEBGALA@operator?5co_await@ 000000018003a578     libvcruntimed:undname.obj
 0002:00001590       ??_C@_0M@GAAIMMOH@operator?$DM?$DN?$DO@ 000000018003a590     libvcruntimed:undname.obj
 0002:000015a0       ??_C@_0BC@DAFEJGAK@?5Type?5Descriptor?8@ 000000018003a5a0     libvcruntimed:undname.obj
 0002:000015b8       ??_C@_0BM@LDKODKLH@?5Base?5Class?5Descriptor?5at?5?$CI@ 000000018003a5b8     libvcruntimed:undname.obj
 0002:000015d8       ??_C@_0BD@LGICGFMM@?5Base?5Class?5Array?8@ 000000018003a5d8     libvcruntimed:undname.obj
 0002:000015f0       ??_C@_0BN@MECKDCOJ@?5Class?5Hierarchy?5Descriptor?8@ 000000018003a5f0     libvcruntimed:undname.obj
 0002:00001610       ??_C@_0BK@CFCOFLF@?5Complete?5Object?5Locator?8@ 000000018003a610     libvcruntimed:undname.obj
 0002:00001630       ??_C@_0BG@JNJLAMPM@?$GAanonymous?5namespace?8@ 000000018003a630     libvcruntimed:undname.obj
 0002:00001650       ??_C@_0EO@IMACLHHO@d?3?2agent?2_work?24?2s?2src?2vctools?2@ 000000018003a650     libvcruntimed:per_thread_data.obj
 0002:00001750       ??_C@_1DM@KHCHBNEB@?$AAa?$AAp?$AAi?$AA?9?$AAm?$AAs?$AA?9?$AAw?$AAi?$AAn?$AA?9?$AAc?$AAo?$AAr?$AAe@ 000000018003a750     libvcruntimed:winapi_downlevel.obj
 0002:00001790       ??_C@_1DK@LPPGFMPP@?$AAa?$AAp?$AAi?$AA?9?$AAm?$AAs?$AA?9?$AAw?$AAi?$AAn?$AA?9?$AAc?$AAo?$AAr?$AAe@ 000000018003a790     libvcruntimed:winapi_downlevel.obj
 0002:000017d0       ??_C@_1BC@GDMECMAK@?$AAk?$AAe?$AAr?$AAn?$AAe?$AAl?$AA3?$AA2@ 000000018003a7d0     libvcruntimed:winapi_downlevel.obj
 0002:000017e8       ??_C@_17CNPHIMPH@?$AA?$CF?$AAl?$AAs@ 000000018003a7e8     libvcruntimed:winapi_downlevel.obj
 0002:000017f0       ??_C@_1BA@PFFKHIOG@?$AAa?$AAp?$AAi?$AA?9?$AAm?$AAs?$AA?9@ 000000018003a7f0     libvcruntimed:winapi_downlevel.obj
 0002:00001800       ??_C@_1EM@LBIFGLGH@?$AAc?$AAa?$AAc?$AAh?$AAe?$AAd?$AA_?$AAh?$AAa?$AAn?$AAd?$AAl?$AAe?$AA?5?$AA?$DN@ 000000018003a800     libvcruntimed:winapi_downlevel.obj
 0002:00001850       ??_C@_1JO@IKCMCKBI@?$AAd?$AA?3?$AA?2?$AAa?$AAg?$AAe?$AAn?$AAt?$AA?2?$AA_?$AAw?$AAo?$AAr?$AAk?$AA?2@ 000000018003a850     libvcruntimed:winapi_downlevel.obj
 0002:000018f0       ??_C@_1DI@MAHEDLDB@?$AAc?$AAa?$AAc?$AAh?$AAe?$AAd?$AA_?$AAh?$AAa?$AAn?$AAd?$AAl?$AAe?$AA?5?$AA?$DN@ 000000018003a8f0     libvcruntimed:winapi_downlevel.obj
 0002:00001930       ??_C@_1FC@IBNCGNKL@?$AAc?$AAa?$AAc?$AAh?$AAe?$AAd?$AA_?$AAf?$AAp?$AA?5?$AA?$DN?$AA?$DN?$AA?5?$AAi?$AAn@ 000000018003a930     libvcruntimed:winapi_downlevel.obj
 0002:00001988       ??_C@_1CI@GDJBAGLP@?$AAc?$AAa?$AAc?$AAh?$AAe?$AAd?$AA_?$AAf?$AAp?$AA?5?$AA?$DN?$AA?$DN?$AA?5?$AAn?$AAe@ 000000018003a988     libvcruntimed:winapi_downlevel.obj
 0002:000019e0       ??_7exception@std@@6B@     000000018003a9e0     libvcruntimed:frame.obj
 0002:000019f0       ??_C@_0BC@EOODALEL@Unknown?5exception@ 000000018003a9f0     libvcruntimed:frame.obj
 0002:00001a10       ??_7bad_exception@std@@6B@ 000000018003aa10     libvcruntimed:frame.obj
 0002:00001a20       ??_C@_0O@DPKOEFFH@bad?5exception@ 000000018003aa20     libvcruntimed:frame.obj
 0002:00001a30       ??_C@_1FK@OACNEHHA@?$AAt?$AAo?$AA?9?$AA?$DO?$AA_?$AAW?$AAh?$AAa?$AAt?$AA?5?$AA?$DN?$AA?$DN?$AA?5?$AAn?$AAu@ 000000018003aa30     libvcruntimed:std_exception.obj
 0002:00001a90       ??_C@_1IM@CBBCJHKN@?$AAd?$AA?3?$AA?2?$AAa?$AAg?$AAe?$AAn?$AAt?$AA?2?$AA_?$AAw?$AAo?$AAr?$AAk?$AA?2@ 000000018003aa90     libvcruntimed:std_exception.obj
 0002:00001b38       ??_C@_1BA@GLMCNLEM@?$AAW?$AAa?$AAr?$AAn?$AAi?$AAn?$AAg@ 000000018003ab38     libucrtd:dbgrpt.obj
 0002:00001b48       ??_C@_1M@ILHOPKA@?$AAE?$AAr?$AAr?$AAo?$AAr@ 000000018003ab48     libucrtd:dbgrpt.obj
 0002:00001b58       ??_C@_1CC@CGHMNGDG@?$AAA?$AAs?$AAs?$AAe?$AAr?$AAt?$AAi?$AAo?$AAn?$AA?5?$AAF?$AAa?$AAi?$AAl?$AAe@ 000000018003ab58     libucrtd:dbgrpt.obj
 0002:00001b90       ??_C@_1OG@PMPPFHAF@?$AA?6?$AA?6?$AAF?$AAo?$AAr?$AA?5?$AAi?$AAn?$AAf?$AAo?$AAr?$AAm?$AAa?$AAt?$AAi@ 000000018003ab90     libucrtd:dbgrpt.obj
 0002:00001c80       ??_C@_1MG@LJLILFFD@?$AAD?$AAe?$AAb?$AAu?$AAg?$AA?5?$AA?$CF?$AAl?$AAs?$AA?$CB?$AA?6?$AA?6?$AAP?$AAr?$AAo@ 000000018003ac80     libucrtd:dbgrpt.obj
 0002:00001d50       ??_C@_1MG@OODCADGL@?$AAD?$AAe?$AAb?$AAu?$AAg?$AA?5?$AA?$CF?$AAl?$AAs?$AA?$CB?$AA?6?$AA?6?$AAP?$AAr?$AAo@ 000000018003ad50     libucrtd:dbgrpt.obj
 0002:00001e18       ??_C@_0BH@DNAGHKFM@?$DMprogram?5name?5unknown?$DO@ 000000018003ae18     libucrtd:dbgrpt.obj
 0002:00001e30       ??_C@_1CO@EAEJAADC@?$AA?$DM?$AAp?$AAr?$AAo?$AAg?$AAr?$AAa?$AAm?$AA?5?$AAn?$AAa?$AAm?$AAe?$AA?5?$AAu@ 000000018003ae30     libucrtd:dbgrpt.obj
 0002:00001e60       ??_C@_1FO@GMJDLAJD@?$AAm?$AAi?$AAn?$AAk?$AAe?$AAr?$AAn?$AAe?$AAl?$AA?2?$AAc?$AAr?$AAt?$AAs?$AA?2@ 000000018003ae60     libucrtd:dbgrpt.obj
 0002:00001ec0       ??_C@_1CM@EHMOGBJJ@?$AAc?$AAo?$AAm?$AAm?$AAo?$AAn?$AA_?$AAm?$AAe?$AAs?$AAs?$AAa?$AAg?$AAe?$AA_@ 000000018003aec0     libucrtd:dbgrpt.obj
 0002:00001ef0       ??_C@_1PE@ECNALGCA@?$AAt?$AAr?$AAa?$AAi?$AAt?$AAs?$AA?3?$AA?3?$AAt?$AAc?$AAs?$AAc?$AAp?$AAy?$AA_@ 000000018003aef0     libucrtd:dbgrpt.obj
 0002:00001fe4       ??_C@_11LOCGONAA@@         000000018003afe4     libucrtd:dbgrpt.obj
 0002:00001fe8       ??_C@_1BK@PEDCIPMA@?$AAE?$AAx?$AAp?$AAr?$AAe?$AAs?$AAs?$AAi?$AAo?$AAn?$AA?3?$AA?5@ 000000018003afe8     libucrtd:dbgrpt.obj
 0002:00002004       ??_C@_15IABLJNFO@?$AA?6?$AA?6@ 000000018003b004     libucrtd:dbgrpt.obj
 0002:00002010       ??_C@_1BA@GLLGCPCK@?$AA?6?$AAL?$AAi?$AAn?$AAe?$AA?3?$AA?5@ 000000018003b010     libucrtd:dbgrpt.obj
 0002:00002020       ??_C@_1BA@LNHECFIM@?$AA?6?$AAF?$AAi?$AAl?$AAe?$AA?3?$AA?5@ 000000018003b020     libucrtd:dbgrpt.obj
 0002:00002030       ??_C@_17LGKOMLJ@?$AA?4?$AA?4?$AA?4@ 000000018003b030     libucrtd:dbgrpt.obj
 0002:00002038       ??_C@_1BE@CGCJKGHI@?$AA?6?$AAM?$AAo?$AAd?$AAu?$AAl?$AAe?$AA?3?$AA?5@ 000000018003b038     libucrtd:dbgrpt.obj
 0002:00002050       ??_C@_1BI@KALLJECN@?$AA?$CI?$AA?$CK?$AA_?$AAe?$AAr?$AAr?$AAn?$AAo?$AA?$CI?$AA?$CJ?$AA?$CJ@ 000000018003b050     libucrtd:dbgrpt.obj
 0002:00002070       ??_C@_1JM@IBOIJEOO@?$AAw?$AAc?$AAs?$AAc?$AAp?$AAy?$AA_?$AAs?$AA?$CI?$AAm?$AAe?$AAs?$AAs?$AAa?$AAg@ 000000018003b070     libucrtd:dbgrpt.obj
 0002:00002110       ??_C@_1FG@BBOLDHGF@?$AA_?$AAC?$AAr?$AAt?$AAD?$AAb?$AAg?$AAR?$AAe?$AAp?$AAo?$AAr?$AAt?$AA?3?$AA?5@ 000000018003b110     libucrtd:dbgrpt.obj
 0002:00002170       ??_C@_1EK@MBDPDCGA@?$AAM?$AAi?$AAc?$AAr?$AAo?$AAs?$AAo?$AAf?$AAt?$AA?5?$AAV?$AAi?$AAs?$AAu?$AAa@ 000000018003b170     libucrtd:dbgrpt.obj
 0002:000021c0       __acrt_exception_action_table 000000018003b1c0     libucrtd:exception_filter.obj
 0002:00002280       __acrt_signal_action_table_count 000000018003b280     libucrtd:exception_filter.obj
 0002:00002288       __acrt_signal_action_first_fpe_index 000000018003b288     libucrtd:exception_filter.obj
 0002:00002290       __acrt_signal_action_fpe_count 000000018003b290     libucrtd:exception_filter.obj
 0002:00002298       ??_C@_1BI@BGOHAHKC@?$AAm?$AAs?$AAc?$AAo?$AAr?$AAe?$AAe?$AA?4?$AAd?$AAl?$AAl@ 000000018003b298     libucrtd:exit.obj
 0002:000022b0       ??_C@_0P@MIGLKIOC@CorExitProcess@ 000000018003b2b0     libucrtd:exit.obj
 0002:000022c0       ??_C@_0DI@KNDIGDEP@minkernel?2crts?2ucrt?2src?2appcrt?2@ 000000018003b2c0     libucrtd:argv_parsing.obj
 0002:00002300       ??_C@_1JO@PGBIJBAM@?$AAm?$AAo?$AAd?$AAe?$AA?5?$AA?$DN?$AA?$DN?$AA?5?$AA_?$AAc?$AAr?$AAt?$AA_?$AAa?$AAr@ 000000018003b300     libucrtd:argv_parsing.obj
 0002:000023a0       ??_C@_1HA@JMLCANEE@?$AAm?$AAi?$AAn?$AAk?$AAe?$AAr?$AAn?$AAe?$AAl?$AA?2?$AAc?$AAr?$AAt?$AAs?$AA?2@ 000000018003b3a0     libucrtd:argv_parsing.obj
 0002:00002410       ??_C@_1CM@LHOJELIC@?$AAc?$AAo?$AAm?$AAm?$AAo?$AAn?$AA_?$AAc?$AAo?$AAn?$AAf?$AAi?$AAg?$AAu?$AAr@ 000000018003b410     libucrtd:argv_parsing.obj
 0002:00002440       ??_C@_0EG@LEHKHOEH@minkernel?2crts?2ucrt?2src?2desktop@ 000000018003b440     libucrtd:environment_initialization.obj
 0002:00002490       ??_C@_1IM@IMOFFPLG@?$AAm?$AAi?$AAn?$AAk?$AAe?$AAr?$AAn?$AAe?$AAl?$AA?2?$AAc?$AAr?$AAt?$AAs?$AA?2@ 000000018003b490     libucrtd:environment_initialization.obj
 0002:00002520       ??_C@_1CG@MNNNBNAK@?$AAc?$AAr?$AAe?$AAa?$AAt?$AAe?$AA_?$AAe?$AAn?$AAv?$AAi?$AAr?$AAo?$AAn?$AAm@ 000000018003b520     libucrtd:environment_initialization.obj
 0002:00002550       ??_C@_1HI@OOPIFFGA@?$AAt?$AAr?$AAa?$AAi?$AAt?$AAs?$AA?3?$AA?3?$AAt?$AAc?$AAs?$AAc?$AAp?$AAy?$AA_@ 000000018003b550     libucrtd:environment_initialization.obj
 0002:00002718       ??_C@_04HJMOFLDF@Free@     000000018003b718     libucrtd:debug_heap.obj
 0002:00002720       ??_C@_06EFAGIKOH@Normal@   000000018003b720     libucrtd:debug_heap.obj
 0002:00002728       ??_C@_03OGPFLFLO@CRT@      000000018003b728     libucrtd:debug_heap.obj
 0002:0000272c       ??_C@_06KMEJCCGM@Ignore@   000000018003b72c     libucrtd:debug_heap.obj
 0002:00002734       ??_C@_06PJIGMIJB@Client@   000000018003b734     libucrtd:debug_heap.obj
 0002:00002740       ??_C@_1CE@LJFEPPMP@?$AA_?$AAC?$AAr?$AAt?$AAC?$AAh?$AAe?$AAc?$AAk?$AAM?$AAe?$AAm?$AAo?$AAr?$AAy@ 000000018003b740     libucrtd:debug_heap.obj
 0002:00002770       ??_C@_1GG@OCLHPJPK@?$AAm?$AAi?$AAn?$AAk?$AAe?$AAr?$AAn?$AAe?$AAl?$AA?2?$AAc?$AAr?$AAt?$AAs?$AA?2@ 000000018003b770     libucrtd:debug_heap.obj
 0002:000027d8       ??_C@_0DF@BBEGIFEK@Client?5hook?5allocation?5failure?5@ 000000018003b7d8     libucrtd:debug_heap.obj
 0002:00002810       ??_C@_0CB@CCLOLAHO@Client?5hook?5allocation?5failure?4@ 000000018003b810     libucrtd:debug_heap.obj
 0002:00002838       ??_C@_0DC@JEMAGEKG@Error?3?5memory?5allocation?3?5bad?5m@ 000000018003b838     libucrtd:debug_heap.obj
 0002:00002870       ??_C@_0DI@KKJPDPGM@Client?5hook?5re?9allocation?5failu@ 000000018003b870     libucrtd:debug_heap.obj
 0002:000028a8       ??_C@_0CE@DOFMDOL@Client?5hook?5re?9allocation?5failu@ 000000018003b8a8     libucrtd:debug_heap.obj
 0002:000028d0       ??_C@_0FA@EFEIGJKG@Error?3?5memory?5allocation?3?5bad?5m@ 000000018003b8d0     libucrtd:debug_heap.obj
 0002:00002920       ??_C@_0EM@LGFLMAGJ@The?5Block?5at?50x?$CFp?5was?5allocated@ 000000018003b920     libucrtd:debug_heap.obj
 0002:00002970       ??_C@_1DM@DEDLGNML@?$AA_?$AAC?$AAr?$AAt?$AAI?$AAs?$AAV?$AAa?$AAl?$AAi?$AAd?$AAH?$AAe?$AAa?$AAp@ 000000018003b970     libucrtd:debug_heap.obj
 0002:000029b0       ??_C@_1PC@MCGKJLN@?$AAo?$AAl?$AAd?$AA_?$AAh?$AAe?$AAa?$AAd?$AA?9?$AA?$DO?$AA_?$AAl?$AAi?$AAn?$AAe@ 000000018003b9b0     libucrtd:debug_heap.obj
 0002:00002aa8       ??_C@_0DA@HFBKENN@Error?3?5possible?5heap?5corruption@ 000000018003baa8     libucrtd:debug_heap.obj
 0002:00002ae0       ??_C@_1JM@MCMEPJEP@?$AAr?$AAe?$AAa?$AAl?$AAl?$AAo?$AAc?$AAa?$AAt?$AAi?$AAo?$AAn?$AA_?$AAi?$AAs@ 000000018003bae0     libucrtd:debug_heap.obj
 0002:00002b80       ??_C@_1DM@LNOPKAIJ@?$AA_?$AA_?$AAa?$AAc?$AAr?$AAt?$AA_?$AAl?$AAa?$AAs?$AAt?$AA_?$AAb?$AAl?$AAo@ 000000018003bb80     libucrtd:debug_heap.obj
 0002:00002bc0       ??_C@_1DO@HABCJBHO@?$AA_?$AA_?$AAa?$AAc?$AAr?$AAt?$AA_?$AAf?$AAi?$AAr?$AAs?$AAt?$AA_?$AAb?$AAl@ 000000018003bbc0     libucrtd:debug_heap.obj
 0002:00002c00       ??_C@_1CC@CKEAHJPH@?$AAb?$AAl?$AAo?$AAc?$AAk?$AA?5?$AA?$CB?$AA?$DN?$AA?5?$AAn?$AAu?$AAl?$AAl?$AAp?$AAt@ 000000018003bc00     libucrtd:debug_heap.obj
 0002:00002c30       ??_C@_0EJ@HEIBCIMJ@The?5Block?5at?50x?$CFp?5was?5allocated@ 000000018003bc30     libucrtd:debug_heap.obj
 0002:00002c80       ??_C@_0BL@KEIPLFAC@Client?5hook?5free?5failure?4?6@ 000000018003bc80     libucrtd:debug_heap.obj
 0002:00002ca0       ??_C@_1FA@KDNEBILF@?$AAi?$AAs?$AA_?$AAb?$AAl?$AAo?$AAc?$AAk?$AA_?$AAt?$AAy?$AAp?$AAe?$AA_?$AAv@ 000000018003bca0     libucrtd:debug_heap.obj
 0002:00002cf0       ??_C@_0KI@JGFOHMEB@HEAP?5CORRUPTION?5DETECTED?3?5befor@ 000000018003bcf0     libucrtd:debug_heap.obj
 0002:00002da0       ??_C@_0IK@PJCGLBOB@HEAP?5CORRUPTION?5DETECTED?3?5befor@ 000000018003bda0     libucrtd:debug_heap.obj
 0002:00002e30       ??_C@_0KE@MBMNHHHN@HEAP?5CORRUPTION?5DETECTED?3?5after@ 000000018003be30     libucrtd:debug_heap.obj
 0002:00002ee0       ??_C@_0IG@LEMBDCJK@HEAP?5CORRUPTION?5DETECTED?3?5after@ 000000018003bee0     libucrtd:debug_heap.obj
 0002:00002f70       ??_C@_1OK@GFEOEJAF@?$AAh?$AAe?$AAa?$AAd?$AAe?$AAr?$AA?9?$AA?$DO?$AA_?$AAl?$AAi?$AAn?$AAe?$AA_?$AAn@ 000000018003bf70     libucrtd:debug_heap.obj
 0002:00003060       ??_C@_1ME@GFALMLNA@?$AAh?$AAe?$AAa?$AAd?$AAe?$AAr?$AA?9?$AA?$DO?$AA_?$AAb?$AAl?$AAo?$AAc?$AAk?$AA_@ 000000018003c060     libucrtd:debug_heap.obj
 0002:00003128       ??_C@_1DI@ILNOPEPI@?$AA_?$AA_?$AAa?$AAc?$AAr?$AAt?$AA_?$AAl?$AAa?$AAs?$AAt?$AA_?$AAb?$AAl?$AAo@ 000000018003c128     libucrtd:debug_heap.obj
 0002:00003160       ??_C@_1DK@KEHFGDIJ@?$AA_?$AA_?$AAa?$AAc?$AAr?$AAt?$AA_?$AAf?$AAi?$AAr?$AAs?$AAt?$AA_?$AAb?$AAl@ 000000018003c160     libucrtd:debug_heap.obj
 0002:000031a0       ??_C@_1BG@MBKOGDLD@?$AA_?$AAm?$AAs?$AAi?$AAz?$AAe?$AA_?$AAd?$AAb?$AAg@ 000000018003c1a0     libucrtd:debug_heap.obj
 0002:000031b8       ??_C@_07OHKEFPKJ@DAMAGED@  000000018003c1b8     libucrtd:debug_heap.obj
 0002:000031c0       ??_C@_0KA@IHNJJKPL@HEAP?5CORRUPTION?5DETECTED?3?5on?5to@ 000000018003c1c0     libucrtd:debug_heap.obj
 0002:00003260       ??_C@_0IC@BBJIOOJH@HEAP?5CORRUPTION?5DETECTED?3?5on?5to@ 000000018003c260     libucrtd:debug_heap.obj
 0002:000032f0       ??_C@_0EG@DGJMPDBH@?$CFhs?5located?5at?50x?$CFp?5is?5?$CFIu?5byte@ 000000018003c2f0     libucrtd:debug_heap.obj
 0002:00003338       ??_C@_0CI@JMLBEDHJ@?$CFhs?5located?5at?50x?$CFp?5is?5?$CFIu?5byte@ 000000018003c338     libucrtd:debug_heap.obj
 0002:00003360       ??_C@_0EG@GPFHANHO@Cycle?5in?5block?5list?5detected?5wh@ 000000018003c360     libucrtd:debug_heap.obj
 0002:000033a8       ??_C@_0BJ@ELMAOCAJ@Heap?5validation?5failed?4?6@ 000000018003c3a8     libucrtd:debug_heap.obj
 0002:000033d0       ??_C@_1IE@BBIFDGEB@?$AAn?$AAe?$AAw?$AA_?$AAb?$AAi?$AAt?$AAs?$AA?5?$AA?$DN?$AA?$DN?$AA?5?$AA_?$AAC?$AAR@ 000000018003c3d0     libucrtd:debug_heap.obj
 0002:00003458       ??_C@_1BO@GJFDNMNF@?$AA_?$AAC?$AAr?$AAt?$AAS?$AAe?$AAt?$AAD?$AAb?$AAg?$AAF?$AAl?$AAa?$AAg@ 000000018003c458     libucrtd:debug_heap.obj
 0002:00003478       ??_C@_1CC@BBKMONGA@?$AAs?$AAt?$AAa?$AAt?$AAe?$AA?5?$AA?$CB?$AA?$DN?$AA?5?$AAn?$AAu?$AAl?$AAl?$AAp?$AAt@ 000000018003c478     libucrtd:debug_heap.obj
 0002:000034a0       ??_C@_1CE@NJJKELF@?$AA_?$AAC?$AAr?$AAt?$AAM?$AAe?$AAm?$AAC?$AAh?$AAe?$AAc?$AAk?$AAp?$AAo?$AAi@ 000000018003c4a0     libucrtd:debug_heap.obj
 0002:000034c8       ??_C@_0DP@LEFMFBOD@Bad?5memory?5block?5found?5at?50x?$CFp?4@ 000000018003c4c8     libucrtd:debug_heap.obj
 0002:00003508       ??_C@_0CB@EAAIGELO@Bad?5memory?5block?5found?5at?50x?$CFp?4@ 000000018003c508     libucrtd:debug_heap.obj
 0002:0000352c       ??_C@_05MKKEDADM@?$CF?42X?5@ 000000018003c52c     libucrtd:debug_heap.obj
 0002:00003538       ??_C@_1CC@DIJAHFFJ@?$AAp?$AAr?$AAi?$AAn?$AAt?$AA_?$AAb?$AAl?$AAo?$AAc?$AAk?$AA_?$AAd?$AAa?$AAt@ 000000018003c538     libucrtd:debug_heap.obj
 0002:00003560       ??_C@_0BA@HJBKCELP@?5Data?3?5?$DM?$CFs?$DO?5?$CFs?6@ 000000018003c560     libucrtd:debug_heap.obj
 0002:00003570       ??_C@_0BE@KCIPKCIA@Dumping?5objects?5?9?$DO?6@ 000000018003c570     libucrtd:debug_heap.obj
 0002:00003588       ??_C@_0BE@OIEFNFL@?$CDFile?5Error?$CD?$CI?$CFd?$CJ?5?3?5@ 000000018003c588     libucrtd:debug_heap.obj
 0002:000035a0       ??_C@_0L@JMEFFCCJ@?$CFhs?$CI?$CFd?$CJ?5?3?5@ 000000018003c5a0     libucrtd:debug_heap.obj
 0002:000035ac       ??_C@_06PKLGBFGM@?$HL?$CFld?$HN?5@ 000000018003c5ac     libucrtd:debug_heap.obj
 0002:000035b8       ??_C@_0DD@GHNAAKBB@client?5block?5at?50x?$CFp?0?5subtype?5?$CF@ 000000018003c5b8     libucrtd:debug_heap.obj
 0002:000035f0       ??_C@_0CH@FAGDDGPN@normal?5block?5at?50x?$CFp?0?5?$CFIu?5bytes@ 000000018003c5f0     libucrtd:debug_heap.obj
 0002:00003618       ??_C@_0DA@MDLBNIBM@crt?5block?5at?50x?$CFp?0?5subtype?5?$CFx?0?5@ 000000018003c618     libucrtd:debug_heap.obj
 0002:00003648       ??_C@_0BH@GFGKJDCO@Object?5dump?5complete?4?6@ 000000018003c648     libucrtd:debug_heap.obj
 0002:00003660       ??_C@_0BI@JBFPOEJA@Detected?5memory?5leaks?$CB?6@ 000000018003c660     libucrtd:debug_heap.obj
 0002:00003680       ??_C@_1GI@BBAEIKL@?$AA?$CI?$AA?$CI?$AAd?$AAe?$AAs?$AAt?$AAi?$AAn?$AAa?$AAt?$AAi?$AAo?$AAn?$AA?$CJ?$AA?$CJ@ 000000018003c680     libucrtd:strcpy_s.obj
 0002:000036f0       ??_C@_1HI@PBJPCEBC@?$AAm?$AAi?$AAn?$AAk?$AAe?$AAr?$AAn?$AAe?$AAl?$AA?2?$AAc?$AAr?$AAt?$AAs?$AA?2@ 000000018003c6f0     libucrtd:strcpy_s.obj
 0002:00003768       ??_C@_1CA@FHIAGDFH@?$AAc?$AAo?$AAm?$AAm?$AAo?$AAn?$AA_?$AAt?$AAc?$AAs?$AAc?$AAp?$AAy?$AA_?$AAs@ 000000018003c768     libucrtd:strcpy_s.obj
 0002:00003788       ??_C@_1CK@EIOKGPJL@?$AA?$CI?$AA?$CI?$AA?$CI?$AAs?$AAo?$AAu?$AAr?$AAc?$AAe?$AA?$CJ?$AA?$CJ?$AA?$CJ?$AA?5?$AA?$CB?$AA?$DN@ 000000018003c788     libucrtd:strcpy_s.obj
 0002:000037b8       ??_C@_1CI@HCPHDDLE@?$AAB?$AAu?$AAf?$AAf?$AAe?$AAr?$AA?5?$AAi?$AAs?$AA?5?$AAt?$AAo?$AAo?$AA?5?$AAs@ 000000018003c7b8     libucrtd:strcpy_s.obj
 0002:000037e0       ??_C@_1DM@MADKGDLO@?$AA?$CI?$AAL?$AA?$CC?$AAB?$AAu?$AAf?$AAf?$AAe?$AAr?$AA?5?$AAi?$AAs?$AA?5?$AAt?$AAo@ 000000018003c7e0     libucrtd:strcpy_s.obj
 0002:00003820       ??_C@_1DA@LLLMNMKI@?$AAa?$AAb?$AAo?$AAr?$AAt?$AA?$CI?$AA?$CJ?$AA?5?$AAh?$AAa?$AAs?$AA?5?$AAb?$AAe?$AAe@ 000000018003c820     libucrtd:abort.obj
 0002:00003850       ?format_validation_lookup_table_spectre@__crt_stdio_output@@3V?$spectre_mitigated_lookup_table@Ustate_transition_pair@__crt_stdio_output@@$0IA@@1@B 000000018003c850     libucrtd:output.obj
 0002:00003c50       ??_C@_1GA@MOBAPGIO@?$AAm?$AAi?$AAn?$AAk?$AAe?$AAr?$AAn?$AAe?$AAl?$AA?2?$AAc?$AAr?$AAt?$AAs?$AA?2@ 000000018003cc50     libucrtd:output.obj
 0002:00003cb0       ??_C@_1CE@EAKLPBKK@?$AAf?$AAo?$AAr?$AAm?$AAa?$AAt?$AA?5?$AA?$CB?$AA?$DN?$AA?5?$AAn?$AAu?$AAl?$AAl?$AAp@ 000000018003ccb0     libucrtd:output.obj
 0002:00003cd8       ??_C@_1CA@PIMGHCEK@?$AAc?$AAo?$AAm?$AAm?$AAo?$AAn?$AA_?$AAv?$AAs?$AAp?$AAr?$AAi?$AAn?$AAt?$AAf@ 000000018003ccd8     libucrtd:output.obj
 0002:00003d00       ??_C@_1EO@EGEEFEFM@?$AAb?$AAu?$AAf?$AAf?$AAe?$AAr?$AA_?$AAc?$AAo?$AAu?$AAn?$AAt?$AA?5?$AA?$DN?$AA?$DN@ 000000018003cd00     libucrtd:output.obj
 0002:00003d50       ??_C@_1CE@JEILLNB@?$AAc?$AAo?$AAm?$AAm?$AAo?$AAn?$AA_?$AAv?$AAs?$AAp?$AAr?$AAi?$AAn?$AAt?$AAf@ 000000018003cd50     libucrtd:output.obj
 0002:00003d80       ??_C@_1EM@OAFHAOLH@?$AAb?$AAu?$AAf?$AAf?$AAe?$AAr?$AA?5?$AA?$CB?$AA?$DN?$AA?5?$AAn?$AAu?$AAl?$AAl?$AAp@ 000000018003cd80     libucrtd:output.obj
 0002:00003dd0       ??_C@_1DA@HPBFKMEB@?$AA?$CI?$AA?$CC?$AAB?$AAu?$AAf?$AAf?$AAe?$AAr?$AA?5?$AAt?$AAo?$AAo?$AA?5?$AAs?$AAm@ 000000018003cdd0     libucrtd:output.obj
 0002:00003e00       ??_C@_1CG@LHFJHFBB@?$AAc?$AAo?$AAm?$AAm?$AAo?$AAn?$AA_?$AAv?$AAs?$AAn?$AAp?$AAr?$AAi?$AAn?$AAt@ 000000018003ce00     libucrtd:output.obj
 0002:00003e28       ??_C@_1CM@JOIJBMEM@?$AA_?$AAf?$AAo?$AAr?$AAm?$AAa?$AAt?$AA_?$AAi?$AAt?$AA?5?$AA?$CB?$AA?$DN?$AA?5?$AAn@ 000000018003ce28     libucrtd:output.obj
 0002:00003e60       ??_C@_1HA@DMAAKIJP@?$AAm?$AAi?$AAn?$AAk?$AAe?$AAr?$AAn?$AAe?$AAl?$AA?2?$AAc?$AAr?$AAt?$AAs?$AA?2@ 000000018003ce60     libucrtd:output.obj
 0002:00003ed0       ??_C@_1EE@DMAIGNBG@?$AA?$CI?$AA?$CC?$AAI?$AAn?$AAc?$AAo?$AAr?$AAr?$AAe?$AAc?$AAt?$AA?5?$AAf?$AAo?$AAr@ 000000018003ced0     libucrtd:output.obj
 0002:00003f20       ??_C@_1FG@OBJBDPAC@?$AA?$CI?$AA?$CC?$AAN?$AA?5?$AAl?$AAe?$AAn?$AAg?$AAt?$AAh?$AA?5?$AAm?$AAo?$AAd?$AAi@ 000000018003cf20     libucrtd:output.obj
 0002:00003f80       ??_C@_1EC@GJPNJDCN@?$AA_?$AAl?$AAe?$AAn?$AAg?$AAt?$AAh?$AA?5?$AA?$DN?$AA?$DN?$AA?5?$AAl?$AAe?$AAn?$AAg@ 000000018003cf80     libucrtd:output.obj
 0002:00003fc8       ??_C@_1DG@CEJKFDMO@?$AAs?$AAt?$AAa?$AAt?$AAe?$AA_?$AAc?$AAa?$AAs?$AAe?$AA_?$AAn?$AAo?$AAr?$AAm@ 000000018003cfc8     libucrtd:output.obj
 0002:00004000       ??_C@_1CI@DDKMNCPP@?$AA_?$AAc?$AAo?$AAn?$AAt?$AAe?$AAx?$AAt?$AA?5?$AA?$CB?$AA?$DN?$AA?5?$AAn?$AAu?$AAl@ 000000018003d000     libucrtd:output.obj
 0002:00004030       ??_C@_1HK@IIPGOADH@?$AA_?$AA_?$AAc?$AAr?$AAt?$AA_?$AAs?$AAt?$AAd?$AAi?$AAo?$AA_?$AAo?$AAu?$AAt@ 000000018003d030     libucrtd:output.obj
 0002:000040b0       ??_C@_1HE@IACOMEJF@?$AA_?$AA_?$AAc?$AAr?$AAt?$AA_?$AAs?$AAt?$AAd?$AAi?$AAo?$AA_?$AAo?$AAu?$AAt@ 000000018003d0b0     libucrtd:output.obj
 0002:00004130       ??_C@_1GC@BNMHNGKM@?$AA_?$AAs?$AAt?$AAa?$AAt?$AAe?$AA?5?$AA?$DN?$AA?$DN?$AA?5?$AAs?$AAt?$AAa?$AAt?$AAe@ 000000018003d130     libucrtd:output.obj
 0002:000041a0       ??_C@_1BEC@NDOOKIMC@?$AA_?$AA_?$AAc?$AAr?$AAt?$AA_?$AAs?$AAt?$AAd?$AAi?$AAo?$AA_?$AAo?$AAu?$AAt@ 000000018003d1a0     libucrtd:output.obj
 0002:000042f0       ??_C@_1EK@PNGFDECN@?$AA?$CI?$AA?$CC?$AA?8?$AAn?$AA?8?$AA?5?$AAf?$AAo?$AAr?$AAm?$AAa?$AAt?$AA?5?$AAs?$AAp@ 000000018003d2f0     libucrtd:output.obj
 0002:00004340       ??_C@_1EO@GHKFGFKL@?$AA?$CI?$AA?$CC?$AAI?$AAn?$AAv?$AAa?$AAl?$AAi?$AAd?$AA?5?$AAi?$AAn?$AAt?$AAe?$AAg@ 000000018003d340     libucrtd:output.obj
 0002:00004390       ??_C@_1BDG@KOLEFKPF@?$AA_?$AA_?$AAc?$AAr?$AAt?$AA_?$AAs?$AAt?$AAd?$AAi?$AAo?$AA_?$AAo?$AAu?$AAt@ 000000018003d390     libucrtd:output.obj
 0002:000044c8       ??_C@_1O@CEDCILHN@?$AA?$CI?$AAn?$AAu?$AAl?$AAl?$AA?$CJ@ 000000018003d4c8     libucrtd:output.obj
 0002:000044d8       ??_C@_06OJHGLDPL@?$CInull?$CJ@ 000000018003d4d8     libucrtd:output.obj
 0002:000044e0       ??_C@_1CK@LGDCECDH@?$AA_?$AAf?$AAo?$AAr?$AAm?$AAa?$AAt?$AA_?$AAc?$AAh?$AAa?$AAr?$AA?5?$AA?$CB?$AA?$DN@ 000000018003d4e0     libucrtd:output.obj
 0002:00004510       ??_C@_0DI@KIFBHMNO@minkernel?2crts?2ucrt?2inc?2corecrt@ 000000018003d510     libucrtd:output.obj
 0002:00004550       ??_C@_1BMK@JGIBNIA@?$AA_?$AA_?$AAc?$AAr?$AAt?$AA_?$AAs?$AAt?$AAd?$AAi?$AAo?$AA_?$AAo?$AAu?$AAt@ 000000018003d550     libucrtd:output.obj
 0002:00004720       ??_C@_1BLC@INKIGOCN@?$AA_?$AA_?$AAc?$AAr?$AAt?$AA_?$AAs?$AAt?$AAd?$AAi?$AAo?$AA_?$AAo?$AAu?$AAt@ 000000018003d720     libucrtd:output.obj
 0002:000048e0       ??_C@_1BNK@KHNJGCCP@?$AA_?$AA_?$AAc?$AAr?$AAt?$AA_?$AAs?$AAt?$AAd?$AAi?$AAo?$AA_?$AAo?$AAu?$AAt@ 000000018003d8e0     libucrtd:output.obj
 0002:00004ac0       ??_C@_1BNO@OHFFMOOJ@?$AA_?$AA_?$AAc?$AAr?$AAt?$AA_?$AAs?$AAt?$AAd?$AAi?$AAo?$AA_?$AAo?$AAu?$AAt@ 000000018003dac0     libucrtd:output.obj
 0002:00004ca0       ??_C@_1BMC@FAGJFBLI@?$AA_?$AA_?$AAc?$AAr?$AAt?$AA_?$AAs?$AAt?$AAd?$AAi?$AAo?$AA_?$AAo?$AAu?$AAt@ 000000018003dca0     libucrtd:output.obj
 0002:00004e70       ??_C@_1BMG@CGPDIFDK@?$AA_?$AA_?$AAc?$AAr?$AAt?$AA_?$AAs?$AAt?$AAd?$AAi?$AAo?$AA_?$AAo?$AAu?$AAt@ 000000018003de70     libucrtd:output.obj
 0002:00005040       ??_C@_1BNC@OHPDPPJK@?$AA_?$AA_?$AAc?$AAr?$AAt?$AA_?$AAs?$AAt?$AAd?$AAi?$AAo?$AA_?$AAo?$AAu?$AAt@ 000000018003e040     libucrtd:output.obj
 0002:00005220       ??_C@_1BLK@FOLFMPJH@?$AA_?$AA_?$AAc?$AAr?$AAt?$AA_?$AAs?$AAt?$AAd?$AAi?$AAo?$AA_?$AAo?$AAu?$AAt@ 000000018003e220     libucrtd:output.obj
 0002:000053e0       ??_C@_1BNO@NAODCKFA@?$AA_?$AA_?$AAc?$AAr?$AAt?$AA_?$AAs?$AAt?$AAd?$AAi?$AAo?$AA_?$AAo?$AAu?$AAt@ 000000018003e3e0     libucrtd:output.obj
 0002:000055c0       ??_C@_1BMG@BBEFGBID@?$AA_?$AA_?$AAc?$AAr?$AAt?$AA_?$AAs?$AAt?$AAd?$AAi?$AAo?$AA_?$AAo?$AAu?$AAt@ 000000018003e5c0     libucrtd:output.obj
 0002:00005790       ??_C@_1BNC@JPKLPOHO@?$AA_?$AA_?$AAc?$AAr?$AAt?$AA_?$AAs?$AAt?$AAd?$AAi?$AAo?$AA_?$AAo?$AAu?$AAt@ 000000018003e790     libucrtd:output.obj
 0002:00005970       ??_C@_1GE@DPGDJKLM@?$AAm?$AAi?$AAn?$AAk?$AAe?$AAr?$AAn?$AAe?$AAl?$AA?2?$AAc?$AAr?$AAt?$AAs?$AA?2@ 000000018003e970     libucrtd:atox.obj
 0002:000059e0       ??_C@_1EO@MLJCKPIB@?$AAb?$AAa?$AAs?$AAe?$AA?5?$AA?$DN?$AA?$DN?$AA?5?$AA0?$AA?5?$AA?$HM?$AA?$HM?$AA?5?$AA?$CI?$AA2@ 000000018003e9e0     libucrtd:atox.obj
 0002:00005a30       ??_C@_1DI@BANODKFL@?$AA_?$AA_?$AAc?$AAr?$AAt?$AA_?$AAs?$AAt?$AAr?$AAt?$AAo?$AAx?$AA?3?$AA?3?$AAp@ 000000018003ea30     libucrtd:atox.obj
 0002:00005a68       ??_C@_1CM@GJENOOEJ@?$AAc?$AA?5?$AA?$DN?$AA?$DN?$AA?5?$AA?8?$AA?2?$AA0?$AA?8?$AA?5?$AA?$HM?$AA?$HM?$AA?5?$AA?$CK?$AA_@ 000000018003ea68     libucrtd:atox.obj
 0002:00005aa0       ??_C@_1HA@CONLANFI@?$AA_?$AA_?$AAc?$AAr?$AAt?$AA_?$AAs?$AAt?$AAr?$AAt?$AAo?$AAx?$AA?3?$AA?3?$AAc@ 000000018003eaa0     libucrtd:atox.obj
 0002:00005b10       ??_C@_1BM@PNEBBBDO@?$AA_?$AAp?$AA?5?$AA?$CB?$AA?$DN?$AA?5?$AAn?$AAu?$AAl?$AAl?$AAp?$AAt?$AAr@ 000000018003eb10     libucrtd:atox.obj
 0002:00005b30       ??_C@_1HG@FCDBLOEG@?$AA_?$AA_?$AAc?$AAr?$AAt?$AA_?$AAs?$AAt?$AAr?$AAt?$AAo?$AAx?$AA?3?$AA?3?$AAc@ 000000018003eb30     libucrtd:atox.obj
 0002:00005bb0       ??_C@_1GK@MNHIDABG@?$AA_?$AA_?$AAc?$AAr?$AAt?$AA_?$AAs?$AAt?$AAr?$AAt?$AAo?$AAx?$AA?3?$AA?3?$AAc@ 000000018003ebb0     libucrtd:atox.obj
 0002:00005c20       ??_C@_1HA@MKKIHBHP@?$AA_?$AA_?$AAc?$AAr?$AAt?$AA_?$AAs?$AAt?$AAr?$AAt?$AAo?$AAx?$AA?3?$AA?3?$AAc@ 000000018003ec20     libucrtd:atox.obj
 0002:00005c90       ??_C@_0DM@DKIFNNOL@minkernel?2crts?2ucrt?2src?2appcrt?2@ 000000018003ec90     libucrtd:per_thread_data.obj
 0002:00005cd0       ??_C@_1GA@LFAOKOOP@?$AAm?$AAi?$AAn?$AAk?$AAe?$AAr?$AAn?$AAe?$AAl?$AA?2?$AAc?$AAr?$AAt?$AAs?$AA?2@ 000000018003ecd0     libucrtd:dbgrptt.obj
 0002:00005d30       ??_C@_1CA@KHJHLKA@?$AA_?$AAV?$AAC?$AAr?$AAt?$AAD?$AAb?$AAg?$AAR?$AAe?$AAp?$AAo?$AAr?$AAt?$AAA@ 000000018003ed30     libucrtd:dbgrptt.obj
 0002:00005d50       ??_C@_1FA@JPHJBHEM@?$AA_?$AAi?$AAt?$AAo?$AAa?$AA_?$AAs?$AA?$CI?$AAn?$AAL?$AAi?$AAn?$AAe?$AA?0?$AA?5@ 000000018003ed50     libucrtd:dbgrptt.obj
 0002:00005da0       ??_C@_0CG@BNGLOCEO@Second?5Chance?5Assertion?5Failed?3@ 000000018003eda0     libucrtd:dbgrptt.obj
 0002:00005dc8       ??_C@_0P@DFJNDPOP@?$DMfile?5unknown?$DO@ 000000018003edc8     libucrtd:dbgrptt.obj
 0002:00005dd8       ??_C@_07BHGABMGB@?0?5Line?5@ 000000018003edd8     libucrtd:dbgrptt.obj
 0002:00005de0       ??_C@_01EEMJAFIK@?6@       000000018003ede0     libucrtd:dbgrptt.obj
 0002:00005df0       ??_C@_1JI@GAALPGBM@?$AAs?$AAt?$AAr?$AAc?$AAp?$AAy?$AA_?$AAs?$AA?$CI?$AAs?$AAz?$AAU?$AAs?$AAe?$AAr@ 000000018003edf0     libucrtd:dbgrptt.obj
 0002:00005e88       ??_C@_0CL@EACFGMNB@_CrtDbgReport?3?5String?5too?5long?5@ 000000018003ee88     libucrtd:dbgrptt.obj
 0002:00005ec0       ??_C@_1KK@GIGAEDMO@?$AAs?$AAt?$AAr?$AAc?$AAp?$AAy?$AA_?$AAs?$AA?$CI?$AAs?$AAz?$AAL?$AAi?$AAn?$AAe@ 000000018003eec0     libucrtd:dbgrptt.obj
 0002:00005f70       ??_C@_0BD@CAENFOHP@Assertion?5failed?3?5@ 000000018003ef70     libucrtd:dbgrptt.obj
 0002:00005f88       ??_C@_0BC@LAIDCHCH@Assertion?5failed?$CB@ 000000018003ef88     libucrtd:dbgrptt.obj
 0002:00005fa0       ??_C@_1FK@NPGBPOFO@?$AAs?$AAt?$AAr?$AAc?$AAa?$AAt?$AA_?$AAs?$AA?$CI?$AAs?$AAz?$AAL?$AAi?$AAn?$AAe@ 000000018003efa0     libucrtd:dbgrptt.obj
 0002:00006000       ??_C@_1EI@CACDLAFK@?$AAs?$AAt?$AAr?$AAc?$AAa?$AAt?$AA_?$AAs?$AA?$CI?$AAs?$AAz?$AAL?$AAi?$AAn?$AAe@ 000000018003f000     libucrtd:dbgrptt.obj
 0002:00006048       ??_C@_01LIIJDEN@?$AN@      000000018003f048     libucrtd:dbgrptt.obj
 0002:00006050       ??_C@_1EI@LDHJEDO@?$AAs?$AAt?$AAr?$AAc?$AAa?$AAt?$AA_?$AAs?$AA?$CI?$AAs?$AAz?$AAL?$AAi?$AAn?$AAe@ 000000018003f050     libucrtd:dbgrptt.obj
 0002:00006098       ??_C@_0M@IPILFDFN@?$CFs?$CI?$CFd?$CJ?5?3?5?$CFs@ 000000018003f098     libucrtd:dbgrptt.obj
 0002:000060b0       ??_C@_1JG@CPKCIOEE@?$AAs?$AAt?$AAr?$AAc?$AAp?$AAy?$AA_?$AAs?$AA?$CI?$AAs?$AAz?$AAO?$AAu?$AAt?$AAM@ 000000018003f0b0     libucrtd:dbgrptt.obj
 0002:00006150       ??_C@_1FI@IBIOIHEG@?$AAs?$AAt?$AAr?$AAc?$AAp?$AAy?$AA_?$AAs?$AA?$CI?$AAs?$AAz?$AAO?$AAu?$AAt?$AAM@ 000000018003f150     libucrtd:dbgrptt.obj
 0002:000061b0       ??_C@_1IM@OOKIFKOH@?$AAe?$AA?5?$AA?$DN?$AA?5?$AAm?$AAb?$AAs?$AAt?$AAo?$AAw?$AAc?$AAs?$AA_?$AAs?$AA?$CI@ 000000018003f1b0     libucrtd:dbgrptt.obj
 0002:00006240       ??_C@_1MC@IGEECMDB@?$AAw?$AAc?$AAs?$AAc?$AAp?$AAy?$AA_?$AAs?$AA?$CI?$AAs?$AAz?$AAO?$AAu?$AAt?$AAM@ 000000018003f240     libucrtd:dbgrptt.obj
 0002:00006310       ??_C@_1HO@PJOFIKFE@?$AA_?$AAC?$AAr?$AAt?$AAD?$AAb?$AAg?$AAR?$AAe?$AAp?$AAo?$AAr?$AAt?$AA?3?$AA?5@ 000000018003f310     libucrtd:dbgrptt.obj
 0002:00006390       ??_C@_1CA@HPALHDOD@?$AA_?$AAV?$AAC?$AAr?$AAt?$AAD?$AAb?$AAg?$AAR?$AAe?$AAp?$AAo?$AAr?$AAt?$AAW@ 000000018003f390     libucrtd:dbgrptt.obj
 0002:000063b0       ??_C@_1FA@CNLLOMHI@?$AA_?$AAi?$AAt?$AAo?$AAw?$AA_?$AAs?$AA?$CI?$AAn?$AAL?$AAi?$AAn?$AAe?$AA?0?$AA?5@ 000000018003f3b0     libucrtd:dbgrptt.obj
 0002:00006400       ??_C@_1EM@MJFLEDMB@?$AAS?$AAe?$AAc?$AAo?$AAn?$AAd?$AA?5?$AAC?$AAh?$AAa?$AAn?$AAc?$AAe?$AA?5?$AAA@ 000000018003f400     libucrtd:dbgrptt.obj
 0002:00006450       ??_C@_1BO@OCHMLCAG@?$AA?$DM?$AAf?$AAi?$AAl?$AAe?$AA?5?$AAu?$AAn?$AAk?$AAn?$AAo?$AAw?$AAn?$AA?$DO@ 000000018003f450     libucrtd:dbgrptt.obj
 0002:00006470       ??_C@_1BA@ELMMDCFC@?$AA?0?$AA?5?$AAL?$AAi?$AAn?$AAe?$AA?5@ 000000018003f470     libucrtd:dbgrptt.obj
 0002:00006480       ??_C@_13LBAGMAIH@?$AA?6@   000000018003f480     libucrtd:dbgrptt.obj
 0002:00006490       ??_C@_1JK@KHFABAEO@?$AAw?$AAc?$AAs?$AAc?$AAp?$AAy?$AA_?$AAs?$AA?$CI?$AAs?$AAz?$AAU?$AAs?$AAe?$AAr@ 000000018003f490     libucrtd:dbgrptt.obj
 0002:00006530       ??_C@_1KO@DGAHENCH@?$AAw?$AAc?$AAs?$AAc?$AAp?$AAy?$AA_?$AAs?$AA?$CI?$AAs?$AAz?$AAL?$AAi?$AAn?$AAe@ 000000018003f530     libucrtd:dbgrptt.obj
 0002:000065e0       ??_C@_1CG@FFFGGODN@?$AAA?$AAs?$AAs?$AAe?$AAr?$AAt?$AAi?$AAo?$AAn?$AA?5?$AAf?$AAa?$AAi?$AAl?$AAe@ 000000018003f5e0     libucrtd:dbgrptt.obj
 0002:00006608       ??_C@_1CE@OJBNHDMO@?$AAA?$AAs?$AAs?$AAe?$AAr?$AAt?$AAi?$AAo?$AAn?$AA?5?$AAf?$AAa?$AAi?$AAl?$AAe@ 000000018003f608     libucrtd:dbgrptt.obj
 0002:00006630       ??_C@_1FK@HPADHBBD@?$AAw?$AAc?$AAs?$AAc?$AAa?$AAt?$AA_?$AAs?$AA?$CI?$AAs?$AAz?$AAL?$AAi?$AAn?$AAe@ 000000018003f630     libucrtd:dbgrptt.obj
 0002:00006690       ??_C@_1EK@NMDFGHMF@?$AAw?$AAc?$AAs?$AAc?$AAa?$AAt?$AA_?$AAs?$AA?$CI?$AAs?$AAz?$AAL?$AAi?$AAn?$AAe@ 000000018003f690     libucrtd:dbgrptt.obj
 0002:000066dc       ??_C@_13CMNBPIDO@?$AA?$AN@ 000000018003f6dc     libucrtd:dbgrptt.obj
 0002:000066e0       ??_C@_1EK@PHCBEDKB@?$AAw?$AAc?$AAs?$AAc?$AAa?$AAt?$AA_?$AAs?$AA?$CI?$AAs?$AAz?$AAL?$AAi?$AAn?$AAe@ 000000018003f6e0     libucrtd:dbgrptt.obj
 0002:00006730       ??_C@_1BM@GIBPMLNL@?$AA?$CF?$AAl?$AAs?$AA?$CI?$AA?$CF?$AAd?$AA?$CJ?$AA?5?$AA?3?$AA?5?$AA?$CF?$AAl?$AAs@ 000000018003f730     libucrtd:dbgrptt.obj
 0002:00006750       ??_C@_1JI@EACPGHID@?$AAw?$AAc?$AAs?$AAc?$AAp?$AAy?$AA_?$AAs?$AA?$CI?$AAs?$AAz?$AAO?$AAu?$AAt?$AAM@ 000000018003f750     libucrtd:dbgrptt.obj
 0002:000067f0       ??_C@_1FI@DBAIJPJE@?$AAw?$AAc?$AAs?$AAc?$AAp?$AAy?$AA_?$AAs?$AA?$CI?$AAs?$AAz?$AAO?$AAu?$AAt?$AAM@ 000000018003f7f0     libucrtd:dbgrptt.obj
 0002:00006850       ??_C@_1IK@LEBMBAP@?$AAw?$AAc?$AAs?$AAt?$AAo?$AAm?$AAb?$AAs?$AA_?$AAs?$AA?$CI?$AAn?$AAu?$AAl?$AAl@ 000000018003f850     libucrtd:dbgrptt.obj
 0002:000068e0       ??_C@_1MA@LBAMNNOB@?$AAs?$AAt?$AAr?$AAc?$AAp?$AAy?$AA_?$AAs?$AA?$CI?$AAs?$AAz?$AAO?$AAu?$AAt?$AAM@ 000000018003f8e0     libucrtd:dbgrptt.obj
 0002:000069a0       ??_C@_0DP@GNPEPHJD@_CrtDbgReport?3?5String?5too?5long?5@ 000000018003f9a0     libucrtd:dbgrptt.obj
 0002:000069e0       ??_C@_1IE@CPGKIAGP@?$AAw?$AAc?$AAs?$AAt?$AAo?$AAm?$AAb?$AAs?$AA_?$AAs?$AA?$CI?$AA?$CG?$AAr?$AAe?$AAt@ 000000018003f9e0     libucrtd:dbgrptt.obj
 0002:00006bd8       ??_C@_1CE@JMFACANE@?$AAr?$AAe?$AAs?$AAu?$AAl?$AAt?$AA?5?$AA?$CB?$AA?$DN?$AA?5?$AAn?$AAu?$AAl?$AAl?$AAp@ 000000018003fbd8     libucrtd:errno.obj
 0002:00006c28       ??_C@_1DA@NBILLKNO@?$AAl?$AAo?$AAc?$AAa?$AAl?$AA_?$AAa?$AAc?$AAt?$AAi?$AAo?$AAn?$AA?5?$AA?$CB?$AA?$DN@ 000000018003fc28     libucrtd:signal.obj
 0002:00006c60       ??_C@_1FO@CCGDPEKE@?$AAm?$AAi?$AAn?$AAk?$AAe?$AAr?$AAn?$AAe?$AAl?$AA?2?$AAc?$AAr?$AAt?$AAs?$AA?2@ 000000018003fc60     libucrtd:signal.obj
 0002:00006cc0       ??_C@_1M@DMJEIKHL@?$AAr?$AAa?$AAi?$AAs?$AAe@ 000000018003fcc0     libucrtd:signal.obj
 0002:00006cd0       ??_C@_1DO@MLNEDKGB@?$AA?$CI?$AA?$CC?$AAI?$AAn?$AAv?$AAa?$AAl?$AAi?$AAd?$AA?5?$AAs?$AAi?$AAg?$AAn?$AAa@ 000000018003fcd0     libucrtd:signal.obj
 0002:00006d10       ??_C@_1FO@NMANMHOD@?$AAc?$AAa?$AAc?$AAh?$AAe?$AAd?$AA_?$AAs?$AAt?$AAa?$AAt?$AAe?$AA?5?$AA?$DN?$AA?$DN@ 000000018003fd10     libucrtd:win_policies.obj
 0002:00006d70       ??_C@_1HC@GHLNKBJK@?$AAm?$AAi?$AAn?$AAk?$AAe?$AAr?$AAn?$AAe?$AAl?$AA?2?$AAc?$AAr?$AAt?$AAs?$AA?2@ 000000018003fd70     libucrtd:win_policies.obj
 0002:00006e10       ??_C@_0DI@DNFGFCIK@minkernel?2crts?2ucrt?2inc?2corecrt@ 000000018003fe10     libucrtd:argv_wildcards.obj
 0002:00006e50       ??_C@_1HE@CEMHPOHH@?$AAm?$AAi?$AAn?$AAk?$AAe?$AAr?$AAn?$AAe?$AAl?$AA?2?$AAc?$AAr?$AAt?$AAs?$AA?2@ 000000018003fe50     libucrtd:argv_wildcards.obj
 0002:00006ec8       ??_C@_1DK@IBFFOJGB@?$AAc?$AAo?$AAm?$AAm?$AAo?$AAn?$AA_?$AAe?$AAx?$AAp?$AAa?$AAn?$AAd?$AA_?$AAa@ 000000018003fec8     libucrtd:argv_wildcards.obj
 0002:00006f10       ??_C@_1MC@FLPKOFON@?$AAt?$AAr?$AAa?$AAi?$AAt?$AAs?$AA?3?$AA?3?$AAt?$AAc?$AAs?$AAn?$AAc?$AAp?$AAy@ 000000018003ff10     libucrtd:argv_wildcards.obj
 0002:00006fd8       ??_C@_0DK@FPFMIIJB@minkernel?2crts?2ucrt?2src?2appcrt?2@ 000000018003ffd8     libucrtd:argv_wildcards.obj
 0002:00007020       ??_C@_1EA@KOCCBLAD@?$AAc?$AAo?$AAp?$AAy?$AA_?$AAa?$AAn?$AAd?$AA_?$AAa?$AAd?$AAd?$AA_?$AAa?$AAr@ 0000000180040020     libucrtd:argv_wildcards.obj
 0002:00007060       ??_C@_1KM@GDJIGAGL@?$AAt?$AAr?$AAa?$AAi?$AAt?$AAs?$AA?3?$AA?3?$AAt?$AAc?$AAs?$AAn?$AAc?$AAp?$AAy@ 0000000180040060     libucrtd:argv_wildcards.obj
 0002:00007110       ??_C@_1PI@FGFLAGCC@?$AAt?$AAr?$AAa?$AAi?$AAt?$AAs?$AA?3?$AA?3?$AAt?$AAc?$AAs?$AAn?$AAc?$AAp?$AAy@ 0000000180040110     libucrtd:argv_wildcards.obj
 0002:00007228       ??_C@_1M@HPNHIDJI@?$AAj?$AAa?$AA?9?$AAJ?$AAP@ 0000000180040228     libucrtd:mbctype.obj
 0002:00007238       ??_C@_1M@BIBDDEMK@?$AAz?$AAh?$AA?9?$AAC?$AAN@ 0000000180040238     libucrtd:mbctype.obj
 0002:00007248       ??_C@_1M@JLOOOEGK@?$AAk?$AAo?$AA?9?$AAK?$AAR@ 0000000180040248     libucrtd:mbctype.obj
 0002:00007258       ??_C@_1M@CLNBBOPM@?$AAz?$AAh?$AA?9?$AAT?$AAW@ 0000000180040258     libucrtd:mbctype.obj
 0002:00007268       ??_C@_0DE@HGDKNBFD@minkernel?2crts?2ucrt?2src?2appcrt?2@ 0000000180040268     libucrtd:mbctype.obj
 0002:000072a0       ??_C@_0ED@BLPEHJAI@minkernel?2crts?2ucrt?2src?2desktop@ 00000001800402a0     libucrtd:get_environment_from_os.obj
 0002:00007390       ??_C@_1EA@JGEFHKEI@?$AAa?$AAp?$AAi?$AA?9?$AAm?$AAs?$AA?9?$AAw?$AAi?$AAn?$AA?9?$AAc?$AAo?$AAr?$AAe@ 0000000180040390     libucrtd:winapi_thunks.obj
 0002:000073d0       ??_C@_1DI@IJCEHOCB@?$AAa?$AAp?$AAi?$AA?9?$AAm?$AAs?$AA?9?$AAw?$AAi?$AAn?$AA?9?$AAc?$AAo?$AAr?$AAe@ 00000001800403d0     libucrtd:winapi_thunks.obj
 0002:00007410       ??_C@_1EI@MPIAOHOC@?$AAa?$AAp?$AAi?$AA?9?$AAm?$AAs?$AA?9?$AAw?$AAi?$AAn?$AA?9?$AAc?$AAo?$AAr?$AAe@ 0000000180040410     libucrtd:winapi_thunks.obj
 0002:00007460       ??_C@_1FK@FPHCKFIE@?$AAa?$AAp?$AAi?$AA?9?$AAm?$AAs?$AA?9?$AAw?$AAi?$AAn?$AA?9?$AAc?$AAo?$AAr?$AAe@ 0000000180040460     libucrtd:winapi_thunks.obj
 0002:000074c0       ??_C@_1EM@DILCGIIO@?$AAa?$AAp?$AAi?$AA?9?$AAm?$AAs?$AA?9?$AAw?$AAi?$AAn?$AA?9?$AAc?$AAo?$AAr?$AAe@ 00000001800404c0     libucrtd:winapi_thunks.obj
 0002:00007510       ??_C@_1DM@LNCGDDPN@?$AAa?$AAp?$AAi?$AA?9?$AAm?$AAs?$AA?9?$AAw?$AAi?$AAn?$AA?9?$AAc?$AAo?$AAr?$AAe@ 0000000180040510     libucrtd:winapi_thunks.obj
 0002:00007550       ??_C@_1DO@FPAPJEMD@?$AAa?$AAp?$AAi?$AA?9?$AAm?$AAs?$AA?9?$AAw?$AAi?$AAn?$AA?9?$AAc?$AAo?$AAr?$AAe@ 0000000180040550     libucrtd:winapi_thunks.obj
 0002:00007590       ??_C@_1DK@NDHNAHIO@?$AAa?$AAp?$AAi?$AA?9?$AAm?$AAs?$AA?9?$AAw?$AAi?$AAn?$AA?9?$AAc?$AAo?$AAr?$AAe@ 0000000180040590     libucrtd:winapi_thunks.obj
 0002:000075d0       ??_C@_1DM@KGHDGBCM@?$AAa?$AAp?$AAi?$AA?9?$AAm?$AAs?$AA?9?$AAw?$AAi?$AAn?$AA?9?$AAc?$AAo?$AAr?$AAe@ 00000001800405d0     libucrtd:winapi_thunks.obj
 0002:00007610       ??_C@_1EO@IJIOEFOH@?$AAa?$AAp?$AAi?$AA?9?$AAm?$AAs?$AA?9?$AAw?$AAi?$AAn?$AA?9?$AAr?$AAt?$AAc?$AAo@ 0000000180040610     libucrtd:winapi_thunks.obj
 0002:00007660       ??_C@_1FG@HHGEKANL@?$AAa?$AAp?$AAi?$AA?9?$AAm?$AAs?$AA?9?$AAw?$AAi?$AAn?$AA?9?$AAs?$AAe?$AAc?$AAu@ 0000000180040660     libucrtd:winapi_thunks.obj
 0002:000076c0       ??_C@_1EG@DBIOJECG@?$AAe?$AAx?$AAt?$AA?9?$AAm?$AAs?$AA?9?$AAw?$AAi?$AAn?$AA?9?$AAn?$AAt?$AAu?$AAs@ 00000001800406c0     libucrtd:winapi_thunks.obj
 0002:00007710       ??_C@_1EO@FIHMJCLF@?$AAe?$AAx?$AAt?$AA?9?$AAm?$AAs?$AA?9?$AAw?$AAi?$AAn?$AA?9?$AAn?$AAt?$AAu?$AAs@ 0000000180040710     libucrtd:winapi_thunks.obj
 0002:00007760       ??_C@_1BC@DNHGCMLG@?$AAa?$AAd?$AAv?$AAa?$AAp?$AAi?$AA3?$AA2@ 0000000180040760     libucrtd:winapi_thunks.obj
 0002:00007778       ??_C@_1M@OAIMIKLP@?$AAn?$AAt?$AAd?$AAl?$AAl@ 0000000180040778     libucrtd:winapi_thunks.obj
 0002:00007790       ??_C@_1EG@DPGNFKGC@?$AAa?$AAp?$AAi?$AA?9?$AAm?$AAs?$AA?9?$AAw?$AAi?$AAn?$AA?9?$AAa?$AAp?$AAp?$AAm@ 0000000180040790     libucrtd:winapi_thunks.obj
 0002:000077d8       ??_C@_1O@BCCLBEOE@?$AAu?$AAs?$AAe?$AAr?$AA3?$AA2@ 00000001800407d8     libucrtd:winapi_thunks.obj
 0002:000077e8       ??_C@_1BA@IAIFMGEF@?$AAe?$AAx?$AAt?$AA?9?$AAm?$AAs?$AA?9@ 00000001800407e8     libucrtd:winapi_thunks.obj
 0002:00007800       ??_C@_1HE@OILMBOBA@?$AAm?$AAi?$AAn?$AAk?$AAe?$AAr?$AAn?$AAe?$AAl?$AA?2?$AAc?$AAr?$AAt?$AAs?$AA?2@ 0000000180040800     libucrtd:winapi_thunks.obj
 0002:00007878       ??_C@_0BA@FHFNEAED@AreFileApisANSI@ 0000000180040878     libucrtd:winapi_thunks.obj
 0002:000078b0       ??_C@_0BA@HNOPNCHB@GetActiveWindow@ 00000001800408b0     libucrtd:winapi_thunks.obj
 0002:000078c8       ??_C@_0BD@HHGDFDBJ@GetLastActivePopup@ 00000001800408c8     libucrtd:winapi_thunks.obj
 0002:000078e8       ??_C@_0BI@DFKBFLJE@GetProcessWindowStation@ 00000001800408e8     libucrtd:winapi_thunks.obj
 0002:00007908       ??_C@_0BK@DEKFELLI@GetUserObjectInformationW@ 0000000180040908     libucrtd:winapi_thunks.obj
 0002:00007940       ??_C@_0BB@HBDEELFH@LocaleNameToLCID@ 0000000180040940     libucrtd:winapi_thunks.obj
 0002:00007960       ??_C@_0M@CHKKJDAI@MessageBoxA@ 0000000180040960     libucrtd:winapi_thunks.obj
 0002:00007978       ??_C@_0M@DLDCCGNP@MessageBoxW@ 0000000180040978     libucrtd:winapi_thunks.obj
 0002:00007988       ??_C@_0CF@OJOFEIGO@AppPolicyGetProcessTerminationM@ 0000000180040988     libucrtd:winapi_thunks.obj
 0002:000079b8       ??_C@_0CE@OICFMIKE@AppPolicyGetShowDeveloperDiagno@ 00000001800409b8     libucrtd:winapi_thunks.obj
 0002:000079e0       ??_C@_0BL@ODDJNEDA@AppPolicyGetWindowingModel@ 00000001800409e0     libucrtd:winapi_thunks.obj
 0002:00007a00       __lc_time_c                0000000180040a00     libucrtd:nlsdata.obj
 0002:00007cc0       ??_C@_03KOEHGMDN@Sun@      0000000180040cc0     libucrtd:nlsdata.obj
 0002:00007cc4       ??_C@_03PDAGKDH@Mon@       0000000180040cc4     libucrtd:nlsdata.obj
 0002:00007cc8       ??_C@_03NAGEINEP@Tue@      0000000180040cc8     libucrtd:nlsdata.obj
 0002:00007ccc       ??_C@_03MHOMLAJA@Wed@      0000000180040ccc     libucrtd:nlsdata.obj
 0002:00007cd0       ??_C@_03IOFIKPDN@Thu@      0000000180040cd0     libucrtd:nlsdata.obj
 0002:00007cd4       ??_C@_03IDIOELNC@Fri@      0000000180040cd4     libucrtd:nlsdata.obj
 0002:00007cd8       ??_C@_03FEFJNEK@Sat@       0000000180040cd8     libucrtd:nlsdata.obj
 0002:00007cdc       ??_C@_06OOPIFAJ@Sunday@    0000000180040cdc     libucrtd:nlsdata.obj
 0002:00007ce4       ??_C@_06JLEDEDGH@Monday@   0000000180040ce4     libucrtd:nlsdata.obj
 0002:00007cf0       ??_C@_07BAAGCFCM@Tuesday@  0000000180040cf0     libucrtd:nlsdata.obj
 0002:00007cf8       ??_C@_09DLIGFAKA@Wednesday@ 0000000180040cf8     libucrtd:nlsdata.obj
 0002:00007d08       ??_C@_08HACCIKIA@Thursday@ 0000000180040d08     libucrtd:nlsdata.obj
 0002:00007d14       ??_C@_06JECMNKMI@Friday@   0000000180040d14     libucrtd:nlsdata.obj
 0002:00007d20       ??_C@_08INBOOONO@Saturday@ 0000000180040d20     libucrtd:nlsdata.obj
 0002:00007d2c       ??_C@_03JIHJHPIE@Jan@      0000000180040d2c     libucrtd:nlsdata.obj
 0002:00007d30       ??_C@_03HJBDCHOM@Feb@      0000000180040d30     libucrtd:nlsdata.obj
 0002:00007d34       ??_C@_03ODNJBKGA@Mar@      0000000180040d34     libucrtd:nlsdata.obj
 0002:00007d38       ??_C@_03LEOLGMJP@Apr@      0000000180040d38     libucrtd:nlsdata.obj
 0002:00007d3c       ??_C@_03CNMDKL@May@        0000000180040d3c     libucrtd:nlsdata.obj
 0002:00007d40       ??_C@_03IDFGHECI@Jun@      0000000180040d40     libucrtd:nlsdata.obj
 0002:00007d44       ??_C@_03LBGABGKK@Jul@      0000000180040d44     libucrtd:nlsdata.obj
 0002:00007d48       ??_C@_03IFJFEIGA@Aug@      0000000180040d48     libucrtd:nlsdata.obj
 0002:00007d4c       ??_C@_03GGCAPAJC@Sep@      0000000180040d4c     libucrtd:nlsdata.obj
 0002:00007d50       ??_C@_03BMAOKBAD@Oct@      0000000180040d50     libucrtd:nlsdata.obj
 0002:00007d54       ??_C@_03JPJOFNIA@Nov@      0000000180040d54     libucrtd:nlsdata.obj
 0002:00007d58       ??_C@_03MKABNOCG@Dec@      0000000180040d58     libucrtd:nlsdata.obj
 0002:00007d60       ??_C@_07CGJPFGJA@January@  0000000180040d60     libucrtd:nlsdata.obj
 0002:00007d68       ??_C@_08GNJGEPFN@February@ 0000000180040d68     libucrtd:nlsdata.obj
 0002:00007d74       ??_C@_05HPCKOFNC@March@    0000000180040d74     libucrtd:nlsdata.obj
 0002:00007d7c       ??_C@_05DMJDNLEJ@April@    0000000180040d7c     libucrtd:nlsdata.obj
 0002:00007d84       ??_C@_04CNLMGBGM@June@     0000000180040d84     libucrtd:nlsdata.obj
 0002:00007d8c       ??_C@_04MIEPOIFP@July@     0000000180040d8c     libucrtd:nlsdata.obj
 0002:00007d94       ??_C@_06LBBHFDDG@August@   0000000180040d94     libucrtd:nlsdata.obj
 0002:00007da0       ??_C@_09BHHEALKD@September@ 0000000180040da0     libucrtd:nlsdata.obj
 0002:00007db0       ??_C@_07JJNFCEND@October@  0000000180040db0     libucrtd:nlsdata.obj
 0002:00007db8       ??_C@_08HCHEGEOA@November@ 0000000180040db8     libucrtd:nlsdata.obj
 0002:00007dc8       ??_C@_08EDHMEBNP@December@ 0000000180040dc8     libucrtd:nlsdata.obj
 0002:00007dd4       ??_C@_02DEDBPAFC@AM@       0000000180040dd4     libucrtd:nlsdata.obj
 0002:00007dd8       ??_C@_02CJNFDJBF@PM@       0000000180040dd8     libucrtd:nlsdata.obj
 0002:00007de0       ??_C@_08BPBNCDIB@MM?1dd?1yy@ 0000000180040de0     libucrtd:nlsdata.obj
 0002:00007df0       ??_C@_0BE@CKGJFCPC@dddd?0?5MMMM?5dd?0?5yyyy@ 0000000180040df0     libucrtd:nlsdata.obj
 0002:00007e08       ??_C@_08JCCMCCIL@HH?3mm?3ss@ 0000000180040e08     libucrtd:nlsdata.obj
 0002:00007e18       ??_C@_17MBGCMIPB@?$AAS?$AAu?$AAn@ 0000000180040e18     libucrtd:nlsdata.obj
 0002:00007e20       ??_C@_17KBOMKBF@?$AAM?$AAo?$AAn@ 0000000180040e20     libucrtd:nlsdata.obj
 0002:00007e28       ??_C@_17BMKGEGOJ@?$AAT?$AAu?$AAe@ 0000000180040e28     libucrtd:nlsdata.obj
 0002:00007e30       ??_C@_17CJEDCEPE@?$AAW?$AAe?$AAd@ 0000000180040e30     libucrtd:nlsdata.obj
 0002:00007e38       ??_C@_17PDPHAADD@?$AAT?$AAh?$AAu@ 0000000180040e38     libucrtd:nlsdata.obj
 0002:00007e40       ??_C@_17HFOLPPLP@?$AAF?$AAr?$AAi@ 0000000180040e40     libucrtd:nlsdata.obj
 0002:00007e48       ??_C@_17GGIBDPIH@?$AAS?$AAa?$AAt@ 0000000180040e48     libucrtd:nlsdata.obj
 0002:00007e50       ??_C@_1O@IHNHDHPB@?$AAS?$AAu?$AAn?$AAd?$AAa?$AAy@ 0000000180040e50     libucrtd:nlsdata.obj
 0002:00007e60       ??_C@_1O@MMNBFLIA@?$AAM?$AAo?$AAn?$AAd?$AAa?$AAy@ 0000000180040e60     libucrtd:nlsdata.obj
 0002:00007e70       ??_C@_1BA@ENFBFFEK@?$AAT?$AAu?$AAe?$AAs?$AAd?$AAa?$AAy@ 0000000180040e70     libucrtd:nlsdata.obj
 0002:00007e80       ??_C@_1BE@EBOGMDOH@?$AAW?$AAe?$AAd?$AAn?$AAe?$AAs?$AAd?$AAa?$AAy@ 0000000180040e80     libucrtd:nlsdata.obj
 0002:00007e98       ??_C@_1BC@HHMNLIHE@?$AAT?$AAh?$AAu?$AAr?$AAs?$AAd?$AAa?$AAy@ 0000000180040e98     libucrtd:nlsdata.obj
 0002:00007eb0       ??_C@_1O@PDICJHAG@?$AAF?$AAr?$AAi?$AAd?$AAa?$AAy@ 0000000180040eb0     libucrtd:nlsdata.obj
 0002:00007ec0       ??_C@_1BC@ENMNNPAJ@?$AAS?$AAa?$AAt?$AAu?$AAr?$AAd?$AAa?$AAy@ 0000000180040ec0     libucrtd:nlsdata.obj
 0002:00007ed8       ??_C@_17DKNBKCHM@?$AAJ?$AAa?$AAn@ 0000000180040ed8     libucrtd:nlsdata.obj
 0002:00007ee0       ??_C@_17LMDJEKJN@?$AAF?$AAe?$AAb@ 0000000180040ee0     libucrtd:nlsdata.obj
 0002:00007ee8       ??_C@_17CKNLEDEC@?$AAM?$AAa?$AAr@ 0000000180040ee8     libucrtd:nlsdata.obj
 0002:00007ef0       ??_C@_17LFPOIHDD@?$AAA?$AAp?$AAr@ 0000000180040ef0     libucrtd:nlsdata.obj
 0002:00007ef8       ??_C@_17PNNKMEED@?$AAM?$AAa?$AAy@ 0000000180040ef8     libucrtd:nlsdata.obj
 0002:00007f00       ??_C@_17KCJGOCPB@?$AAJ?$AAu?$AAn@ 0000000180040f00     libucrtd:nlsdata.obj
 0002:00007f08       ??_C@_17IJPCKHK@?$AAJ?$AAu?$AAl@ 0000000180040f08     libucrtd:nlsdata.obj
 0002:00007f10       ??_C@_17ICPELBCN@?$AAA?$AAu?$AAg@ 0000000180040f10     libucrtd:nlsdata.obj
 0002:00007f18       ??_C@_17HCHCOKMG@?$AAS?$AAe?$AAp@ 0000000180040f18     libucrtd:nlsdata.obj
 0002:00007f20       ??_C@_17FNLKOI@?$AAO?$AAc?$AAt@ 0000000180040f20     libucrtd:nlsdata.obj
 0002:00007f28       ??_C@_17BBDMLCIG@?$AAN?$AAo?$AAv@ 0000000180040f28     libucrtd:nlsdata.obj
 0002:00007f30       ??_C@_17EGKACKIF@?$AAD?$AAe?$AAc@ 0000000180040f30     libucrtd:nlsdata.obj
 0002:00007f38       ??_C@_1BA@EFMEIEBA@?$AAJ?$AAa?$AAn?$AAu?$AAa?$AAr?$AAy@ 0000000180040f38     libucrtd:nlsdata.obj
 0002:00007f48       ??_C@_1BC@JGDDFFAM@?$AAF?$AAe?$AAb?$AAr?$AAu?$AAa?$AAr?$AAy@ 0000000180040f48     libucrtd:nlsdata.obj
 0002:00007f60       ??_C@_1M@IKEENEDF@?$AAM?$AAa?$AAr?$AAc?$AAh@ 0000000180040f60     libucrtd:nlsdata.obj
 0002:00007f70       ??_C@_1M@GJNLMHFD@?$AAA?$AAp?$AAr?$AAi?$AAl@ 0000000180040f70     libucrtd:nlsdata.obj
 0002:00007f80       ??_C@_19EPFLPGAP@?$AAJ?$AAu?$AAn?$AAe@ 0000000180040f80     libucrtd:nlsdata.obj
 0002:00007f90       ??_C@_19BIFMLPCD@?$AAJ?$AAu?$AAl?$AAy@ 0000000180040f90     libucrtd:nlsdata.obj
 0002:00007fa0       ??_C@_1O@PAHLKOAC@?$AAA?$AAu?$AAg?$AAu?$AAs?$AAt@ 0000000180040fa0     libucrtd:nlsdata.obj
 0002:00007fb0       ??_C@_1BE@DKAAMBJL@?$AAS?$AAe?$AAp?$AAt?$AAe?$AAm?$AAb?$AAe?$AAr@ 0000000180040fb0     libucrtd:nlsdata.obj
 0002:00007fc8       ??_C@_1BA@EPANDLNG@?$AAO?$AAc?$AAt?$AAo?$AAb?$AAe?$AAr@ 0000000180040fc8     libucrtd:nlsdata.obj
 0002:00007fd8       ??_C@_1BC@BGLIFPF@?$AAN?$AAo?$AAv?$AAe?$AAm?$AAb?$AAe?$AAr@ 0000000180040fd8     libucrtd:nlsdata.obj
 0002:00007ff0       ??_C@_1BC@FEMKIFH@?$AAD?$AAe?$AAc?$AAe?$AAm?$AAb?$AAe?$AAr@ 0000000180040ff0     libucrtd:nlsdata.obj
 0002:00008004       ??_C@_15ODEHAHHF@?$AAA?$AAM@ 0000000180041004     libucrtd:nlsdata.obj
 0002:0000800c       ??_C@_15CLMNNGEL@?$AAP?$AAM@ 000000018004100c     libucrtd:nlsdata.obj
 0002:00008018       ??_C@_1BC@IEBCMHCM@?$AAM?$AAM?$AA?1?$AAd?$AAd?$AA?1?$AAy?$AAy@ 0000000180041018     libucrtd:nlsdata.obj
 0002:00008030       ??_C@_1CI@KNAKOEBC@?$AAd?$AAd?$AAd?$AAd?$AA?0?$AA?5?$AAM?$AAM?$AAM?$AAM?$AA?5?$AAd?$AAd?$AA?0?$AA?5@ 0000000180041030     libucrtd:nlsdata.obj
 0002:00008058       ??_C@_1BC@GDGBMEMK@?$AAH?$AAH?$AA?3?$AAm?$AAm?$AA?3?$AAs?$AAs@ 0000000180041058     libucrtd:nlsdata.obj
 0002:00008070       ??_C@_1M@BMHNFIME@?$AAe?$AAn?$AA?9?$AAU?$AAS@ 0000000180041070     libucrtd:nlsdata.obj
 0002:00008080       ??_C@_1DC@OGOLMDEL@?$AAp?$AAu?$AAb?$AAl?$AAi?$AAc?$AA_?$AAs?$AAt?$AAr?$AAe?$AAa?$AAm?$AA?5?$AA?$CB@ 0000000180041080     libucrtd:_sftbuf.obj
 0002:000080b8       ??_C@_1CI@JELMFMDH@?$AAc?$AA?5?$AA?$DO?$AA?$DN?$AA?5?$AA?9?$AA1?$AA?5?$AA?$CG?$AA?$CG?$AA?5?$AAc?$AA?5?$AA?$DM?$AA?$DN@ 00000001800410b8     libucrtd:isctype.obj
 0002:000080e0       ??_C@_1GG@KPBGDFHJ@?$AAm?$AAi?$AAn?$AAk?$AAe?$AAr?$AAn?$AAe?$AAl?$AA?2?$AAc?$AAr?$AAt?$AAs?$AA?2@ 00000001800410e0     libucrtd:isctype.obj
 0002:00008150       ??_C@_1FO@GEKPJHID@?$AAm?$AAi?$AAn?$AAk?$AAe?$AAr?$AAn?$AAe?$AAl?$AA?2?$AAc?$AAr?$AAt?$AAs?$AA?2@ 0000000180041150     libucrtd:expand.obj
 0002:000081b0       ??_C@_1BK@JMCGJOCC@?$AA_?$AAe?$AAx?$AAp?$AAa?$AAn?$AAd?$AA_?$AAb?$AAa?$AAs?$AAe@ 00000001800411b0     libucrtd:expand.obj
 0002:000081d0       ??_C@_1IC@DCNEKBE@?$AAm?$AAi?$AAn?$AAk?$AAe?$AAr?$AAn?$AAe?$AAl?$AA?2?$AAc?$AAr?$AAt?$AAs?$AA?2@ 00000001800411d0     libucrtd:report_runtime_error.obj
 0002:00008258       ??_C@_1DI@BLFJHKKP@?$AA_?$AA_?$AAa?$AAc?$AAr?$AAt?$AA_?$AAr?$AAe?$AAp?$AAo?$AAr?$AAt?$AA_?$AAr@ 0000000180041258     libucrtd:report_runtime_error.obj
 0002:00008290       ??_C@_1LE@MHPGJGKE@?$AAw?$AAc?$AAs?$AAc?$AAp?$AAy?$AA_?$AAs?$AA?$CI?$AAo?$AAu?$AAt?$AAm?$AAs?$AAg@ 0000000180041290     libucrtd:report_runtime_error.obj
 0002:00008348       ??_C@_1DE@JNGNBFGO@?$AAR?$AAu?$AAn?$AAt?$AAi?$AAm?$AAe?$AA?5?$AAE?$AAr?$AAr?$AAo?$AAr?$AA?$CB?$AA?6@ 0000000180041348     libucrtd:report_runtime_error.obj
 0002:00008380       ??_C@_1HK@FJJNAABO@?$AAw?$AAc?$AAs?$AAc?$AAp?$AAy?$AA_?$AAs?$AA?$CI?$AAp?$AAr?$AAo?$AAg?$AAn?$AAa@ 0000000180041380     libucrtd:report_runtime_error.obj
 0002:00008400       ??_C@_1HI@FLHKGEBE@?$AAw?$AAc?$AAs?$AAn?$AAc?$AAp?$AAy?$AA_?$AAs?$AA?$CI?$AAp?$AAc?$AAh?$AA?0?$AA?5@ 0000000180041400     libucrtd:report_runtime_error.obj
 0002:00008480       ??_C@_1IG@MNNKBLBI@?$AAw?$AAc?$AAs?$AAc?$AAa?$AAt?$AA_?$AAs?$AA?$CI?$AAo?$AAu?$AAt?$AAm?$AAs?$AAg@ 0000000180041480     libucrtd:report_runtime_error.obj
 0002:00008510       ??_C@_1IG@DFBBBDAN@?$AAw?$AAc?$AAs?$AAc?$AAa?$AAt?$AA_?$AAs?$AA?$CI?$AAo?$AAu?$AAt?$AAm?$AAs?$AAg@ 0000000180041510     libucrtd:report_runtime_error.obj
 0002:000085a0       ??_C@_1BBC@DECGKMGJ@?$AA_?$AAl?$AAo?$AAc?$AA_?$AAu?$AAp?$AAd?$AAa?$AAt?$AAe?$AA?4?$AAG?$AAe?$AAt@ 00000001800415a0     libucrtd:mbtowc.obj
 0002:000086c0       ??_C@_1GE@CGIHMDEJ@?$AAm?$AAi?$AAn?$AAk?$AAe?$AAr?$AAn?$AAe?$AAl?$AA?2?$AAc?$AAr?$AAt?$AAs?$AA?2@ 00000001800416c0     libucrtd:mbtowc.obj
 0002:00008730       ??_C@_1HA@KNBGJAIN@?$AAU?$AAT?$AAF?$AA?9?$AA8?$AA?5?$AAi?$AAs?$AAn?$AA?8?$AAt?$AA?5?$AAs?$AAu?$AAp@ 0000000180041730     libucrtd:mbtowc.obj
 0002:000087a0       ??_C@_1BBA@EIIJPPL@?$AA_?$AAl?$AAo?$AAc?$AA_?$AAu?$AAp?$AAd?$AAa?$AAt?$AAe?$AA?4?$AAG?$AAe?$AAt@ 00000001800417a0     libucrtd:mbtowc.obj
 0002:000088b0       ??_C@_1IE@CDCHDACI@?$AA_?$AAl?$AAo?$AAc?$AA_?$AAu?$AAp?$AAd?$AAa?$AAt?$AAe?$AA?4?$AAG?$AAe?$AAt@ 00000001800418b0     libucrtd:mbtowc.obj
 0002:00008938       ??_C@_1DK@NBNOAGKB@?$AAd?$AAe?$AAs?$AAt?$AAi?$AAn?$AAa?$AAt?$AAi?$AAo?$AAn?$AA_?$AAc?$AAo?$AAu@ 0000000180041938     libucrtd:wctomb.obj
 0002:00008980       ??_C@_1GE@FCCEPHFG@?$AAm?$AAi?$AAn?$AAk?$AAe?$AAr?$AAn?$AAe?$AAl?$AA?2?$AAc?$AAr?$AAt?$AAs?$AA?2@ 0000000180041980     libucrtd:wctomb.obj
 0002:000089e8       ??_C@_1BI@IEADNOHF@?$AA_?$AAw?$AAc?$AAt?$AAo?$AAm?$AAb?$AA_?$AAs?$AA_?$AAl@ 00000001800419e8     libucrtd:wctomb.obj
 0002:00008a00       ??_C@_1CM@ENFEGCNE@?$AAd?$AAe?$AAs?$AAt?$AAi?$AAn?$AAa?$AAt?$AAi?$AAo?$AAn?$AA_?$AAc?$AAo?$AAu@ 0000000180041a00     libucrtd:wctomb.obj
 0002:00008ae0       ??_C@_03OEIAHPBN@INF@      0000000180041ae0     libucrtd:cvt.obj
 0002:00008ae4       ??_C@_03OJHLLCGB@inf@      0000000180041ae4     libucrtd:cvt.obj
 0002:00008ae8       ??_C@_03LKNCIKJB@NAN@      0000000180041ae8     libucrtd:cvt.obj
 0002:00008aec       ??_C@_03LHCJEHON@nan@      0000000180041aec     libucrtd:cvt.obj
 0002:00008af0       ??_C@_09OFJJIMPC@NAN?$CISNAN?$CJ@ 0000000180041af0     libucrtd:cvt.obj
 0002:00008b00       ??_C@_09IPFBKMDL@nan?$CIsnan?$CJ@ 0000000180041b00     libucrtd:cvt.obj
 0002:00008b10       ??_C@_08IKHNHAJ@NAN?$CIIND?$CJ@ 0000000180041b10     libucrtd:cvt.obj
 0002:00008b20       ??_C@_08OFCDMILK@nan?$CIind?$CJ@ 0000000180041b20     libucrtd:cvt.obj
 0002:00008b30       ??_C@_1FO@GKAKAPLI@?$AAm?$AAi?$AAn?$AAk?$AAe?$AAr?$AAn?$AAe?$AAl?$AA?2?$AAc?$AAr?$AAt?$AAs?$AA?2@ 0000000180041b30     libucrtd:cvt.obj
 0002:00008b90       ??_C@_1DE@EHGIGIDK@?$AAf?$AAp?$AA_?$AAf?$AAo?$AAr?$AAm?$AAa?$AAt?$AA_?$AAn?$AAa?$AAn?$AA_?$AAo@ 0000000180041b90     libucrtd:cvt.obj
 0002:00008bd0       ??_C@_1LI@PCMLJPCO@?$AAs?$AAt?$AAr?$AAc?$AAp?$AAy?$AA_?$AAs?$AA?$CI?$AA?5?$AAr?$AAe?$AAs?$AAu?$AAl@ 0000000180041bd0     libucrtd:cvt.obj
 0002:00008c90       ??_C@_1KO@LJHOFBCD@?$AAr?$AAe?$AAs?$AAu?$AAl?$AAt?$AA_?$AAb?$AAu?$AAf?$AAf?$AAe?$AAr?$AA_?$AAc@ 0000000180041c90     libucrtd:cvt.obj
 0002:00008d40       ??_C@_1CK@BOLHOMFO@?$AAf?$AAp?$AA_?$AAf?$AAo?$AAr?$AAm?$AAa?$AAt?$AA_?$AAe?$AA_?$AAi?$AAn?$AAt@ 0000000180041d40     libucrtd:cvt.obj
 0002:00008d70       ??_C@_1BBE@LHDOMEDC@?$AAs?$AAt?$AAr?$AAc?$AAp?$AAy?$AA_?$AAs?$AA?$CI?$AA?5?$AAp?$AA?0?$AA?5?$AAr?$AAe@ 0000000180041d70     libucrtd:cvt.obj
 0002:00008e84       ??_C@_05KLBDPFGC@e?$CL000@ 0000000180041e84     libucrtd:cvt.obj
 0002:00008e90       ??_C@_1IC@FILKPBAB@?$AAr?$AAe?$AAs?$AAu?$AAl?$AAt?$AA_?$AAb?$AAu?$AAf?$AAf?$AAe?$AAr?$AA_?$AAc@ 0000000180041e90     libucrtd:cvt.obj
 0002:00008f18       ??_C@_1BI@PNBDLNBB@?$AAf?$AAp?$AA_?$AAf?$AAo?$AAr?$AAm?$AAa?$AAt?$AA_?$AAa@ 0000000180041f18     libucrtd:cvt.obj
 0002:00008f30       ??_C@_1DC@MGKAFPFD@?$AAr?$AAe?$AAs?$AAu?$AAl?$AAt?$AA_?$AAb?$AAu?$AAf?$AAf?$AAe?$AAr?$AA?5?$AA?$CB@ 0000000180041f30     libucrtd:cvt.obj
 0002:00008f68       ??_C@_1CC@LDAHJAKK@?$AA_?$AA_?$AAa?$AAc?$AAr?$AAt?$AA_?$AAf?$AAp?$AA_?$AAf?$AAo?$AAr?$AAm?$AAa@ 0000000180041f68     libucrtd:cvt.obj
 0002:00008f90       ??_C@_1DA@NMLJJOCO@?$AAr?$AAe?$AAs?$AAu?$AAl?$AAt?$AA_?$AAb?$AAu?$AAf?$AAf?$AAe?$AAr?$AA_?$AAc@ 0000000180041f90     libucrtd:cvt.obj
 0002:00008fc0       ??_C@_1DE@MNOPBCOK@?$AAs?$AAc?$AAr?$AAa?$AAt?$AAc?$AAh?$AA_?$AAb?$AAu?$AAf?$AAf?$AAe?$AAr?$AA?5@ 0000000180041fc0     libucrtd:cvt.obj
 0002:00008ff8       ??_C@_1DC@CKBKNFKH@?$AAs?$AAc?$AAr?$AAa?$AAt?$AAc?$AAh?$AA_?$AAb?$AAu?$AAf?$AAf?$AAe?$AAr?$AA_@ 0000000180041ff8     libucrtd:cvt.obj
 0002:00009030       ??_C@_1EI@JAHBOGIM@?$AA?$CI?$AA?$CC?$AAU?$AAn?$AAs?$AAu?$AAp?$AAp?$AAo?$AAr?$AAt?$AAe?$AAd?$AA?5?$AAf@ 0000000180042030     libucrtd:cvt.obj
 0002:00009078       ??_C@_1BO@MHPFFFJJ@?$AAs?$AAt?$AAr?$AAe?$AAa?$AAm?$AA?4?$AAv?$AAa?$AAl?$AAi?$AAd?$AA?$CI?$AA?$CJ@ 0000000180042078     libucrtd:fileno.obj
 0002:000090a0       ??_C@_1GA@KCAHHNGP@?$AAm?$AAi?$AAn?$AAk?$AAe?$AAr?$AAn?$AAe?$AAl?$AA?2?$AAc?$AAr?$AAt?$AAs?$AA?2@ 00000001800420a0     libucrtd:fileno.obj
 0002:00009100       ??_C@_1BA@JGHIEKKM@?$AA_?$AAf?$AAi?$AAl?$AAe?$AAn?$AAo@ 0000000180042100     libucrtd:fileno.obj
 0002:00009110       ??_C@_0CP@GDJHIDC@minkernel?2crts?2ucrt?2src?2appcrt?2@ 0000000180042110     libucrtd:_file.obj
 0002:00009140       ??_C@_1BKC@NBNHJIDM@?$AA?$CI?$AAp?$AAt?$AAl?$AAo?$AAc?$AAi?$AA?9?$AA?$DO?$AAl?$AAc?$AA_?$AAc?$AAa?$AAt@ 0000000180042140     libucrtd:locale_refcounting.obj
 0002:000092f0       ??_C@_1HK@HCNMEOLA@?$AAm?$AAi?$AAn?$AAk?$AAe?$AAr?$AAn?$AAe?$AAl?$AA?2?$AAc?$AAr?$AAt?$AAs?$AA?2@ 00000001800422f0     libucrtd:locale_refcounting.obj
 0002:00009370       ??_C@_1CE@MCCHPLBM@?$AAb?$AAu?$AAf?$AAf?$AAe?$AAr?$AA?5?$AA?$CB?$AA?$DN?$AA?5?$AAn?$AAu?$AAl?$AAl?$AAp@ 0000000180042370     libucrtd:xtoa.obj
 0002:000093a0       ??_C@_1GA@HBEFGMHK@?$AAm?$AAi?$AAn?$AAk?$AAe?$AAr?$AAn?$AAe?$AAl?$AA?2?$AAc?$AAr?$AAt?$AAs?$AA?2@ 00000001800423a0     libucrtd:xtoa.obj
 0002:00009400       ??_C@_1BM@HMPEMLNP@?$AAc?$AAo?$AAm?$AAm?$AAo?$AAn?$AA_?$AAx?$AAt?$AAo?$AAx?$AA_?$AAs@ 0000000180042400     libucrtd:xtoa.obj
 0002:00009420       ??_C@_1CC@ONIJBMJF@?$AAb?$AAu?$AAf?$AAf?$AAe?$AAr?$AA_?$AAc?$AAo?$AAu?$AAn?$AAt?$AA?5?$AA?$DO?$AA?5@ 0000000180042420     libucrtd:xtoa.obj
 0002:00009450       ??_C@_1HA@JFIOFNKD@?$AAb?$AAu?$AAf?$AAf?$AAe?$AAr?$AA_?$AAc?$AAo?$AAu?$AAn?$AAt?$AA?5?$AA?$DO?$AA?5@ 0000000180042450     libucrtd:xtoa.obj
 0002:000094c0       ??_C@_1DE@PCJGDBBD@?$AA2?$AA?5?$AA?$DM?$AA?$DN?$AA?5?$AAr?$AAa?$AAd?$AAi?$AAx?$AA?5?$AA?$CG?$AA?$CG?$AA?5?$AAr@ 00000001800424c0     libucrtd:xtoa.obj
 0002:000094f8       ??_C@_1CM@LONILNIJ@?$AAl?$AAe?$AAn?$AAg?$AAt?$AAh?$AA?5?$AA?$DM?$AA?5?$AAb?$AAu?$AAf?$AAf?$AAe?$AAr@ 00000001800424f8     libucrtd:xtoa.obj
 0002:00009528       ??_C@_1BI@OLPLFKOE@?$AAc?$AAo?$AAm?$AAm?$AAo?$AAn?$AA_?$AAx?$AAt?$AAo?$AAx@ 0000000180042528     libucrtd:xtoa.obj
 0002:00009540       ??_C@_1BK@FPAMLIDG@?$AAs?$AA?5?$AA?$CB?$AA?$DN?$AA?5?$AAn?$AAu?$AAl?$AAl?$AAp?$AAt?$AAr@ 0000000180042540     libucrtd:mbstowcs.obj
 0002:00009560       ??_C@_1GI@KABMHNPH@?$AAm?$AAi?$AAn?$AAk?$AAe?$AAr?$AAn?$AAe?$AAl?$AA?2?$AAc?$AAr?$AAt?$AAs?$AA?2@ 0000000180042560     libucrtd:mbstowcs.obj
 0002:000095c8       ??_C@_1CG@JEHFHLNG@?$AA_?$AAm?$AAb?$AAs?$AAt?$AAo?$AAw?$AAc?$AAs?$AA_?$AAl?$AA_?$AAh?$AAe?$AAl@ 00000001800425c8     libucrtd:mbstowcs.obj
 0002:000095f0       ??_C@_1JM@MEKBACIG@?$AA?$CI?$AAp?$AAw?$AAc?$AAs?$AA?5?$AA?$DN?$AA?$DN?$AA?5?$AAn?$AAu?$AAl?$AAl?$AAp?$AAt@ 00000001800425f0     libucrtd:mbstowcs.obj
 0002:00009690       ??_C@_1BM@PHENIGHD@?$AA_?$AAm?$AAb?$AAs?$AAt?$AAo?$AAw?$AAc?$AAs?$AA_?$AAs?$AA_?$AAl@ 0000000180042690     libucrtd:mbstowcs.obj
 0002:000096b0       ??_C@_1CM@LLECFMFH@?$AAb?$AAu?$AAf?$AAf?$AAe?$AAr?$AAS?$AAi?$AAz?$AAe?$AA?5?$AA?$DM?$AA?$DN?$AA?5?$AAI@ 00000001800426b0     libucrtd:mbstowcs.obj
 0002:000096e0       ??_C@_1CO@JNPEPJAL@?$AAr?$AAe?$AAt?$AAs?$AAi?$AAz?$AAe?$AA?5?$AA?$DM?$AA?$DN?$AA?5?$AAs?$AAi?$AAz?$AAe@ 00000001800426e0     libucrtd:mbstowcs.obj
 0002:00009738       ??_C@_1CA@NOKNKDIG@?$AAp?$AAw?$AAc?$AAs?$AA?5?$AA?$CB?$AA?$DN?$AA?5?$AAn?$AAu?$AAl?$AAl?$AAp?$AAt?$AAr@ 0000000180042738     libucrtd:wcstombs.obj
 0002:00009760       ??_C@_1GI@EEJDEALP@?$AAm?$AAi?$AAn?$AAk?$AAe?$AAr?$AAn?$AAe?$AAl?$AA?2?$AAc?$AAr?$AAt?$AAs?$AA?2@ 0000000180042760     libucrtd:wcstombs.obj
 0002:000097c8       ??_C@_1CG@LLJCAOHF@?$AA_?$AAw?$AAc?$AAs?$AAt?$AAo?$AAm?$AAb?$AAs?$AA_?$AAl?$AA_?$AAh?$AAe?$AAl@ 00000001800427c8     libucrtd:wcstombs.obj
 0002:000097f0       ??_C@_1JI@DFNKFCLG@?$AA?$CI?$AAd?$AAs?$AAt?$AA?5?$AA?$CB?$AA?$DN?$AA?5?$AAn?$AAu?$AAl?$AAl?$AAp?$AAt?$AAr@ 00000001800427f0     libucrtd:wcstombs.obj
 0002:00009888       ??_C@_1BM@BDMCLLDL@?$AA_?$AAw?$AAc?$AAs?$AAt?$AAo?$AAm?$AAb?$AAs?$AA_?$AAs?$AA_?$AAl@ 0000000180042888     libucrtd:wcstombs.obj
 0002:000098a8       ??_C@_1CM@KEOGBFLI@?$AAs?$AAi?$AAz?$AAe?$AAI?$AAn?$AAB?$AAy?$AAt?$AAe?$AAs?$AA?5?$AA?$DO?$AA?5?$AAr@ 00000001800428a8     libucrtd:wcstombs.obj
 0002:000098d8       ??_C@_1CA@EOJJMFA@?$AAc?$AAo?$AAm?$AAm?$AAo?$AAn?$AA_?$AAt?$AAc?$AAs?$AAc?$AAa?$AAt?$AA_?$AAs@ 00000001800428d8     libucrtd:wcscat_s.obj
 0002:000098f8       ??_C@_1DM@FHLMIEG@?$AAS?$AAt?$AAr?$AAi?$AAn?$AAg?$AA?5?$AAi?$AAs?$AA?5?$AAn?$AAo?$AAt?$AA?5?$AAn@ 00000001800428f8     libucrtd:wcscat_s.obj
 0002:00009940       ??_C@_1FA@MJKDNFFB@?$AA?$CI?$AAL?$AA?$CC?$AAS?$AAt?$AAr?$AAi?$AAn?$AAg?$AA?5?$AAi?$AAs?$AA?5?$AAn?$AAo@ 0000000180042940     libucrtd:wcscat_s.obj
 0002:000099b8       ??_C@_1DI@OOEEHOBJ@?$AAb?$AAa?$AAs?$AAe?$AA?5?$AA?$CB?$AA?$DN?$AA?5?$AAn?$AAu?$AAl?$AAl?$AAp?$AAt?$AAr@ 00000001800429b8     libucrtd:qsort.obj
 0002:000099f0       ??_C@_1GA@KPPCKKGE@?$AAm?$AAi?$AAn?$AAk?$AAe?$AAr?$AAn?$AAe?$AAl?$AA?2?$AAc?$AAr?$AAt?$AAs?$AA?2@ 00000001800429f0     libucrtd:qsort.obj
 0002:00009a50       ??_C@_1M@INMHODIG@?$AAq?$AAs?$AAo?$AAr?$AAt@ 0000000180042a50     libucrtd:qsort.obj
 0002:00009a60       ??_C@_1BE@NJBEBBME@?$AAw?$AAi?$AAd?$AAt?$AAh?$AA?5?$AA?$DO?$AA?5?$AA0@ 0000000180042a60     libucrtd:qsort.obj
 0002:00009a78       ??_C@_1CA@LIDFOMIN@?$AAc?$AAo?$AAm?$AAp?$AA?5?$AA?$CB?$AA?$DN?$AA?5?$AAn?$AAu?$AAl?$AAl?$AAp?$AAt?$AAr@ 0000000180042a78     libucrtd:qsort.obj
 0002:00009a98       ??_C@_1CC@CHNFGJIC@?$AAc?$AAo?$AAm?$AAm?$AAo?$AAn?$AA_?$AAt?$AAc?$AAs?$AAn?$AAc?$AAp?$AAy?$AA_@ 0000000180042a98     libucrtd:wcsncpy_s.obj
 0002:00009ac0       ??_C@_1CE@BLLJFLOH@?$AAs?$AAt?$AAr?$AAi?$AAn?$AAg?$AA?5?$AA?$CB?$AA?$DN?$AA?5?$AAn?$AAu?$AAl?$AAl?$AAp@ 0000000180042ac0     libucrtd:mbsdec.obj
 0002:00009af0       ??_C@_1GO@DDOMFNGF@?$AAm?$AAi?$AAn?$AAk?$AAe?$AAr?$AAn?$AAe?$AAl?$AA?2?$AAc?$AAr?$AAt?$AAs?$AA?2@ 0000000180042af0     libucrtd:mbsdec.obj
 0002:00009b60       ??_C@_1BE@KLNCOLCD@?$AA_?$AAm?$AAb?$AAs?$AAd?$AAe?$AAc?$AA_?$AAl@ 0000000180042b60     libucrtd:mbsdec.obj
 0002:00009b78       ??_C@_1CG@CMGPGAOD@?$AAc?$AAu?$AAr?$AAr?$AAe?$AAn?$AAt?$AA?5?$AA?$CB?$AA?$DN?$AA?5?$AAn?$AAu?$AAl?$AAl@ 0000000180042b78     libucrtd:mbsdec.obj
 0002:00009ba0       ??_C@_1FE@KNPCCODH@?$AA?$CI?$AA?$CC?$AAC?$AAo?$AAr?$AAr?$AAu?$AAp?$AAt?$AAe?$AAd?$AA?5?$AAp?$AAo?$AAi@ 0000000180042ba0     libucrtd:getstringtypea.obj
 0002:00009c00       ??_C@_1EM@GPJLADAA@?$AAV?$AAC?$AAC?$AAR?$AAT?$AA?2?$AAv?$AAc?$AAr?$AAu?$AAn?$AAt?$AAi?$AAm?$AAe@ 0000000180042c00     libucrtd:getstringtypea.obj
 0002:00009c50       ??_C@_0DJ@HCPJODDK@minkernel?2crts?2ucrt?2src?2appcrt?2@ 0000000180042c50     libucrtd:getstringtypea.obj
 0002:00009c90       ??_C@_0DH@IKPCBLP@minkernel?2crts?2ucrt?2src?2appcrt?2@ 0000000180042c90     libucrtd:lcmapstringa.obj
 0002:0000ab10       ??_C@_15EMKDOKLE@?$AAa?$AAr@ 0000000180043b10     libucrtd:lcidtoname_downlevel.obj
 0002:0000ab18       ??_C@_15KNPADPLH@?$AAb?$AAg@ 0000000180043b18     libucrtd:lcidtoname_downlevel.obj
 0002:0000ab20       ??_C@_15EDMHLDMO@?$AAc?$AAa@ 0000000180043b20     libucrtd:lcidtoname_downlevel.obj
 0002:0000ab28       ??_C@_1O@BPEAJADD@?$AAz?$AAh?$AA?9?$AAC?$AAH?$AAS@ 0000000180043b28     libucrtd:lcidtoname_downlevel.obj
 0002:0000ab38       ??_C@_15LJNHCMNK@?$AAc?$AAs@ 0000000180043b38     libucrtd:lcidtoname_downlevel.obj
 0002:0000ab40       ??_C@_15FOMCIDHG@?$AAd?$AAa@ 0000000180043b40     libucrtd:lcidtoname_downlevel.obj
 0002:0000ab48       ??_C@_15NBKABECB@?$AAd?$AAe@ 0000000180043b48     libucrtd:lcidtoname_downlevel.obj
 0002:0000ab50       ??_C@_15GHPEIIAO@?$AAe?$AAl@ 0000000180043b50     libucrtd:lcidtoname_downlevel.obj
 0002:0000ab58       ??_C@_15MNPNEAIF@?$AAe?$AAn@ 0000000180043b58     libucrtd:lcidtoname_downlevel.obj
 0002:0000ab60       ??_C@_15GPIOMPMH@?$AAe?$AAs@ 0000000180043b60     libucrtd:lcidtoname_downlevel.obj
 0002:0000ab68       ??_C@_15NGLOAKJC@?$AAf?$AAi@ 0000000180043b68     libucrtd:lcidtoname_downlevel.obj
 0002:0000ab70       ??_C@_15FBKGNKAM@?$AAf?$AAr@ 0000000180043b70     libucrtd:lcidtoname_downlevel.obj
 0002:0000ab78       ??_C@_15KGGCNEFK@?$AAh?$AAe@ 0000000180043b78     libucrtd:lcidtoname_downlevel.obj
 0002:0000ab80       ??_C@_15PGHLIDMF@?$AAh?$AAu@ 0000000180043b80     libucrtd:lcidtoname_downlevel.obj
 0002:0000ab88       ??_C@_15BIEMAPLM@?$AAi?$AAs@ 0000000180043b88     libucrtd:lcidtoname_downlevel.obj
 0002:0000ab90       ??_C@_15IFJLDHAF@?$AAi?$AAt@ 0000000180043b90     libucrtd:lcidtoname_downlevel.obj
 0002:0000ab98       ??_C@_15GEMIOCAG@?$AAj?$AAa@ 0000000180043b98     libucrtd:lcidtoname_downlevel.obj
 0002:0000aba0       ??_C@_15EPELEGJA@?$AAk?$AAo@ 0000000180043ba0     libucrtd:lcidtoname_downlevel.obj
 0002:0000aba8       ??_C@_15NDDHIMN@?$AAn?$AAl@ 0000000180043ba8     libucrtd:lcidtoname_downlevel.obj
 0002:0000abb0       ??_C@_15BPIGNHCD@?$AAn?$AAo@ 0000000180043bb0     libucrtd:lcidtoname_downlevel.obj
 0002:0000abb8       ??_C@_15DEOPBLCG@?$AAp?$AAl@ 0000000180043bb8     libucrtd:lcidtoname_downlevel.obj
 0002:0000abc0       ??_C@_15KBECGEFG@?$AAp?$AAt@ 0000000180043bc0     libucrtd:lcidtoname_downlevel.obj
 0002:0000abc8       ??_C@_15GLJCBFMD@?$AAr?$AAo@ 0000000180043bc8     libucrtd:lcidtoname_downlevel.obj
 0002:0000abd0       ??_C@_15FEDGKCDI@?$AAr?$AAu@ 0000000180043bd0     libucrtd:lcidtoname_downlevel.obj
 0002:0000abd8       ??_C@_15GLKMLLHM@?$AAh?$AAr@ 0000000180043bd8     libucrtd:lcidtoname_downlevel.obj
 0002:0000abe0       ??_C@_15CPKMFBDB@?$AAs?$AAk@ 0000000180043be0     libucrtd:lcidtoname_downlevel.obj
 0002:0000abe8       ??_C@_15BAAIOGMK@?$AAs?$AAq@ 0000000180043be8     libucrtd:lcidtoname_downlevel.obj
 0002:0000abf0       ??_C@_15INNPNOHD@?$AAs?$AAv@ 0000000180043bf0     libucrtd:lcidtoname_downlevel.obj
 0002:0000abf8       ??_C@_15CABMMOGH@?$AAt?$AAh@ 0000000180043bf8     libucrtd:lcidtoname_downlevel.obj
 0002:0000ac00       ??_C@_15BPLIHJJM@?$AAt?$AAr@ 0000000180043c00     libucrtd:lcidtoname_downlevel.obj
 0002:0000ac08       ??_C@_15NEOEKKDJ@?$AAu?$AAr@ 0000000180043c08     libucrtd:lcidtoname_downlevel.obj
 0002:0000ac10       ??_C@_15NFICGAJK@?$AAi?$AAd@ 0000000180043c10     libucrtd:lcidtoname_downlevel.obj
 0002:0000ac18       ??_C@_15PJPFLCCM@?$AAu?$AAk@ 0000000180043c18     libucrtd:lcidtoname_downlevel.obj
 0002:0000ac20       ??_C@_15HPJPHDM@?$AAb?$AAe@ 0000000180043c20     libucrtd:lcidtoname_downlevel.obj
 0002:0000ac28       ??_C@_15LCHLGJII@?$AAs?$AAl@ 0000000180043c28     libucrtd:lcidtoname_downlevel.obj
 0002:0000ac30       ??_C@_15PCFJPHHO@?$AAe?$AAt@ 0000000180043c30     libucrtd:lcidtoname_downlevel.obj
 0002:0000ac38       ??_C@_15HPFPGODN@?$AAl?$AAv@ 0000000180043c38     libucrtd:lcidtoname_downlevel.obj
 0002:0000ac40       ??_C@_15NFFGKGLG@?$AAl?$AAt@ 0000000180043c40     libucrtd:lcidtoname_downlevel.obj
 0002:0000ac48       ??_C@_15BDAKCCHN@?$AAf?$AAa@ 0000000180043c48     libucrtd:lcidtoname_downlevel.obj
 0002:0000ac50       ??_C@_15NFGIAIAJ@?$AAv?$AAi@ 0000000180043c50     libucrtd:lcidtoname_downlevel.obj
 0002:0000ac58       ??_C@_15LMKNDMHN@?$AAh?$AAy@ 0000000180043c58     libucrtd:lcidtoname_downlevel.obj
 0002:0000ac60       ??_C@_15IJBHMCFL@?$AAa?$AAz@ 0000000180043c60     libucrtd:lcidtoname_downlevel.obj
 0002:0000ac68       ??_C@_15EKOFJABL@?$AAe?$AAu@ 0000000180043c68     libucrtd:lcidtoname_downlevel.obj
 0002:0000ac70       ??_C@_15BGHADCNK@?$AAm?$AAk@ 0000000180043c70     libucrtd:lcidtoname_downlevel.obj
 0002:0000ac78       ??_C@_15JDNICKHM@?$AAa?$AAf@ 0000000180043c78     libucrtd:lcidtoname_downlevel.obj
 0002:0000ac80       ??_C@_15KPJEDBKD@?$AAk?$AAa@ 0000000180043c80     libucrtd:lcidtoname_downlevel.obj
 0002:0000ac88       ??_C@_15PDNFFFEO@?$AAf?$AAo@ 0000000180043c88     libucrtd:lcidtoname_downlevel.obj
 0002:0000ac90       ??_C@_15OMLEGLOC@?$AAh?$AAi@ 0000000180043c90     libucrtd:lcidtoname_downlevel.obj
 0002:0000ac98       ??_C@_15IDNNENKK@?$AAm?$AAs@ 0000000180043c98     libucrtd:lcidtoname_downlevel.obj
 0002:0000aca0       ??_C@_15MACJNBMH@?$AAk?$AAk@ 0000000180043ca0     libucrtd:lcidtoname_downlevel.obj
 0002:0000aca8       ??_C@_15DKDJEOND@?$AAk?$AAy@ 0000000180043ca8     libucrtd:lcidtoname_downlevel.obj
 0002:0000acb0       ??_C@_15DFGDLJBG@?$AAs?$AAw@ 0000000180043cb0     libucrtd:lcidtoname_downlevel.obj
 0002:0000acb8       ??_C@_15BBFAICNG@?$AAu?$AAz@ 0000000180043cb8     libucrtd:lcidtoname_downlevel.obj
 0002:0000acc0       ??_C@_15DKNDCGEA@?$AAt?$AAt@ 0000000180043cc0     libucrtd:lcidtoname_downlevel.obj
 0002:0000acc8       ??_C@_15MGIFMDPL@?$AAp?$AAa@ 0000000180043cc8     libucrtd:lcidtoname_downlevel.obj
 0002:0000acd0       ??_C@_15HCNDBBA@?$AAg?$AAu@ 0000000180043cd0     libucrtd:lcidtoname_downlevel.obj
 0002:0000acd8       ??_C@_15FNBEIBON@?$AAt?$AAa@ 0000000180043cd8     libucrtd:lcidtoname_downlevel.obj
 0002:0000ace0       ??_C@_15NCHGBGLK@?$AAt?$AAe@ 0000000180043ce0     libucrtd:lcidtoname_downlevel.obj
 0002:0000ace8       ??_C@_15PHPHCBPF@?$AAk?$AAn@ 0000000180043ce8     libucrtd:lcidtoname_downlevel.obj
 0002:0000acf0       ??_C@_15DLGBCKMP@?$AAm?$AAr@ 0000000180043cf0     libucrtd:lcidtoname_downlevel.obj
 0002:0000acf8       ??_C@_15EABBLBFF@?$AAs?$AAa@ 0000000180043cf8     libucrtd:lcidtoname_downlevel.obj
 0002:0000ad00       ??_C@_15CBKOMCOI@?$AAm?$AAn@ 0000000180043d00     libucrtd:lcidtoname_downlevel.obj
 0002:0000ad08       ??_C@_15CKDMCJAF@?$AAg?$AAl@ 0000000180043d08     libucrtd:lcidtoname_downlevel.obj
 0002:0000ad10       ??_C@_17CNJFBPG@?$AAk?$AAo?$AAk@ 0000000180043d10     libucrtd:lcidtoname_downlevel.obj
 0002:0000ad18       ??_C@_17FFBJICPL@?$AAs?$AAy?$AAr@ 0000000180043d18     libucrtd:lcidtoname_downlevel.obj
 0002:0000ad20       ??_C@_17KPNDCPAF@?$AAd?$AAi?$AAv@ 0000000180043d20     libucrtd:lcidtoname_downlevel.obj
 0002:0000ad28       ??_C@_1M@OKAHONE@?$AAa?$AAr?$AA?9?$AAS?$AAA@ 0000000180043d28     libucrtd:lcidtoname_downlevel.obj
 0002:0000ad38       ??_C@_1M@FFFIGIGK@?$AAb?$AAg?$AA?9?$AAB?$AAG@ 0000000180043d38     libucrtd:lcidtoname_downlevel.obj
 0002:0000ad48       ??_C@_1M@BJNKEDC@?$AAc?$AAa?$AA?9?$AAE?$AAS@ 0000000180043d48     libucrtd:lcidtoname_downlevel.obj
 0002:0000ad58       ??_C@_1M@IJJHFJHA@?$AAc?$AAs?$AA?9?$AAC?$AAZ@ 0000000180043d58     libucrtd:lcidtoname_downlevel.obj
 0002:0000ad68       ??_C@_1M@CLPEOBGI@?$AAd?$AAa?$AA?9?$AAD?$AAK@ 0000000180043d68     libucrtd:lcidtoname_downlevel.obj
 0002:0000ad78       ??_C@_1M@MCMADGCB@?$AAd?$AAe?$AA?9?$AAD?$AAE@ 0000000180043d78     libucrtd:lcidtoname_downlevel.obj
 0002:0000ad88       ??_C@_1M@OOCKEMAM@?$AAe?$AAl?$AA?9?$AAG?$AAR@ 0000000180043d88     libucrtd:lcidtoname_downlevel.obj
 0002:0000ad98       ??_C@_1M@DDNJFGID@?$AAf?$AAi?$AA?9?$AAF?$AAI@ 0000000180043d98     libucrtd:lcidtoname_downlevel.obj
 0002:0000ada8       ??_C@_1M@GLIPPMAC@?$AAf?$AAr?$AA?9?$AAF?$AAR@ 0000000180043da8     libucrtd:lcidtoname_downlevel.obj
 0002:0000adb8       ??_C@_1M@GFMCHPE@?$AAh?$AAe?$AA?9?$AAI?$AAL@ 0000000180043db8     libucrtd:lcidtoname_downlevel.obj
 0002:0000adc8       ??_C@_1M@MHLPGNKM@?$AAh?$AAu?$AA?9?$AAH?$AAU@ 0000000180043dc8     libucrtd:lcidtoname_downlevel.obj
 0002:0000add8       ??_C@_1M@LPDDNNPN@?$AAi?$AAs?$AA?9?$AAI?$AAS@ 0000000180043dd8     libucrtd:lcidtoname_downlevel.obj
 0002:0000ade8       ??_C@_1M@MADIPODN@?$AAi?$AAt?$AA?9?$AAI?$AAT@ 0000000180043de8     libucrtd:lcidtoname_downlevel.obj
 0002:0000adf8       ??_C@_1M@IHBJJGG@?$AAn?$AAl?$AA?9?$AAN?$AAL@ 0000000180043df8     libucrtd:lcidtoname_downlevel.obj
 0002:0000ae08       ??_C@_1M@EANAGDL@?$AAn?$AAb?$AA?9?$AAN?$AAO@ 0000000180043e08     libucrtd:lcidtoname_downlevel.obj
 0002:0000ae18       ??_C@_1M@NEIEMEGP@?$AAp?$AAl?$AA?9?$AAP?$AAL@ 0000000180043e18     libucrtd:lcidtoname_downlevel.obj
 0002:0000ae28       ??_C@_1M@BOCFIGEP@?$AAp?$AAt?$AA?9?$AAB?$AAR@ 0000000180043e28     libucrtd:lcidtoname_downlevel.obj
 0002:0000ae38       ??_C@_1M@IMPFOPBG@?$AAr?$AAo?$AA?9?$AAR?$AAO@ 0000000180043e38     libucrtd:lcidtoname_downlevel.obj
 0002:0000ae48       ??_C@_1M@IDNNEJMM@?$AAr?$AAu?$AA?9?$AAR?$AAU@ 0000000180043e48     libucrtd:lcidtoname_downlevel.obj
 0002:0000ae58       ??_C@_1M@LILEEOGM@?$AAh?$AAr?$AA?9?$AAH?$AAR@ 0000000180043e58     libucrtd:lcidtoname_downlevel.obj
 0002:0000ae68       ??_C@_1M@FKIFEHPB@?$AAs?$AAk?$AA?9?$AAS?$AAK@ 0000000180043e68     libucrtd:lcidtoname_downlevel.obj
 0002:0000ae78       ??_C@_1M@LJMAMNPJ@?$AAs?$AAq?$AA?9?$AAA?$AAL@ 0000000180043e78     libucrtd:lcidtoname_downlevel.obj
 0002:0000ae88       ??_C@_1M@GIAKDKJK@?$AAs?$AAv?$AA?9?$AAS?$AAE@ 0000000180043e88     libucrtd:lcidtoname_downlevel.obj
 0002:0000ae98       ??_C@_1M@MKJKIKCL@?$AAt?$AAh?$AA?9?$AAT?$AAH@ 0000000180043e98     libucrtd:lcidtoname_downlevel.obj
 0002:0000aea8       ??_C@_1M@MFLCCMPB@?$AAt?$AAr?$AA?9?$AAT?$AAR@ 0000000180043ea8     libucrtd:lcidtoname_downlevel.obj
 0002:0000aeb8       ??_C@_1M@OIJHDKJN@?$AAu?$AAr?$AA?9?$AAP?$AAK@ 0000000180043eb8     libucrtd:lcidtoname_downlevel.obj
 0002:0000aec8       ??_C@_1M@LHIPCIEK@?$AAi?$AAd?$AA?9?$AAI?$AAD@ 0000000180043ec8     libucrtd:lcidtoname_downlevel.obj
 0002:0000aed8       ??_C@_1M@MFMOBGI@?$AAu?$AAk?$AA?9?$AAU?$AAA@ 0000000180043ed8     libucrtd:lcidtoname_downlevel.obj
 0002:0000aee8       ??_C@_1M@OBGLJIPL@?$AAb?$AAe?$AA?9?$AAB?$AAY@ 0000000180043ee8     libucrtd:lcidtoname_downlevel.obj
 0002:0000aef8       ??_C@_1M@BCFAJEAD@?$AAs?$AAl?$AA?9?$AAS?$AAI@ 0000000180043ef8     libucrtd:lcidtoname_downlevel.obj
 0002:0000af08       ??_C@_1M@FKFFEDDN@?$AAe?$AAt?$AA?9?$AAE?$AAE@ 0000000180043f08     libucrtd:lcidtoname_downlevel.obj
 0002:0000af18       ??_C@_1M@KGKKAACI@?$AAl?$AAv?$AA?9?$AAL?$AAV@ 0000000180043f18     libucrtd:lcidtoname_downlevel.obj
 0002:0000af28       ??_C@_1M@IFGBIJO@?$AAl?$AAt?$AA?9?$AAL?$AAT@ 0000000180043f28     libucrtd:lcidtoname_downlevel.obj
 0002:0000af38       ??_C@_1M@FGEAHEDM@?$AAf?$AAa?$AA?9?$AAI?$AAR@ 0000000180043f38     libucrtd:lcidtoname_downlevel.obj
 0002:0000af48       ??_C@_1M@KBMAIBFN@?$AAv?$AAi?$AA?9?$AAV?$AAN@ 0000000180043f48     libucrtd:lcidtoname_downlevel.obj
 0002:0000af58       ??_C@_1M@GPCBKDJK@?$AAh?$AAy?$AA?9?$AAA?$AAM@ 0000000180043f58     libucrtd:lcidtoname_downlevel.obj
 0002:0000af68       ??_C@_1BG@BECMDDJB@?$AAa?$AAz?$AA?9?$AAA?$AAZ?$AA?9?$AAL?$AAa?$AAt?$AAn@ 0000000180043f68     libucrtd:lcidtoname_downlevel.obj
 0002:0000af80       ??_C@_1M@MAOFCAEA@?$AAe?$AAu?$AA?9?$AAE?$AAS@ 0000000180043f80     libucrtd:lcidtoname_downlevel.obj
 0002:0000af90       ??_C@_1M@IGHABKPI@?$AAm?$AAk?$AA?9?$AAM?$AAK@ 0000000180043f90     libucrtd:lcidtoname_downlevel.obj
 0002:0000afa0       ??_C@_1M@IAIGNEJG@?$AAt?$AAn?$AA?9?$AAZ?$AAA@ 0000000180043fa0     libucrtd:lcidtoname_downlevel.obj
 0002:0000afb0       ??_C@_1M@IIJCOJFA@?$AAx?$AAh?$AA?9?$AAZ?$AAA@ 0000000180043fb0     libucrtd:lcidtoname_downlevel.obj
 0002:0000afc0       ??_C@_1M@LGPJHNJH@?$AAz?$AAu?$AA?9?$AAZ?$AAA@ 0000000180043fc0     libucrtd:lcidtoname_downlevel.obj
 0002:0000afd0       ??_C@_1M@HOKAOIO@?$AAa?$AAf?$AA?9?$AAZ?$AAA@ 0000000180043fd0     libucrtd:lcidtoname_downlevel.obj
 0002:0000afe0       ??_C@_1M@DPCLHLIE@?$AAk?$AAa?$AA?9?$AAG?$AAE@ 0000000180043fe0     libucrtd:lcidtoname_downlevel.obj
 0002:0000aff0       ??_C@_1M@BLKMHJBI@?$AAf?$AAo?$AA?9?$AAF?$AAO@ 0000000180043ff0     libucrtd:lcidtoname_downlevel.obj
 0002:0000b000       ??_C@_1M@LGGJAPPB@?$AAh?$AAi?$AA?9?$AAI?$AAN@ 0000000180044000     libucrtd:lcidtoname_downlevel.obj
 0002:0000b010       ??_C@_1M@FIKPIHFE@?$AAm?$AAt?$AA?9?$AAM?$AAT@ 0000000180044010     libucrtd:lcidtoname_downlevel.obj
 0002:0000b020       ??_C@_1M@HEGGPBFA@?$AAs?$AAe?$AA?9?$AAN?$AAO@ 0000000180044020     libucrtd:lcidtoname_downlevel.obj
 0002:0000b030       ??_C@_1M@EIBJEEPA@?$AAm?$AAs?$AA?9?$AAM?$AAY@ 0000000180044030     libucrtd:lcidtoname_downlevel.obj
 0002:0000b040       ??_C@_1M@FHLBGMPP@?$AAk?$AAk?$AA?9?$AAK?$AAZ@ 0000000180044040     libucrtd:lcidtoname_downlevel.obj
 0002:0000b050       ??_C@_1M@NGJJLCGI@?$AAk?$AAy?$AA?9?$AAK?$AAG@ 0000000180044050     libucrtd:lcidtoname_downlevel.obj
 0002:0000b060       ??_C@_1M@GIENNBFC@?$AAs?$AAw?$AA?9?$AAK?$AAE@ 0000000180044060     libucrtd:lcidtoname_downlevel.obj
 0002:0000b070       ??_C@_1BG@NDGMJIMJ@?$AAu?$AAz?$AA?9?$AAU?$AAZ?$AA?9?$AAL?$AAa?$AAt?$AAn@ 0000000180044070     libucrtd:lcidtoname_downlevel.obj
 0002:0000b088       ??_C@_1M@IDCCIHBC@?$AAt?$AAt?$AA?9?$AAR?$AAU@ 0000000180044088     libucrtd:lcidtoname_downlevel.obj
 0002:0000b098       ??_C@_1M@LOICPMOJ@?$AAb?$AAn?$AA?9?$AAI?$AAN@ 0000000180044098     libucrtd:lcidtoname_downlevel.obj
 0002:0000b0a8       ??_C@_1M@KPKKNEAH@?$AAp?$AAa?$AA?9?$AAI?$AAN@ 00000001800440a8     libucrtd:lcidtoname_downlevel.obj
 0002:0000b0b8       ??_C@_1M@PJGPPBOG@?$AAg?$AAu?$AA?9?$AAI?$AAN@ 00000001800440b8     libucrtd:lcidtoname_downlevel.obj
 0002:0000b0c8       ??_C@_1M@KMKMOPHI@?$AAt?$AAa?$AA?9?$AAI?$AAN@ 00000001800440c8     libucrtd:lcidtoname_downlevel.obj
 0002:0000b0d8       ??_C@_1M@KFEHEPAC@?$AAt?$AAe?$AA?9?$AAI?$AAN@ 00000001800440d8     libucrtd:lcidtoname_downlevel.obj
 0002:0000b0e8       ??_C@_1M@CDCLMGHI@?$AAk?$AAn?$AA?9?$AAI?$AAN@ 00000001800440e8     libucrtd:lcidtoname_downlevel.obj
 0002:0000b0f8       ??_C@_1M@MIODLDKF@?$AAm?$AAl?$AA?9?$AAI?$AAN@ 00000001800440f8     libucrtd:lcidtoname_downlevel.obj
 0002:0000b108       ??_C@_1M@PBIEACPO@?$AAm?$AAr?$AA?9?$AAI?$AAN@ 0000000180044108     libucrtd:lcidtoname_downlevel.obj
 0002:0000b118       ??_C@_1M@NIDEAGPH@?$AAs?$AAa?$AA?9?$AAI?$AAN@ 0000000180044118     libucrtd:lcidtoname_downlevel.obj
 0002:0000b128       ??_C@_1M@FHIHCBIO@?$AAm?$AAn?$AA?9?$AAM?$AAN@ 0000000180044128     libucrtd:lcidtoname_downlevel.obj
 0002:0000b138       ??_C@_1M@JAIJPENP@?$AAc?$AAy?$AA?9?$AAG?$AAB@ 0000000180044138     libucrtd:lcidtoname_downlevel.obj
 0002:0000b148       ??_C@_1M@PHGFBEPN@?$AAg?$AAl?$AA?9?$AAE?$AAS@ 0000000180044148     libucrtd:lcidtoname_downlevel.obj
 0002:0000b158       ??_C@_1O@KPIPDNCP@?$AAk?$AAo?$AAk?$AA?9?$AAI?$AAN@ 0000000180044158     libucrtd:lcidtoname_downlevel.obj
 0002:0000b168       ??_C@_1O@KNHJLDJA@?$AAs?$AAy?$AAr?$AA?9?$AAS?$AAY@ 0000000180044168     libucrtd:lcidtoname_downlevel.obj
 0002:0000b178       ??_C@_1O@MKEKBLAH@?$AAd?$AAi?$AAv?$AA?9?$AAM?$AAV@ 0000000180044178     libucrtd:lcidtoname_downlevel.obj
 0002:0000b188       ??_C@_1O@OHDCKDDF@?$AAq?$AAu?$AAz?$AA?9?$AAB?$AAO@ 0000000180044188     libucrtd:lcidtoname_downlevel.obj
 0002:0000b198       ??_C@_1M@LEPJNLFD@?$AAn?$AAs?$AA?9?$AAZ?$AAA@ 0000000180044198     libucrtd:lcidtoname_downlevel.obj
 0002:0000b1a8       ??_C@_1M@OMLEIIJB@?$AAm?$AAi?$AA?9?$AAN?$AAZ@ 00000001800441a8     libucrtd:lcidtoname_downlevel.obj
 0002:0000b1b8       ??_C@_1M@PMPEAILG@?$AAa?$AAr?$AA?9?$AAI?$AAQ@ 00000001800441b8     libucrtd:lcidtoname_downlevel.obj
 0002:0000b1c8       ??_C@_1M@CNKPNOEE@?$AAd?$AAe?$AA?9?$AAC?$AAH@ 00000001800441c8     libucrtd:lcidtoname_downlevel.obj
 0002:0000b1d8       ??_C@_1M@LKMGMLKO@?$AAe?$AAn?$AA?9?$AAG?$AAB@ 00000001800441d8     libucrtd:lcidtoname_downlevel.obj
 0002:0000b1e8       ??_C@_1M@PGKJFFGL@?$AAe?$AAs?$AA?9?$AAM?$AAX@ 00000001800441e8     libucrtd:lcidtoname_downlevel.obj
 0002:0000b1f8       ??_C@_1M@DNNANBDC@?$AAf?$AAr?$AA?9?$AAB?$AAE@ 00000001800441f8     libucrtd:lcidtoname_downlevel.obj
 0002:0000b208       ??_C@_1M@HLGMDFHM@?$AAi?$AAt?$AA?9?$AAC?$AAH@ 0000000180044208     libucrtd:lcidtoname_downlevel.obj
 0002:0000b218       ??_C@_1M@CLLBGJH@?$AAn?$AAl?$AA?9?$AAB?$AAE@ 0000000180044218     libucrtd:lcidtoname_downlevel.obj
 0002:0000b228       ??_C@_1M@BODBOGLF@?$AAn?$AAn?$AA?9?$AAN?$AAO@ 0000000180044228     libucrtd:lcidtoname_downlevel.obj
 0002:0000b238       ??_C@_1M@HFFAHKAD@?$AAp?$AAt?$AA?9?$AAP?$AAT@ 0000000180044238     libucrtd:lcidtoname_downlevel.obj
 0002:0000b248       ??_C@_1BG@LNOAKHIE@?$AAs?$AAr?$AA?9?$AAS?$AAP?$AA?9?$AAL?$AAa?$AAt?$AAn@ 0000000180044248     libucrtd:lcidtoname_downlevel.obj
 0002:0000b260       ??_C@_1M@HBMHBGAK@?$AAs?$AAv?$AA?9?$AAF?$AAI@ 0000000180044260     libucrtd:lcidtoname_downlevel.obj
 0002:0000b270       ??_C@_1BG@DGCJGJBE@?$AAa?$AAz?$AA?9?$AAA?$AAZ?$AA?9?$AAC?$AAy?$AAr?$AAl@ 0000000180044270     libucrtd:lcidtoname_downlevel.obj
 0002:0000b288       ??_C@_1M@KEJDAAHB@?$AAs?$AAe?$AA?9?$AAS?$AAE@ 0000000180044288     libucrtd:lcidtoname_downlevel.obj
 0002:0000b298       ??_C@_1M@HEIBJJAD@?$AAm?$AAs?$AA?9?$AAB?$AAN@ 0000000180044298     libucrtd:lcidtoname_downlevel.obj
 0002:0000b2a8       ??_C@_1BG@PBGJMCEM@?$AAu?$AAz?$AA?9?$AAU?$AAZ?$AA?9?$AAC?$AAy?$AAr?$AAl@ 00000001800442a8     libucrtd:lcidtoname_downlevel.obj
 0002:0000b2c0       ??_C@_1O@LAOBCMDF@?$AAq?$AAu?$AAz?$AA?9?$AAE?$AAC@ 00000001800442c0     libucrtd:lcidtoname_downlevel.obj
 0002:0000b2d0       ??_C@_1M@POEEMAIO@?$AAa?$AAr?$AA?9?$AAE?$AAG@ 00000001800442d0     libucrtd:lcidtoname_downlevel.obj
 0002:0000b2e0       ??_C@_1M@EFAKDEDL@?$AAz?$AAh?$AA?9?$AAH?$AAK@ 00000001800442e0     libucrtd:lcidtoname_downlevel.obj
 0002:0000b2f0       ??_C@_1M@HKKIJHGI@?$AAd?$AAe?$AA?9?$AAA?$AAT@ 00000001800442f0     libucrtd:lcidtoname_downlevel.obj
 0002:0000b300       ??_C@_1M@KBFBEHJF@?$AAe?$AAn?$AA?9?$AAA?$AAU@ 0000000180044300     libucrtd:lcidtoname_downlevel.obj
 0002:0000b310       ??_C@_1M@MNPLFAAH@?$AAe?$AAs?$AA?9?$AAE?$AAS@ 0000000180044310     libucrtd:lcidtoname_downlevel.obj
 0002:0000b320       ??_C@_1M@HJOOJFMA@?$AAf?$AAr?$AA?9?$AAC?$AAA@ 0000000180044320     libucrtd:lcidtoname_downlevel.obj
 0002:0000b330       ??_C@_1BG@JPOFPNAB@?$AAs?$AAr?$AA?9?$AAS?$AAP?$AA?9?$AAC?$AAy?$AAr?$AAl@ 0000000180044330     libucrtd:lcidtoname_downlevel.obj
 0002:0000b348       ??_C@_1M@LNFOCMOB@?$AAs?$AAe?$AA?9?$AAF?$AAI@ 0000000180044348     libucrtd:lcidtoname_downlevel.obj
 0002:0000b358       ??_C@_1O@MGJBOAMB@?$AAq?$AAu?$AAz?$AA?9?$AAP?$AAE@ 0000000180044358     libucrtd:lcidtoname_downlevel.obj
 0002:0000b368       ??_C@_1M@GJINLBOK@?$AAa?$AAr?$AA?9?$AAL?$AAY@ 0000000180044368     libucrtd:lcidtoname_downlevel.obj
 0002:0000b378       ??_C@_1M@GGMNHJNL@?$AAz?$AAh?$AA?9?$AAS?$AAG@ 0000000180044378     libucrtd:lcidtoname_downlevel.obj
 0002:0000b388       ??_C@_1M@HOIKODND@?$AAd?$AAe?$AA?9?$AAL?$AAU@ 0000000180044388     libucrtd:lcidtoname_downlevel.obj
 0002:0000b398       ??_C@_1M@DDOCCGFG@?$AAe?$AAn?$AA?9?$AAC?$AAA@ 0000000180044398     libucrtd:lcidtoname_downlevel.obj
 0002:0000b3a8       ??_C@_1M@BNOEMJLF@?$AAe?$AAs?$AA?9?$AAG?$AAT@ 00000001800443a8     libucrtd:lcidtoname_downlevel.obj
 0002:0000b3b8       ??_C@_1M@EOGNKEK@?$AAf?$AAr?$AA?9?$AAC?$AAH@ 00000001800443b8     libucrtd:lcidtoname_downlevel.obj
 0002:0000b3c8       ??_C@_1M@FLIDJFHL@?$AAh?$AAr?$AA?9?$AAB?$AAA@ 00000001800443c8     libucrtd:lcidtoname_downlevel.obj
 0002:0000b3d8       ??_C@_1O@FMCELNAJ@?$AAs?$AAm?$AAj?$AA?9?$AAN?$AAO@ 00000001800443d8     libucrtd:lcidtoname_downlevel.obj
 0002:0000b3e8       ??_C@_1M@JHGLJMGJ@?$AAa?$AAr?$AA?9?$AAD?$AAZ@ 00000001800443e8     libucrtd:lcidtoname_downlevel.obj
 0002:0000b3f8       ??_C@_1M@JKKFDCNP@?$AAz?$AAh?$AA?9?$AAM?$AAO@ 00000001800443f8     libucrtd:lcidtoname_downlevel.obj
 0002:0000b408       ??_C@_1M@GEEFALPE@?$AAd?$AAe?$AA?9?$AAL?$AAI@ 0000000180044408     libucrtd:lcidtoname_downlevel.obj
 0002:0000b418       ??_C@_1M@IGEOFBG@?$AAe?$AAn?$AA?9?$AAN?$AAZ@ 0000000180044418     libucrtd:lcidtoname_downlevel.obj
 0002:0000b428       ??_C@_1M@KDBONEHP@?$AAe?$AAs?$AA?9?$AAC?$AAR@ 0000000180044428     libucrtd:lcidtoname_downlevel.obj
 0002:0000b438       ??_C@_1M@FHMDOHNN@?$AAf?$AAr?$AA?9?$AAL?$AAU@ 0000000180044438     libucrtd:lcidtoname_downlevel.obj
 0002:0000b448       ??_C@_1BG@NFKKMAFG@?$AAb?$AAs?$AA?9?$AAB?$AAA?$AA?9?$AAL?$AAa?$AAt?$AAn@ 0000000180044448     libucrtd:lcidtoname_downlevel.obj
 0002:0000b460       ??_C@_1O@IMNBEMCI@?$AAs?$AAm?$AAj?$AA?9?$AAS?$AAE@ 0000000180044460     libucrtd:lcidtoname_downlevel.obj
 0002:0000b470       ??_C@_1M@DHHMBNDP@?$AAa?$AAr?$AA?9?$AAM?$AAA@ 0000000180044470     libucrtd:lcidtoname_downlevel.obj
 0002:0000b480       ??_C@_1M@BNBLJCGH@?$AAe?$AAn?$AA?9?$AAI?$AAE@ 0000000180044480     libucrtd:lcidtoname_downlevel.obj
 0002:0000b490       ??_C@_1M@GEPAFMDL@?$AAe?$AAs?$AA?9?$AAP?$AAA@ 0000000180044490     libucrtd:lcidtoname_downlevel.obj
 0002:0000b4a0       ??_C@_1M@OJONDMDL@?$AAf?$AAr?$AA?9?$AAM?$AAC@ 00000001800444a0     libucrtd:lcidtoname_downlevel.obj
 0002:0000b4b0       ??_C@_1BG@OBCNFJB@?$AAs?$AAr?$AA?9?$AAB?$AAA?$AA?9?$AAL?$AAa?$AAt?$AAn@ 00000001800444b0     libucrtd:lcidtoname_downlevel.obj
 0002:0000b4c8       ??_C@_1O@KEMEEGPO@?$AAs?$AAm?$AAa?$AA?9?$AAN?$AAO@ 00000001800444c8     libucrtd:lcidtoname_downlevel.obj
 0002:0000b4d8       ??_C@_1M@ELMGFODK@?$AAa?$AAr?$AA?9?$AAT?$AAN@ 00000001800444d8     libucrtd:lcidtoname_downlevel.obj
 0002:0000b4e8       ??_C@_1M@BHDLHFAF@?$AAe?$AAn?$AA?9?$AAZ?$AAA@ 00000001800444e8     libucrtd:lcidtoname_downlevel.obj
 0002:0000b4f8       ??_C@_1M@BMGIGLIF@?$AAe?$AAs?$AA?9?$AAD?$AAO@ 00000001800444f8     libucrtd:lcidtoname_downlevel.obj
 0002:0000b508       ??_C@_1BG@CMBHIPBE@?$AAs?$AAr?$AA?9?$AAB?$AAA?$AA?9?$AAC?$AAy?$AAr?$AAl@ 0000000180044508     libucrtd:lcidtoname_downlevel.obj
 0002:0000b520       ??_C@_1O@HEDBLHNP@?$AAs?$AAm?$AAa?$AA?9?$AAS?$AAE@ 0000000180044520     libucrtd:lcidtoname_downlevel.obj
 0002:0000b530       ??_C@_1M@DAGCADIM@?$AAa?$AAr?$AA?9?$AAO?$AAM@ 0000000180044530     libucrtd:lcidtoname_downlevel.obj
 0002:0000b540       ??_C@_1M@FODLMICG@?$AAe?$AAn?$AA?9?$AAJ?$AAM@ 0000000180044540     libucrtd:lcidtoname_downlevel.obj
 0002:0000b550       ??_C@_1M@DNMLCIHB@?$AAe?$AAs?$AA?9?$AAV?$AAE@ 0000000180044550     libucrtd:lcidtoname_downlevel.obj
 0002:0000b560       ??_C@_1O@EOKHMKJK@?$AAs?$AAm?$AAs?$AA?9?$AAF?$AAI@ 0000000180044560     libucrtd:lcidtoname_downlevel.obj
 0002:0000b570       ??_C@_1M@CAFJMKOF@?$AAa?$AAr?$AA?9?$AAY?$AAE@ 0000000180044570     libucrtd:lcidtoname_downlevel.obj
 0002:0000b580       ??_C@_1M@CBFHIJLI@?$AAe?$AAn?$AA?9?$AAC?$AAB@ 0000000180044580     libucrtd:lcidtoname_downlevel.obj
 0002:0000b590       ??_C@_1M@BGNFLDN@?$AAe?$AAs?$AA?9?$AAC?$AAO@ 0000000180044590     libucrtd:lcidtoname_downlevel.obj
 0002:0000b5a0       ??_C@_1O@JMPHMAMC@?$AAs?$AAm?$AAn?$AA?9?$AAF?$AAI@ 00000001800445a0     libucrtd:lcidtoname_downlevel.obj
 0002:0000b5b0       ??_C@_1M@JLANABKE@?$AAa?$AAr?$AA?9?$AAS?$AAY@ 00000001800445b0     libucrtd:lcidtoname_downlevel.obj
 0002:0000b5c0       ??_C@_1M@HPKGCFGN@?$AAe?$AAn?$AA?9?$AAB?$AAZ@ 00000001800445c0     libucrtd:lcidtoname_downlevel.obj
 0002:0000b5d0       ??_C@_1M@OLJCMLGM@?$AAe?$AAs?$AA?9?$AAP?$AAE@ 00000001800445d0     libucrtd:lcidtoname_downlevel.obj
 0002:0000b5e0       ??_C@_1M@MKKGFKLE@?$AAa?$AAr?$AA?9?$AAJ?$AAO@ 00000001800445e0     libucrtd:lcidtoname_downlevel.obj
 0002:0000b5f0       ??_C@_1M@EKPGLDNI@?$AAe?$AAn?$AA?9?$AAT?$AAT@ 00000001800445f0     libucrtd:lcidtoname_downlevel.obj
 0002:0000b600       ??_C@_1M@OONGHFHE@?$AAe?$AAs?$AA?9?$AAA?$AAR@ 0000000180044600     libucrtd:lcidtoname_downlevel.obj
 0002:0000b610       ??_C@_1M@OOJFGBHE@?$AAa?$AAr?$AA?9?$AAL?$AAB@ 0000000180044610     libucrtd:lcidtoname_downlevel.obj
 0002:0000b620       ??_C@_1M@GCEJHNEG@?$AAe?$AAn?$AA?9?$AAZ?$AAW@ 0000000180044620     libucrtd:lcidtoname_downlevel.obj
 0002:0000b630       ??_C@_1M@JNOCAHJI@?$AAe?$AAs?$AA?9?$AAE?$AAC@ 0000000180044630     libucrtd:lcidtoname_downlevel.obj
 0002:0000b640       ??_C@_1M@JEFHPGGB@?$AAa?$AAr?$AA?9?$AAK?$AAW@ 0000000180044640     libucrtd:lcidtoname_downlevel.obj
 0002:0000b650       ??_C@_1M@MLKIBJOJ@?$AAe?$AAn?$AA?9?$AAP?$AAH@ 0000000180044650     libucrtd:lcidtoname_downlevel.obj
 0002:0000b660       ??_C@_1M@BDNIPEND@?$AAe?$AAs?$AA?9?$AAC?$AAL@ 0000000180044660     libucrtd:lcidtoname_downlevel.obj
 0002:0000b670       ??_C@_1M@MPNMEKBD@?$AAa?$AAr?$AA?9?$AAA?$AAE@ 0000000180044670     libucrtd:lcidtoname_downlevel.obj
 0002:0000b680       ??_C@_1M@KBJALCPI@?$AAe?$AAs?$AA?9?$AAU?$AAY@ 0000000180044680     libucrtd:lcidtoname_downlevel.obj
 0002:0000b690       ??_C@_1M@LLCCOAGA@?$AAa?$AAr?$AA?9?$AAB?$AAH@ 0000000180044690     libucrtd:lcidtoname_downlevel.obj
 0002:0000b6a0       ??_C@_1M@PBFNCDEL@?$AAe?$AAs?$AA?9?$AAP?$AAY@ 00000001800446a0     libucrtd:lcidtoname_downlevel.obj
 0002:0000b6b0       ??_C@_1M@EDGINPNP@?$AAa?$AAr?$AA?9?$AAQ?$AAA@ 00000001800446b0     libucrtd:lcidtoname_downlevel.obj
 0002:0000b6c0       ??_C@_1M@MKDBIIJI@?$AAe?$AAs?$AA?9?$AAB?$AAO@ 00000001800446c0     libucrtd:lcidtoname_downlevel.obj
 0002:0000b6d0       ??_C@_1M@CPKKEBLD@?$AAe?$AAs?$AA?9?$AAS?$AAV@ 00000001800446d0     libucrtd:lcidtoname_downlevel.obj
 0002:0000b6e0       ??_C@_1M@NDBGMMJL@?$AAe?$AAs?$AA?9?$AAH?$AAN@ 00000001800446e0     libucrtd:lcidtoname_downlevel.obj
 0002:0000b6f0       ??_C@_1M@JIJIBHDP@?$AAe?$AAs?$AA?9?$AAN?$AAI@ 00000001800446f0     libucrtd:lcidtoname_downlevel.obj
 0002:0000b700       ??_C@_1M@CGFMKEEK@?$AAe?$AAs?$AA?9?$AAP?$AAR@ 0000000180044700     libucrtd:lcidtoname_downlevel.obj
 0002:0000b710       ??_C@_1O@ICJHKIIK@?$AAz?$AAh?$AA?9?$AAC?$AAH?$AAT@ 0000000180044710     libucrtd:lcidtoname_downlevel.obj
 0002:0000b720       ??_C@_15CLNEJCE@?$AAs?$AAr@ 0000000180044720     libucrtd:lcidtoname_downlevel.obj
 0002:0000c570       ??_C@_1M@KAHEKEIG@?$AAa?$AAf?$AA?9?$AAz?$AAa@ 0000000180045570     libucrtd:lcidtoname_downlevel.obj
 0002:0000c580       ??_C@_1M@GIECOABL@?$AAa?$AAr?$AA?9?$AAa?$AAe@ 0000000180045580     libucrtd:lcidtoname_downlevel.obj
 0002:0000c590       ??_C@_1M@BMLMEKGI@?$AAa?$AAr?$AA?9?$AAb?$AAh@ 0000000180045590     libucrtd:lcidtoname_downlevel.obj
 0002:0000c5a0       ??_C@_1M@DAPFDGGB@?$AAa?$AAr?$AA?9?$AAd?$AAz@ 00000001800455a0     libucrtd:lcidtoname_downlevel.obj
 0002:0000c5b0       ??_C@_1M@FJNKGKIG@?$AAa?$AAr?$AA?9?$AAe?$AAg@ 00000001800455b0     libucrtd:lcidtoname_downlevel.obj
 0002:0000c5c0       ??_C@_1M@FLGKKCLO@?$AAa?$AAr?$AA?9?$AAi?$AAq@ 00000001800455c0     libucrtd:lcidtoname_downlevel.obj
 0002:0000c5d0       ??_C@_1M@GNDIPALM@?$AAa?$AAr?$AA?9?$AAj?$AAo@ 00000001800455d0     libucrtd:lcidtoname_downlevel.obj
 0002:0000c5e0       ??_C@_1M@DDMJFMGJ@?$AAa?$AAr?$AA?9?$AAk?$AAw@ 00000001800455e0     libucrtd:lcidtoname_downlevel.obj
 0002:0000c5f0       ??_C@_1M@EJALMLHM@?$AAa?$AAr?$AA?9?$AAl?$AAb@ 00000001800455f0     libucrtd:lcidtoname_downlevel.obj
 0002:0000c600       ??_C@_1M@MOBDBLOC@?$AAa?$AAr?$AA?9?$AAl?$AAy@ 0000000180045600     libucrtd:lcidtoname_downlevel.obj
 0002:0000c610       ??_C@_1M@JAOCLHDH@?$AAa?$AAr?$AA?9?$AAm?$AAa@ 0000000180045610     libucrtd:lcidtoname_downlevel.obj
 0002:0000c620       ??_C@_1M@JHPMKJIE@?$AAa?$AAr?$AA?9?$AAo?$AAm@ 0000000180045620     libucrtd:lcidtoname_downlevel.obj
 0002:0000c630       ??_C@_1M@OEPGHFNH@?$AAa?$AAr?$AA?9?$AAq?$AAa@ 0000000180045630     libucrtd:lcidtoname_downlevel.obj
 0002:0000c640       ??_C@_1M@KJDONENM@?$AAa?$AAr?$AA?9?$AAs?$AAa@ 0000000180045640     libucrtd:lcidtoname_downlevel.obj
 0002:0000c650       ??_C@_1M@DMJDKLKM@?$AAa?$AAr?$AA?9?$AAs?$AAy@ 0000000180045650     libucrtd:lcidtoname_downlevel.obj
 0002:0000c660       ??_C@_1M@OMFIPEDC@?$AAa?$AAr?$AA?9?$AAt?$AAn@ 0000000180045660     libucrtd:lcidtoname_downlevel.obj
 0002:0000c670       ??_C@_1M@IHMHGAON@?$AAa?$AAr?$AA?9?$AAy?$AAe@ 0000000180045670     libucrtd:lcidtoname_downlevel.obj
 0002:0000c680       ??_C@_1BG@KDCPGJGB@?$AAa?$AAz?$AA?9?$AAa?$AAz?$AA?9?$AAc?$AAy?$AAr?$AAl@ 0000000180045680     libucrtd:lcidtoname_downlevel.obj
 0002:0000c698       ??_C@_1BG@IBCKDDOE@?$AAa?$AAz?$AA?9?$AAa?$AAz?$AA?9?$AAl?$AAa?$AAt?$AAn@ 0000000180045698     libucrtd:lcidtoname_downlevel.obj
 0002:0000c6b0       ??_C@_1M@EGPFDCPD@?$AAb?$AAe?$AA?9?$AAb?$AAy@ 00000001800456b0     libucrtd:lcidtoname_downlevel.obj
 0002:0000c6c0       ??_C@_1M@PCMGMCGC@?$AAb?$AAg?$AA?9?$AAb?$AAg@ 00000001800456c0     libucrtd:lcidtoname_downlevel.obj
 0002:0000c6d0       ??_C@_1M@BJBMFGOB@?$AAb?$AAn?$AA?9?$AAi?$AAn@ 00000001800456d0     libucrtd:lcidtoname_downlevel.obj
 0002:0000c6e0       ??_C@_1BG@EAKMMACD@?$AAb?$AAs?$AA?9?$AAb?$AAa?$AA?9?$AAl?$AAa?$AAt?$AAn@ 00000001800456e0     libucrtd:lcidtoname_downlevel.obj
 0002:0000c6f8       ??_C@_1M@KGADAODK@?$AAc?$AAa?$AA?9?$AAe?$AAs@ 00000001800456f8     libucrtd:lcidtoname_downlevel.obj
 0002:0000c708       ??_C@_1M@COAJPDHI@?$AAc?$AAs?$AA?9?$AAc?$AAz@ 0000000180045708     libucrtd:lcidtoname_downlevel.obj
 0002:0000c718       ??_C@_1M@DHBHFONH@?$AAc?$AAy?$AA?9?$AAg?$AAb@ 0000000180045718     libucrtd:lcidtoname_downlevel.obj
 0002:0000c728       ??_C@_1M@IMGKELGA@?$AAd?$AAa?$AA?9?$AAd?$AAk@ 0000000180045728     libucrtd:lcidtoname_downlevel.obj
 0002:0000c738       ??_C@_1M@NNDGDNGA@?$AAd?$AAe?$AA?9?$AAa?$AAt@ 0000000180045738     libucrtd:lcidtoname_downlevel.obj
 0002:0000c748       ??_C@_1M@IKDBHEEM@?$AAd?$AAe?$AA?9?$AAc?$AAh@ 0000000180045748     libucrtd:lcidtoname_downlevel.obj
 0002:0000c758       ??_C@_1M@GFFOJMCJ@?$AAd?$AAe?$AA?9?$AAd?$AAe@ 0000000180045758     libucrtd:lcidtoname_downlevel.obj
 0002:0000c768       ??_C@_1M@MDNLKBPM@?$AAd?$AAe?$AA?9?$AAl?$AAi@ 0000000180045768     libucrtd:lcidtoname_downlevel.obj
 0002:0000c778       ??_C@_1M@NJBEEJNL@?$AAd?$AAe?$AA?9?$AAl?$AAu@ 0000000180045778     libucrtd:lcidtoname_downlevel.obj
 0002:0000c788       ??_C@_1O@GNNELBAP@?$AAd?$AAi?$AAv?$AA?9?$AAm?$AAv@ 0000000180045788     libucrtd:lcidtoname_downlevel.obj
 0002:0000c798       ??_C@_1M@EJLEOGAE@?$AAe?$AAl?$AA?9?$AAg?$AAr@ 0000000180045798     libucrtd:lcidtoname_downlevel.obj
 0002:0000c7a8       ??_C@_1M@GMPONJN@?$AAe?$AAn?$AA?9?$AAa?$AAu@ 00000001800457a8     libucrtd:lcidtoname_downlevel.obj
 0002:0000c7b8       ??_C@_1M@NIDIIPGF@?$AAe?$AAn?$AA?9?$AAb?$AAz@ 00000001800457b8     libucrtd:lcidtoname_downlevel.obj
 0002:0000c7c8       ??_C@_1M@JEHMIMFO@?$AAe?$AAn?$AA?9?$AAc?$AAa@ 00000001800457c8     libucrtd:lcidtoname_downlevel.obj
 0002:0000c7d8       ??_C@_1M@IGMJCDLA@?$AAe?$AAn?$AA?9?$AAc?$AAb@ 00000001800457d8     libucrtd:lcidtoname_downlevel.obj
 0002:0000c7e8       ??_C@_1M@BNFIGBKG@?$AAe?$AAn?$AA?9?$AAg?$AAb@ 00000001800457e8     libucrtd:lcidtoname_downlevel.obj
 0002:0000c7f8       ??_C@_1M@LKIFDIGP@?$AAe?$AAn?$AA?9?$AAi?$AAe@ 00000001800457f8     libucrtd:lcidtoname_downlevel.obj
 0002:0000c808       ??_C@_1M@PJKFGCCO@?$AAe?$AAn?$AA?9?$AAj?$AAm@ 0000000180045808     libucrtd:lcidtoname_downlevel.obj
 0002:0000c818       ??_C@_1M@KPPKEPBO@?$AAe?$AAn?$AA?9?$AAn?$AAz@ 0000000180045818     libucrtd:lcidtoname_downlevel.obj
 0002:0000c828       ??_C@_1M@GMDGLDOB@?$AAe?$AAn?$AA?9?$AAp?$AAh@ 0000000180045828     libucrtd:lcidtoname_downlevel.obj
 0002:0000c838       ??_C@_1M@ONGIBJNA@?$AAe?$AAn?$AA?9?$AAt?$AAt@ 0000000180045838     libucrtd:lcidtoname_downlevel.obj
 0002:0000c848       ??_C@_1M@LLODPCMM@?$AAe?$AAn?$AA?9?$AAu?$AAs@ 0000000180045848     libucrtd:lcidtoname_downlevel.obj
 0002:0000c858       ??_C@_1M@LAKFNPAN@?$AAe?$AAn?$AA?9?$AAz?$AAa@ 0000000180045858     libucrtd:lcidtoname_downlevel.obj
 0002:0000c868       ??_C@_1M@MFNHNHEO@?$AAe?$AAn?$AA?9?$AAz?$AAw@ 0000000180045868     libucrtd:lcidtoname_downlevel.obj
 0002:0000c878       ??_C@_1M@EJEINPHM@?$AAe?$AAs?$AA?9?$AAa?$AAr@ 0000000180045878     libucrtd:lcidtoname_downlevel.obj
 0002:0000c888       ??_C@_1M@GNKPCCJA@?$AAe?$AAs?$AA?9?$AAb?$AAo@ 0000000180045888     libucrtd:lcidtoname_downlevel.obj
 0002:0000c898       ??_C@_1M@LEEGFONL@?$AAe?$AAs?$AA?9?$AAc?$AAl@ 0000000180045898     libucrtd:lcidtoname_downlevel.obj
 0002:0000c8a8       ??_C@_1M@KGPDPBDF@?$AAe?$AAs?$AA?9?$AAc?$AAo@ 00000001800458a8     libucrtd:lcidtoname_downlevel.obj
 0002:0000c8b8       ??_C@_1M@EIAHOHH@?$AAe?$AAs?$AA?9?$AAc?$AAr@ 00000001800458b8     libucrtd:lcidtoname_downlevel.obj
 0002:0000c8c8       ??_C@_1M@LLPGMBIN@?$AAe?$AAs?$AA?9?$AAd?$AAo@ 00000001800458c8     libucrtd:lcidtoname_downlevel.obj
 0002:0000c8d8       ??_C@_1M@DKHMKNJA@?$AAe?$AAs?$AA?9?$AAe?$AAc@ 00000001800458d8     libucrtd:lcidtoname_downlevel.obj
 0002:0000c8e8       ??_C@_1M@GKGFPKAP@?$AAe?$AAs?$AA?9?$AAe?$AAs@ 00000001800458e8     libucrtd:lcidtoname_downlevel.obj
 0002:0000c8f8       ??_C@_1M@LKHKGDLN@?$AAe?$AAs?$AA?9?$AAg?$AAt@ 00000001800458f8     libucrtd:lcidtoname_downlevel.obj
 0002:0000c908       ??_C@_1M@HEIIGGJD@?$AAe?$AAs?$AA?9?$AAh?$AAn@ 0000000180045908     libucrtd:lcidtoname_downlevel.obj
 0002:0000c918       ??_C@_1M@FBDHPPGD@?$AAe?$AAs?$AA?9?$AAm?$AAx@ 0000000180045918     libucrtd:lcidtoname_downlevel.obj
 0002:0000c928       ??_C@_1M@DPAGLNDH@?$AAe?$AAs?$AA?9?$AAn?$AAi@ 0000000180045928     libucrtd:lcidtoname_downlevel.obj
 0002:0000c938       ??_C@_1M@MDGOPGDD@?$AAe?$AAs?$AA?9?$AAp?$AAa@ 0000000180045938     libucrtd:lcidtoname_downlevel.obj
 0002:0000c948       ??_C@_1M@EMAMGBGE@?$AAe?$AAs?$AA?9?$AAp?$AAe@ 0000000180045948     libucrtd:lcidtoname_downlevel.obj
 0002:0000c958       ??_C@_1M@IBMCAOEC@?$AAe?$AAs?$AA?9?$AAp?$AAr@ 0000000180045958     libucrtd:lcidtoname_downlevel.obj
 0002:0000c968       ??_C@_1M@FGMDIJED@?$AAe?$AAs?$AA?9?$AAp?$AAy@ 0000000180045968     libucrtd:lcidtoname_downlevel.obj
 0002:0000c978       ??_C@_1M@IIDEOLLL@?$AAe?$AAs?$AA?9?$AAs?$AAv@ 0000000180045978     libucrtd:lcidtoname_downlevel.obj
 0002:0000c988       ??_C@_1M@GAOBIPA@?$AAe?$AAs?$AA?9?$AAu?$AAy@ 0000000180045988     libucrtd:lcidtoname_downlevel.obj
 0002:0000c998       ??_C@_1M@JKFFICHJ@?$AAe?$AAs?$AA?9?$AAv?$AAe@ 0000000180045998     libucrtd:lcidtoname_downlevel.obj
 0002:0000c9a8       ??_C@_1M@PNMLOJDF@?$AAe?$AAt?$AA?9?$AAe?$AAe@ 00000001800459a8     libucrtd:lcidtoname_downlevel.obj
 0002:0000c9b8       ??_C@_1M@GHHLIKEI@?$AAe?$AAu?$AA?9?$AAe?$AAs@ 00000001800459b8     libucrtd:lcidtoname_downlevel.obj
 0002:0000c9c8       ??_C@_1M@PBNONODE@?$AAf?$AAa?$AA?9?$AAi?$AAr@ 00000001800459c8     libucrtd:lcidtoname_downlevel.obj
 0002:0000c9d8       ??_C@_1M@JEEHPMIL@?$AAf?$AAi?$AA?9?$AAf?$AAi@ 00000001800459d8     libucrtd:lcidtoname_downlevel.obj
 0002:0000c9e8       ??_C@_1M@LMDCNDBA@?$AAf?$AAo?$AA?9?$AAf?$AAo@ 00000001800459e8     libucrtd:lcidtoname_downlevel.obj
 0002:0000c9f8       ??_C@_1M@JKEOHLDK@?$AAf?$AAr?$AA?9?$AAb?$AAe@ 00000001800459f8     libucrtd:lcidtoname_downlevel.obj
 0002:0000ca08       ??_C@_1M@NOHADPMI@?$AAf?$AAr?$AA?9?$AAc?$AAa@ 0000000180045a08     libucrtd:lcidtoname_downlevel.obj
 0002:0000ca18       ??_C@_1M@KDHIHAEC@?$AAf?$AAr?$AA?9?$AAc?$AAh@ 0000000180045a18     libucrtd:lcidtoname_downlevel.obj
 0002:0000ca28       ??_C@_1M@MMBBFGAK@?$AAf?$AAr?$AA?9?$AAf?$AAr@ 0000000180045a28     libucrtd:lcidtoname_downlevel.obj
 0002:0000ca38       ??_C@_1M@PAFNENNF@?$AAf?$AAr?$AA?9?$AAl?$AAu@ 0000000180045a38     libucrtd:lcidtoname_downlevel.obj
 0002:0000ca48       ??_C@_1M@EOHDJGDD@?$AAf?$AAr?$AA?9?$AAm?$AAc@ 0000000180045a48     libucrtd:lcidtoname_downlevel.obj
 0002:0000ca58       ??_C@_1M@FAPLLOPF@?$AAg?$AAl?$AA?9?$AAe?$AAs@ 0000000180045a58     libucrtd:lcidtoname_downlevel.obj
 0002:0000ca68       ??_C@_1M@FOPBFLOO@?$AAg?$AAu?$AA?9?$AAi?$AAn@ 0000000180045a68     libucrtd:lcidtoname_downlevel.obj
 0002:0000ca78       ??_C@_1M@KBMCINPM@?$AAh?$AAe?$AA?9?$AAi?$AAl@ 0000000180045a78     libucrtd:lcidtoname_downlevel.obj
 0002:0000ca88       ??_C@_1M@BBPHKFPJ@?$AAh?$AAi?$AA?9?$AAi?$AAn@ 0000000180045a88     libucrtd:lcidtoname_downlevel.obj
 0002:0000ca98       ??_C@_1M@PMBNDPHD@?$AAh?$AAr?$AA?9?$AAb?$AAa@ 0000000180045a98     libucrtd:lcidtoname_downlevel.obj
 0002:0000caa8       ??_C@_1M@BPCKOEGE@?$AAh?$AAr?$AA?9?$AAh?$AAr@ 0000000180045aa8     libucrtd:lcidtoname_downlevel.obj
 0002:0000cab8       ??_C@_1M@GACBMHKE@?$AAh?$AAu?$AA?9?$AAh?$AAu@ 0000000180045ab8     libucrtd:lcidtoname_downlevel.obj
 0002:0000cac8       ??_C@_1M@MILPAJJC@?$AAh?$AAy?$AA?9?$AAa?$AAm@ 0000000180045ac8     libucrtd:lcidtoname_downlevel.obj
 0002:0000cad8       ??_C@_1M@BABBICEC@?$AAi?$AAd?$AA?9?$AAi?$AAd@ 0000000180045ad8     libucrtd:lcidtoname_downlevel.obj
 0002:0000cae8       ??_C@_1M@BIKNHHPF@?$AAi?$AAs?$AA?9?$AAi?$AAs@ 0000000180045ae8     libucrtd:lcidtoname_downlevel.obj
 0002:0000caf8       ??_C@_1M@NMPCJPHE@?$AAi?$AAt?$AA?9?$AAc?$AAh@ 0000000180045af8     libucrtd:lcidtoname_downlevel.obj
 0002:0000cb08       ??_C@_1M@GHKGFEDF@?$AAi?$AAt?$AA?9?$AAi?$AAt@ 0000000180045b08     libucrtd:lcidtoname_downlevel.obj
 0002:0000cb18       ??_C@_1M@NIEJCJJA@?$AAj?$AAa?$AA?9?$AAj?$AAp@ 0000000180045b18     libucrtd:lcidtoname_downlevel.obj
 0002:0000cb28       ??_C@_1M@JILFNBIM@?$AAk?$AAa?$AA?9?$AAg?$AAe@ 0000000180045b28     libucrtd:lcidtoname_downlevel.obj
 0002:0000cb38       ??_C@_1M@PACPMGPH@?$AAk?$AAk?$AA?9?$AAk?$AAz@ 0000000180045b38     libucrtd:lcidtoname_downlevel.obj
 0002:0000cb48       ??_C@_1M@IELFGMHA@?$AAk?$AAn?$AA?9?$AAi?$AAn@ 0000000180045b48     libucrtd:lcidtoname_downlevel.obj
 0002:0000cb58       ??_C@_1O@IBBJHCH@?$AAk?$AAo?$AAk?$AA?9?$AAi?$AAn@ 0000000180045b58     libucrtd:lcidtoname_downlevel.obj
 0002:0000cb68       ??_C@_1M@DMHAEOGC@?$AAk?$AAo?$AA?9?$AAk?$AAr@ 0000000180045b68     libucrtd:lcidtoname_downlevel.obj
 0002:0000cb78       ??_C@_1M@HBAHBIGA@?$AAk?$AAy?$AA?9?$AAk?$AAg@ 0000000180045b78     libucrtd:lcidtoname_downlevel.obj
 0002:0000cb88       ??_C@_1M@KPMILCJG@?$AAl?$AAt?$AA?9?$AAl?$AAt@ 0000000180045b88     libucrtd:lcidtoname_downlevel.obj
 0002:0000cb98       ??_C@_1M@BDEKKCA@?$AAl?$AAv?$AA?9?$AAl?$AAv@ 0000000180045b98     libucrtd:lcidtoname_downlevel.obj
 0002:0000cba8       ??_C@_1M@ELCKCCJJ@?$AAm?$AAi?$AA?9?$AAn?$AAz@ 0000000180045ba8     libucrtd:lcidtoname_downlevel.obj
 0002:0000cbb8       ??_C@_1M@CBOOLAPA@?$AAm?$AAk?$AA?9?$AAm?$AAk@ 0000000180045bb8     libucrtd:lcidtoname_downlevel.obj
 0002:0000cbc8       ??_C@_1M@GPHNBJKN@?$AAm?$AAl?$AA?9?$AAi?$AAn@ 0000000180045bc8     libucrtd:lcidtoname_downlevel.obj
 0002:0000cbd8       ??_C@_1M@PABJILIG@?$AAm?$AAn?$AA?9?$AAm?$AAn@ 0000000180045bd8     libucrtd:lcidtoname_downlevel.obj
 0002:0000cbe8       ??_C@_1M@FGBKKIPG@?$AAm?$AAr?$AA?9?$AAi?$AAn@ 0000000180045be8     libucrtd:lcidtoname_downlevel.obj
 0002:0000cbf8       ??_C@_1M@NDBPDDAL@?$AAm?$AAs?$AA?9?$AAb?$AAn@ 0000000180045bf8     libucrtd:lcidtoname_downlevel.obj
 0002:0000cc08       ??_C@_1M@OPIHOOPI@?$AAm?$AAs?$AA?9?$AAm?$AAy@ 0000000180045c08     libucrtd:lcidtoname_downlevel.obj
 0002:0000cc18       ??_C@_1M@PPDBCNFM@?$AAm?$AAt?$AA?9?$AAm?$AAt@ 0000000180045c18     libucrtd:lcidtoname_downlevel.obj
 0002:0000cc28       ??_C@_1M@KDJDKMDD@?$AAn?$AAb?$AA?9?$AAn?$AAo@ 0000000180045c28     libucrtd:lcidtoname_downlevel.obj
 0002:0000cc38       ??_C@_1M@KFCFLMJP@?$AAn?$AAl?$AA?9?$AAb?$AAe@ 0000000180045c38     libucrtd:lcidtoname_downlevel.obj
 0002:0000cc48       ??_C@_1M@KPOPDDGO@?$AAn?$AAl?$AA?9?$AAn?$AAl@ 0000000180045c48     libucrtd:lcidtoname_downlevel.obj
 0002:0000cc58       ??_C@_1M@LJKPEMLN@?$AAn?$AAn?$AA?9?$AAn?$AAo@ 0000000180045c58     libucrtd:lcidtoname_downlevel.obj
 0002:0000cc68       ??_C@_1M@BDGHHBFL@?$AAn?$AAs?$AA?9?$AAz?$AAa@ 0000000180045c68     libucrtd:lcidtoname_downlevel.obj
 0002:0000cc78       ??_C@_1M@IDEHOAP@?$AAp?$AAa?$AA?9?$AAi?$AAn@ 0000000180045c78     libucrtd:lcidtoname_downlevel.obj
 0002:0000cc88       ??_C@_1M@HDBKGOGH@?$AAp?$AAl?$AA?9?$AAp?$AAl@ 0000000180045c88     libucrtd:lcidtoname_downlevel.obj
 0002:0000cc98       ??_C@_1M@LJLLCMEH@?$AAp?$AAt?$AA?9?$AAb?$AAr@ 0000000180045c98     libucrtd:lcidtoname_downlevel.obj
 0002:0000cca8       ??_C@_1M@NCMONAAL@?$AAp?$AAt?$AA?9?$AAp?$AAt@ 0000000180045ca8     libucrtd:lcidtoname_downlevel.obj
 0002:0000ccb8       ??_C@_1O@EAKMAJDN@?$AAq?$AAu?$AAz?$AA?9?$AAb?$AAo@ 0000000180045cb8     libucrtd:lcidtoname_downlevel.obj
 0002:0000ccc8       ??_C@_1O@BHHPIGDN@?$AAq?$AAu?$AAz?$AA?9?$AAe?$AAc@ 0000000180045cc8     libucrtd:lcidtoname_downlevel.obj
 0002:0000ccd8       ??_C@_1O@GBAPEKMJ@?$AAq?$AAu?$AAz?$AA?9?$AAp?$AAe@ 0000000180045cd8     libucrtd:lcidtoname_downlevel.obj
 0002:0000cce8       ??_C@_1M@CLGLEFBO@?$AAr?$AAo?$AA?9?$AAr?$AAo@ 0000000180045ce8     libucrtd:lcidtoname_downlevel.obj
 0002:0000ccf8       ??_C@_1M@CEEDODME@?$AAr?$AAu?$AA?9?$AAr?$AAu@ 0000000180045cf8     libucrtd:lcidtoname_downlevel.obj
 0002:0000cd08       ??_C@_1M@HPKKKMPP@?$AAs?$AAa?$AA?9?$AAi?$AAn@ 0000000180045d08     libucrtd:lcidtoname_downlevel.obj
 0002:0000cd18       ??_C@_1M@BKMAIGOJ@?$AAs?$AAe?$AA?9?$AAf?$AAi@ 0000000180045d18     libucrtd:lcidtoname_downlevel.obj
 0002:0000cd28       ??_C@_1M@NDPIFLFI@?$AAs?$AAe?$AA?9?$AAn?$AAo@ 0000000180045d28     libucrtd:lcidtoname_downlevel.obj
 0002:0000cd38       ??_C@_1M@DANKKHJ@?$AAs?$AAe?$AA?9?$AAs?$AAe@ 0000000180045d38     libucrtd:lcidtoname_downlevel.obj
 0002:0000cd48       ??_C@_1M@PNBLONPJ@?$AAs?$AAk?$AA?9?$AAs?$AAk@ 0000000180045d48     libucrtd:lcidtoname_downlevel.obj
 0002:0000cd58       ??_C@_1M@LFMODOAL@?$AAs?$AAl?$AA?9?$AAs?$AAi@ 0000000180045d58     libucrtd:lcidtoname_downlevel.obj
 0002:0000cd68       ??_C@_1O@DFKOMPG@?$AAs?$AAm?$AAa?$AA?9?$AAn?$AAo@ 0000000180045d68     libucrtd:lcidtoname_downlevel.obj
 0002:0000cd78       ??_C@_1O@NDKPBNNH@?$AAs?$AAm?$AAa?$AA?9?$AAs?$AAe@ 0000000180045d78     libucrtd:lcidtoname_downlevel.obj
 0002:0000cd88       ??_C@_1O@PLLKBHAB@?$AAs?$AAm?$AAj?$AA?9?$AAn?$AAo@ 0000000180045d88     libucrtd:lcidtoname_downlevel.obj
 0002:0000cd98       ??_C@_1O@CLEPOGCA@?$AAs?$AAm?$AAj?$AA?9?$AAs?$AAe@ 0000000180045d98     libucrtd:lcidtoname_downlevel.obj
 0002:0000cda8       ??_C@_1O@DLGJGKMK@?$AAs?$AAm?$AAn?$AA?9?$AAf?$AAi@ 0000000180045da8     libucrtd:lcidtoname_downlevel.obj
 0002:0000cdb8       ??_C@_1O@OJDJGAJC@?$AAs?$AAm?$AAs?$AA?9?$AAf?$AAi@ 0000000180045db8     libucrtd:lcidtoname_downlevel.obj
 0002:0000cdc8       ??_C@_1M@BOFOGHPB@?$AAs?$AAq?$AA?9?$AAa?$AAl@ 0000000180045dc8     libucrtd:lcidtoname_downlevel.obj
 0002:0000cdd8       ??_C@_1BG@LJBBIPGB@?$AAs?$AAr?$AA?9?$AAb?$AAa?$AA?9?$AAc?$AAy?$AAr?$AAl@ 0000000180045dd8     libucrtd:lcidtoname_downlevel.obj
 0002:0000cdf0       ??_C@_1BG@JLBENFOE@?$AAs?$AAr?$AA?9?$AAb?$AAa?$AA?9?$AAl?$AAa?$AAt?$AAn@ 0000000180045df0     libucrtd:lcidtoname_downlevel.obj
 0002:0000ce08       ??_C@_1BG@KODPNHE@?$AAs?$AAr?$AA?9?$AAs?$AAp?$AA?9?$AAc?$AAy?$AAr?$AAl@ 0000000180045e08     libucrtd:lcidtoname_downlevel.obj
 0002:0000ce20       ??_C@_1BG@CIOGKHPB@?$AAs?$AAr?$AA?9?$AAs?$AAp?$AA?9?$AAl?$AAa?$AAt?$AAn@ 0000000180045e20     libucrtd:lcidtoname_downlevel.obj
 0002:0000ce38       ??_C@_1M@NGFJLMAC@?$AAs?$AAv?$AA?9?$AAf?$AAi@ 0000000180045e38     libucrtd:lcidtoname_downlevel.obj
 0002:0000ce48       ??_C@_1M@MPJEJAJC@?$AAs?$AAv?$AA?9?$AAs?$AAe@ 0000000180045e48     libucrtd:lcidtoname_downlevel.obj
 0002:0000ce58       ??_C@_1M@MPNDHLFK@?$AAs?$AAw?$AA?9?$AAk?$AAe@ 0000000180045e58     libucrtd:lcidtoname_downlevel.obj
 0002:0000ce68       ??_C@_1O@KOHBJJI@?$AAs?$AAy?$AAr?$AA?9?$AAs?$AAy@ 0000000180045e68     libucrtd:lcidtoname_downlevel.obj
 0002:0000ce78       ??_C@_1M@LDCEFHA@?$AAt?$AAa?$AA?9?$AAi?$AAn@ 0000000180045e78     libucrtd:lcidtoname_downlevel.obj
 0002:0000ce88       ??_C@_1M@CNJOFAK@?$AAt?$AAe?$AA?9?$AAi?$AAn@ 0000000180045e88     libucrtd:lcidtoname_downlevel.obj
 0002:0000ce98       ??_C@_1M@GNAECACD@?$AAt?$AAh?$AA?9?$AAt?$AAh@ 0000000180045e98     libucrtd:lcidtoname_downlevel.obj
 0002:0000cea8       ??_C@_1M@CHBIHOJO@?$AAt?$AAn?$AA?9?$AAz?$AAa@ 0000000180045ea8     libucrtd:lcidtoname_downlevel.obj
 0002:0000ceb8       ??_C@_1M@GCCMIGPJ@?$AAt?$AAr?$AA?9?$AAt?$AAr@ 0000000180045eb8     libucrtd:lcidtoname_downlevel.obj
 0002:0000cec8       ??_C@_1M@CELMCNBK@?$AAt?$AAt?$AA?9?$AAr?$AAu@ 0000000180045ec8     libucrtd:lcidtoname_downlevel.obj
 0002:0000ced8       ??_C@_1M@KLMCELGA@?$AAu?$AAk?$AA?9?$AAu?$AAa@ 0000000180045ed8     libucrtd:lcidtoname_downlevel.obj
 0002:0000cee8       ??_C@_1M@EPAJJAJF@?$AAu?$AAr?$AA?9?$AAp?$AAk@ 0000000180045ee8     libucrtd:lcidtoname_downlevel.obj
 0002:0000cef8       ??_C@_1BG@GEGPMCDJ@?$AAu?$AAz?$AA?9?$AAu?$AAz?$AA?9?$AAc?$AAy?$AAr?$AAl@ 0000000180045ef8     libucrtd:lcidtoname_downlevel.obj
 0002:0000cf10       ??_C@_1BG@EGGKJILM@?$AAu?$AAz?$AA?9?$AAu?$AAz?$AA?9?$AAl?$AAa?$AAt?$AAn@ 0000000180045f10     libucrtd:lcidtoname_downlevel.obj
 0002:0000cf28       ??_C@_1M@GFOCLFF@?$AAv?$AAi?$AA?9?$AAv?$AAn@ 0000000180045f28     libucrtd:lcidtoname_downlevel.obj
 0002:0000cf38       ??_C@_1M@CPAMEDFI@?$AAx?$AAh?$AA?9?$AAz?$AAa@ 0000000180045f38     libucrtd:lcidtoname_downlevel.obj
 0002:0000cf48       ??_C@_1O@EBKIFIGN@?$AAz?$AAh?$AA?9?$AAc?$AAh?$AAs@ 0000000180045f48     libucrtd:lcidtoname_downlevel.obj
 0002:0000cf58       ??_C@_1O@NMHPGANE@?$AAz?$AAh?$AA?9?$AAc?$AAh?$AAt@ 0000000180045f58     libucrtd:lcidtoname_downlevel.obj
 0002:0000cf68       ??_C@_1M@LPINJOMC@?$AAz?$AAh?$AA?9?$AAc?$AAn@ 0000000180045f68     libucrtd:lcidtoname_downlevel.obj
 0002:0000cf78       ??_C@_1M@OCJEJODD@?$AAz?$AAh?$AA?9?$AAh?$AAk@ 0000000180045f78     libucrtd:lcidtoname_downlevel.obj
 0002:0000cf88       ??_C@_1M@DNDLJINH@?$AAz?$AAh?$AA?9?$AAm?$AAo@ 0000000180045f88     libucrtd:lcidtoname_downlevel.obj
 0002:0000cf98       ??_C@_1M@MBFDNDND@?$AAz?$AAh?$AA?9?$AAs?$AAg@ 0000000180045f98     libucrtd:lcidtoname_downlevel.obj
 0002:0000cfa8       ??_C@_1M@IMEPLEPE@?$AAz?$AAh?$AA?9?$AAt?$AAw@ 0000000180045fa8     libucrtd:lcidtoname_downlevel.obj
 0002:0000cfb8       ??_C@_1M@BBGHNHJP@?$AAz?$AAu?$AA?9?$AAz?$AAa@ 0000000180045fb8     libucrtd:lcidtoname_downlevel.obj
 0002:0000cfc8       ??_C@_0DB@JFFPGLDM@minkernel?2crts?2ucrt?2src?2appcrt?2@ 0000000180045fc8     libucrtd:osfinfo.obj
 0002:0000d000       ??_C@_1EM@BPODPNEJ@?$AAs?$AAt?$AAa?$AAt?$AAi?$AAc?$AA_?$AAc?$AAa?$AAs?$AAt?$AA?$DM?$AAu?$AAn?$AAs@ 0000000180046000     libucrtd:osfinfo.obj
 0002:0000d050       ??_C@_1GC@LDGKBAFM@?$AAm?$AAi?$AAn?$AAk?$AAe?$AAr?$AAn?$AAe?$AAl?$AA?2?$AAc?$AAr?$AAt?$AAs?$AA?2@ 0000000180046050     libucrtd:osfinfo.obj
 0002:0000d0b8       ??_C@_1DM@JELNOMLN@?$AA_?$AA_?$AAa?$AAc?$AAr?$AAt?$AA_?$AAl?$AAo?$AAw?$AAi?$AAo?$AA_?$AAe?$AAn@ 00000001800460b8     libucrtd:osfinfo.obj
 0002:0000d100       ??_C@_1FK@MGHFJLAL@?$AAf?$AAh?$AA?5?$AA?$DO?$AA?$DN?$AA?5?$AA0?$AA?5?$AA?$CG?$AA?$CG?$AA?5?$AA?$CI?$AAu?$AAn?$AAs@ 0000000180046100     libucrtd:osfinfo.obj
 0002:0000d160       ??_C@_1BO@EMBOBGKE@?$AA_?$AAg?$AAe?$AAt?$AA_?$AAo?$AAs?$AAf?$AAh?$AAa?$AAn?$AAd?$AAl?$AAe@ 0000000180046160     libucrtd:osfinfo.obj
 0002:0000d180       ??_C@_1CI@ILOIOBLM@?$AA_?$AAo?$AAs?$AAf?$AAi?$AAl?$AAe?$AA?$CI?$AAf?$AAh?$AA?$CJ?$AA?5?$AA?$CG?$AA?5?$AAF@ 0000000180046180     libucrtd:osfinfo.obj
 0002:0000d1b0       __newctype                 00000001800461b0     libucrtd:ctype.obj
 0002:0000d4b0       __newclmap                 00000001800464b0     libucrtd:ctype.obj
 0002:0000d630       __newcumap                 0000000180046630     libucrtd:ctype.obj
 0002:0000d7b0       _wctype                    00000001800467b0     libucrtd:ctype.obj
 0002:0000d9c0       ??_C@_1FO@LPCLHKGE@?$AA?$CI?$AAf?$AAh?$AA?5?$AA?$DO?$AA?$DN?$AA?5?$AA0?$AA?5?$AA?$CG?$AA?$CG?$AA?5?$AA?$CI?$AAu?$AAn@ 00000001800469c0     libucrtd:isatty.obj
 0002:0000da20       ??_C@_1GA@DEPMKPD@?$AAm?$AAi?$AAn?$AAk?$AAe?$AAr?$AAn?$AAe?$AAl?$AA?2?$AAc?$AAr?$AAt?$AAs?$AA?2@ 0000000180046a20     libucrtd:isatty.obj
 0002:0000da80       ??_C@_1BA@LEBDGIHM@?$AA_?$AAi?$AAs?$AAa?$AAt?$AAt?$AAy@ 0000000180046a80     libucrtd:isatty.obj
 0002:0000da90       ??_C@_1DE@BCNCAIK@?$AA?$CI?$AA?$CC?$AAI?$AAn?$AAv?$AAa?$AAl?$AAi?$AAd?$AA?5?$AAe?$AAr?$AAr?$AAo?$AAr@ 0000000180046a90     libucrtd:set_error_mode.obj
 0002:0000dad0       ??_C@_1GO@EBFPMMIJ@?$AAm?$AAi?$AAn?$AAk?$AAe?$AAr?$AAn?$AAe?$AAl?$AA?2?$AAc?$AAr?$AAt?$AAs?$AA?2@ 0000000180046ad0     libucrtd:set_error_mode.obj
 0002:0000db40       ??_C@_1CA@LFDHAMEM@?$AA_?$AAs?$AAe?$AAt?$AA_?$AAe?$AAr?$AAr?$AAo?$AAr?$AA_?$AAm?$AAo?$AAd?$AAe@ 0000000180046b40     libucrtd:set_error_mode.obj
 0002:0000db60       ??_C@_1GG@MCCIENJO@?$AAm?$AAi?$AAn?$AAk?$AAe?$AAr?$AAn?$AAe?$AAl?$AA?2?$AAc?$AAr?$AAt?$AAs?$AA?2@ 0000000180046b60     libucrtd:mbrtowc.obj
 0002:0000dbd0       ??_C@_1EK@MCEFBPIK@?$AAr?$AAe?$AAt?$AAv?$AAa?$AAl?$AA?5?$AA?$CB?$AA?$DN?$AA?5?$AA_?$AA_?$AAc?$AAr?$AAt@ 0000000180046bd0     libucrtd:mbrtowc.obj
 0002:0000dc20       ??_C@_1EK@OANGPA@?$AA1?$AA?5?$AA?$DM?$AA?$DN?$AA?5?$AAt?$AAr?$AAa?$AAi?$AAl?$AA_?$AAb?$AAy?$AAt?$AAe@ 0000000180046c20     libucrtd:c32rtomb.obj
 0002:0000dc70       ??_C@_1GI@FBFKMNDD@?$AAm?$AAi?$AAn?$AAk?$AAe?$AAr?$AAn?$AAe?$AAl?$AA?2?$AAc?$AAr?$AAt?$AAs?$AA?2@ 0000000180046c70     libucrtd:c32rtomb.obj
 0002:0000dce0       ??_C@_1EA@DDDCIHI@?$AAc?$AA3?$AA2?$AA?5?$AA?$DM?$AA?5?$AA?$CI?$AA1?$AAu?$AA?5?$AA?$DM?$AA?$DM?$AA?5?$AA?$CI?$AA7@ 0000000180046ce0     libucrtd:c32rtomb.obj
 0002:0000dd20       ??_C@_1GI@IMEEHIAK@?$AAm?$AAi?$AAn?$AAk?$AAe?$AAr?$AAn?$AAe?$AAl?$AA?2?$AAc?$AAr?$AAt?$AAs?$AA?2@ 0000000180046d20     libucrtd:_fptostr.obj
 0002:0000dd88       ??_C@_1DG@NMGBKPMI@?$AA_?$AA_?$AAa?$AAc?$AAr?$AAt?$AA_?$AAf?$AAp?$AA_?$AAs?$AAt?$AAr?$AAf?$AAl@ 0000000180046d88     libucrtd:_fptostr.obj
 0002:0000ddc0       ??_C@_1IE@EAOKIIFP@?$AAb?$AAu?$AAf?$AAf?$AAe?$AAr?$AA_?$AAc?$AAo?$AAu?$AAn?$AAt?$AA?5?$AA?$DO?$AA?5@ 0000000180046dc0     libucrtd:_fptostr.obj
 0002:0000de48       ??_C@_1CA@EDEEBMBB@?$AAp?$AAf?$AAl?$AAt?$AA?5?$AA?$CB?$AA?$DN?$AA?5?$AAn?$AAu?$AAl?$AAl?$AAp?$AAt?$AAr@ 0000000180046e48     libucrtd:_fptostr.obj
 0002:0000de70       ?large_power_data@?1??multiply_by_power_of_ten@__crt_strtox@@YA_NAEAUbig_integer@2@I@Z@4QBIB 0000000180046e70     libucrtd:cfout.obj
 0002:0000e780       ?large_power_indices@?1??multiply_by_power_of_ten@__crt_strtox@@YA_NAEAUbig_integer@2@I@Z@4QBUunpack_index@?1??12@YA_N0I@Z@B 0000000180047780     libucrtd:cfout.obj
 0002:0000e818       ?small_powers_of_ten@?1??multiply_by_power_of_ten@__crt_strtox@@YA_NAEAUbig_integer@2@I@Z@4QBIB 0000000180047818     libucrtd:cfout.obj
 0002:0000e840       ??_C@_1DI@GICAMMFM@?$AA?$CI?$AA?$CC?$AAD?$AAi?$AAv?$AAi?$AAs?$AAi?$AAo?$AAn?$AA?5?$AAb?$AAy?$AA?5?$AAz@ 0000000180047840     libucrtd:cfout.obj
 0002:0000e880       ??_C@_1GO@BFGDDONN@?$AAm?$AAi?$AAn?$AAk?$AAe?$AAr?$AAn?$AAe?$AAl?$AA?2?$AAc?$AAr?$AAt?$AAs?$AA?2@ 0000000180047880     libucrtd:cfout.obj
 0002:0000e8f0       ??_C@_1GC@DDAKNBNC@?$AAm?$AAi?$AAn?$AAk?$AAe?$AAr?$AAn?$AAe?$AAl?$AA?2?$AAc?$AAr?$AAt?$AAs?$AA?2@ 00000001800478f0     libucrtd:cfout.obj
 0002:0000e958       ??_C@_1BM@FAAOAKKO@?$AA_?$AA_?$AAa?$AAc?$AAr?$AAt?$AA_?$AAf?$AAl?$AAt?$AAo?$AAu?$AAt@ 0000000180047958     libucrtd:cfout.obj
 0002:0000e980       ??_C@_1EI@OACEJKEP@?$AAs?$AAt?$AAr?$AAc?$AAp?$AAy?$AA_?$AAs?$AA?$CI?$AAr?$AAe?$AAs?$AAu?$AAl?$AAt@ 0000000180047980     libucrtd:cfout.obj
 0002:0000e9c8       ??_C@_01GBGANLPD@0@        00000001800479c8     libucrtd:cfout.obj
 0002:0000e9d0       ??_C@_1FC@KIECGFMP@?$AAs?$AAt?$AAr?$AAc?$AAp?$AAy?$AA_?$AAs?$AA?$CI?$AAr?$AAe?$AAs?$AAu?$AAl?$AAt@ 00000001800479d0     libucrtd:cfout.obj
 0002:0000ea24       ??_C@_05DNEBIAHO@1?$CDINF@ 0000000180047a24     libucrtd:cfout.obj
 0002:0000ea30       ??_C@_1FC@NFPJEIBD@?$AAs?$AAt?$AAr?$AAc?$AAp?$AAy?$AA_?$AAs?$AA?$CI?$AAr?$AAe?$AAs?$AAu?$AAl?$AAt@ 0000000180047a30     libucrtd:cfout.obj
 0002:0000ea84       ??_C@_06IMKFLFPG@1?$CDQNAN@ 0000000180047a84     libucrtd:cfout.obj
 0002:0000ea90       ??_C@_1FC@DEJHIMLO@?$AAs?$AAt?$AAr?$AAc?$AAp?$AAy?$AA_?$AAs?$AA?$CI?$AAr?$AAe?$AAs?$AAu?$AAl?$AAt@ 0000000180047a90     libucrtd:cfout.obj
 0002:0000eae4       ??_C@_06PGGFOGJG@1?$CDSNAN@ 0000000180047ae4     libucrtd:cfout.obj
 0002:0000eaf0       ??_C@_1FC@KMLHLFPC@?$AAs?$AAt?$AAr?$AAc?$AAp?$AAy?$AA_?$AAs?$AA?$CI?$AAr?$AAe?$AAs?$AAu?$AAl?$AAt@ 0000000180047af0     libucrtd:cfout.obj
 0002:0000eb44       ??_C@_05PHHOCPM@1?$CDIND@  0000000180047b44     libucrtd:cfout.obj
 0002:0000eb50       ??_C@_1DE@KHKADFOO@?$AAm?$AAa?$AAn?$AAt?$AAi?$AAs?$AAs?$AAa?$AA_?$AAb?$AAu?$AAf?$AAf?$AAe?$AAr@ 0000000180047b50     libucrtd:cfout.obj
 0002:0000eb90       ??_C@_1FI@LFKLOPAC@?$AA?$CI?$AA?$CC?$AAu?$AAn?$AAe?$AAx?$AAp?$AAe?$AAc?$AAt?$AAe?$AAd?$AA?5?$AAi?$AAn@ 0000000180047b90     libucrtd:cfout.obj
 0002:0000ebf0       ??_C@_1FG@MLHBDPBG@?$AAq?$AAu?$AAo?$AAt?$AAi?$AAe?$AAn?$AAt?$AA?5?$AA?$DM?$AA?5?$AAd?$AAi?$AAg?$AAi@ 0000000180047bf0     libucrtd:cfout.obj
 0002:0000ec50       ??_C@_1GE@GPOPIOIG@?$AAm?$AAi?$AAn?$AAk?$AAe?$AAr?$AAn?$AAe?$AAl?$AA?2?$AAc?$AAr?$AAt?$AAs?$AA?2@ 0000000180047c50     libucrtd:_freebuf.obj
 0002:0000ecc0       ??_C@_1JE@ECKHFIFP@?$AA?$CI?$AA?$CC?$AAI?$AAn?$AAv?$AAa?$AAl?$AAi?$AAd?$AA?5?$AAf?$AAi?$AAl?$AAe?$AA?5@ 0000000180047cc0     libucrtd:commit.obj
 0002:0000ed60       ??_C@_1GA@MPOOLHCO@?$AAm?$AAi?$AAn?$AAk?$AAe?$AAr?$AAn?$AAe?$AAl?$AA?2?$AAc?$AAr?$AAt?$AAs?$AA?2@ 0000000180047d60     libucrtd:commit.obj
 0002:0000edc0       ??_C@_1BA@FLNMBBIM@?$AA_?$AAc?$AAo?$AAm?$AAm?$AAi?$AAt@ 0000000180047dc0     libucrtd:commit.obj
 0002:0000edd0       ??_C@_1CM@OKGMMMDH@?$AA?$CI?$AA_?$AAo?$AAs?$AAf?$AAi?$AAl?$AAe?$AA?$CI?$AAf?$AAh?$AA?$CJ?$AA?5?$AA?$CG?$AA?5@ 0000000180047dd0     libucrtd:commit.obj
 0002:0000ee00       ??_C@_1FO@CAMPMGCN@?$AAm?$AAi?$AAn?$AAk?$AAe?$AAr?$AAn?$AAe?$AAl?$AA?2?$AAc?$AAr?$AAt?$AAs?$AA?2@ 0000000180047e00     libucrtd:write.obj
 0002:0000ee60       ??_C@_1O@KOFKDHPL@?$AA_?$AAw?$AAr?$AAi?$AAt?$AAe@ 0000000180047e60     libucrtd:write.obj
 0002:0000ee70       ??_C@_1CK@MMEFCHHN@?$AA?$CB?$AA_?$AAd?$AAb?$AAc?$AAs?$AAB?$AAu?$AAf?$AAf?$AAe?$AAr?$AAU?$AAs?$AAe@ 0000000180047e70     libucrtd:write.obj
 0002:0000eea0       ??_C@_1EG@LICJGLJJ@?$AA1?$AA?5?$AA?$DM?$AA?5?$AAm?$AAb?$AA_?$AAl?$AAe?$AAn?$AA?5?$AA?$CG?$AA?$CG?$AA?5?$AAm@ 0000000180047ea0     libucrtd:write.obj
 0002:0000eef0       ??_C@_1FC@NFILPJB@?$AAm?$AAb?$AA_?$AAb?$AAu?$AAf?$AA_?$AAu?$AAs?$AAe?$AAd?$AA?5?$AA?$CL?$AA?5?$AAb@ 0000000180047ef0     libucrtd:write.obj
 0002:0000ef50       ??_C@_1FC@HEJOPHLA@?$AAa?$AAv?$AAa?$AAi?$AAl?$AAa?$AAb?$AAl?$AAe?$AA_?$AAb?$AAy?$AAt?$AAe?$AAs@ 0000000180047f50     libucrtd:write.obj
 0002:0000efa8       ??_C@_1DI@CNMHHHLG@?$AAi?$AAs?$AAl?$AAe?$AAa?$AAd?$AAb?$AAy?$AAt?$AAe?$AA?$CI?$AA_?$AAd?$AAb?$AAc@ 0000000180047fa8     libucrtd:write.obj
 0002:0000efe0       ??_C@_1BM@NCANHCIP@?$AA_?$AAw?$AAr?$AAi?$AAt?$AAe?$AA_?$AAn?$AAo?$AAl?$AAo?$AAc?$AAk@ 0000000180047fe0     libucrtd:write.obj
 0002:0000f000       ??_C@_1CK@CPEAGIIP@?$AAb?$AAu?$AAf?$AAf?$AAe?$AAr?$AA_?$AAs?$AAi?$AAz?$AAe?$AA?5?$AA?$CF?$AA?5?$AA2@ 0000000180048000     libucrtd:write.obj
 0002:0000f280       __real@3ff0000000000000    0000000180048280     libucrtd:ceil.obj
 0002:0000f288       ??_C@_1DG@JNDMIEJL@?$AA?$CI?$AA?$CC?$AAI?$AAn?$AAv?$AAa?$AAl?$AAi?$AAd?$AA?5?$AAi?$AAn?$AAp?$AAu?$AAt@ 0000000180048288     libucrtd:contrlfp.obj
 0002:0000f2c0       ??_C@_1FO@HHLKCIKB@?$AAm?$AAi?$AAn?$AAk?$AAe?$AAr?$AAn?$AAe?$AAl?$AA?2?$AAc?$AAr?$AAt?$AAs?$AA?2@ 00000001800482c0     libucrtd:contrlfp.obj
 0002:0000f320       ??_C@_1BK@CDOALEA@?$AA_?$AAc?$AAo?$AAn?$AAt?$AAr?$AAo?$AAl?$AAf?$AAp?$AA_?$AAs@ 0000000180048320     libucrtd:contrlfp.obj
 0002:0000f340       ??_C@_1FO@KIIHJNFN@?$AAm?$AAi?$AAn?$AAk?$AAe?$AAr?$AAn?$AAe?$AAl?$AA?2?$AAc?$AAr?$AAt?$AAs?$AA?2@ 0000000180048340     libucrtd:lseek.obj
 0002:0000f3a0       ??_C@_1DM@LMLOLGJ@?$AA?$CI?$AA?$CC?$AAI?$AAn?$AAv?$AAa?$AAl?$AAi?$AAd?$AA?5?$AAf?$AAi?$AAl?$AAe?$AA?5@ 00000001800483a0     libucrtd:lseek.obj
 0002:0000f3e0       ??_C@_1GA@DKNOMDCL@?$AAm?$AAi?$AAn?$AAk?$AAe?$AAr?$AAn?$AAe?$AAl?$AA?2?$AAc?$AAr?$AAt?$AAs?$AA?2@ 00000001800483e0     libucrtd:fclose.obj
 0002:0000f440       ??_C@_1O@EGMJNCOI@?$AAf?$AAc?$AAl?$AAo?$AAs?$AAe@ 0000000180048440     libucrtd:fclose.obj
 0002:0000f450       ??_C@_1BO@JINCABEC@?$AA_?$AAf?$AAc?$AAl?$AAo?$AAs?$AAe?$AA_?$AAn?$AAo?$AAl?$AAo?$AAc?$AAk@ 0000000180048450     libucrtd:fclose.obj
 0002:0000f470       __log10_256_lead           0000000180048470     libucrtd:log10_256_lead_tail_table.obj
 0002:0000fc80       __log10_256_tail           0000000180048c80     libucrtd:log10_256_lead_tail_table.obj
 0002:00010490       __log_F_inv_qword          0000000180049490     libucrtd:log_f_inv_qword_table.obj
 0002:00010ca0       ??_C@_05HGHHAHAP@log10@    0000000180049ca0     libucrtd:log_special.obj
 0002:00010cb0       ??_C@_1EK@PDBKILLM@?$AA?$CI?$AAm?$AAa?$AAs?$AAk?$AA?$CG?$AA?$HO?$AA?$CI?$AA_?$AAM?$AAC?$AAW?$AA_?$AAD?$AAN@ 0000000180049cb0     libucrtd:ieee.obj
 0002:00010d00       ??_C@_1GC@IEFABLII@?$AAm?$AAi?$AAn?$AAk?$AAe?$AAr?$AAn?$AAe?$AAl?$AA?2?$AAc?$AAr?$AAt?$AAs?$AA?2@ 0000000180049d00     libucrtd:ieee.obj
 0002:00010d70       ??_C@_1FO@IPDGALOE@?$AAm?$AAi?$AAn?$AAk?$AAe?$AAr?$AAn?$AAe?$AAl?$AA?2?$AAc?$AAr?$AAt?$AAs?$AA?2@ 0000000180049d70     libucrtd:close.obj
 0002:00010dd0       ??_C@_1O@EDEJGJBM@?$AA_?$AAc?$AAl?$AAo?$AAs?$AAe@ 0000000180049dd0     libucrtd:close.obj
 0002:00010de0       ??_C@_1BA@BALFACEM@?$AAC?$AAO?$AAN?$AAO?$AAU?$AAT?$AA$@ 0000000180049de0     libucrtd:initcon.obj
 0002:00010e08       ??_7type_info@@6B@         0000000180049e08     LIBCMTD:std_type_info_static.obj
 0002:00010e70       _load_config_used          0000000180049e70     LIBCMTD:loadcfg.obj
 0002:00011000       ??_R4exception@std@@6B@    000000018004a000     libvcruntimed:frame.obj
 0002:00011028       ??_R3exception@std@@8      000000018004a028     libvcruntimed:frame.obj
 0002:00011040       ??_R2exception@std@@8      000000018004a040     libvcruntimed:frame.obj
 0002:00011050       ??_R1A@?0A@EA@exception@std@@8 000000018004a050     libvcruntimed:frame.obj
 0002:00011078       ??_R4bad_exception@std@@6B@ 000000018004a078     libvcruntimed:frame.obj
 0002:000110a0       ??_R3bad_exception@std@@8  000000018004a0a0     libvcruntimed:frame.obj
 0002:000110b8       ??_R2bad_exception@std@@8  000000018004a0b8     libvcruntimed:frame.obj
 0002:000110d0       ??_R1A@?0A@EA@bad_exception@std@@8 000000018004a0d0     libvcruntimed:frame.obj
 0002:000110f8       ??_R4type_info@@6B@        000000018004a0f8     LIBCMTD:std_type_info_static.obj
 0002:00011120       ??_R3type_info@@8          000000018004a120     LIBCMTD:std_type_info_static.obj
 0002:00011138       ??_R2type_info@@8          000000018004a138     LIBCMTD:std_type_info_static.obj
 0002:00011148       ??_R1A@?0A@EA@type_info@@8 000000018004a148     LIBCMTD:std_type_info_static.obj
 0002:0001116c       __volatile_metadata        000000018004a16c     <linker-defined>
 0002:00011570       __rtc_iaa                  000000018004a570     LIBCMTD:initsect.obj
 0002:00011578       __rtc_izz                  000000018004a578     LIBCMTD:initsect.obj
 0002:00011580       __rtc_taa                  000000018004a580     LIBCMTD:initsect.obj
 0002:00011588       __rtc_tzz                  000000018004a588     LIBCMTD:initsect.obj
 0002:00012620       _TI2?AVbad_exception@std@@ 000000018004b620     libvcruntimed:frame.obj
 0002:00012640       _CTA2?AVbad_exception@std@@ 000000018004b640     libvcruntimed:frame.obj
 0002:00012658       _CT??_R0?AVbad_exception@std@@@8??0bad_exception@std@@QEAA@AEBV01@@Z24 000000018004b658     libvcruntimed:frame.obj
 0002:00012680       _CT??_R0?AVexception@std@@@8??0exception@std@@QEAA@AEBV01@@Z24 000000018004b680     libvcruntimed:frame.obj
 0002:00012704       __IMPORT_DESCRIPTOR_KERNEL32 000000018004b704     kernel32:KERNEL32.dll
 0002:00012718       __NULL_IMPORT_DESCRIPTOR   000000018004b718     kernel32:KERNEL32.dll
 0003:00000000       _fltused                   000000018004c000     LIBCMTD:fltused.obj
 0003:00000010       __security_cookie_complement 000000018004c010     LIBCMTD:gs_cookie.obj
 0003:00000018       __security_cookie          000000018004c018     LIBCMTD:gs_cookie.obj
 0003:00000020       __scrt_native_dllmain_reason 000000018004c020     LIBCMTD:utility.obj
 0003:00000030       __isa_available            000000018004c030     LIBCMTD:cpu_disp.obj
 0003:00000034       __isa_enabled              000000018004c034     LIBCMTD:cpu_disp.obj
 0003:00000038       __memcpy_nt_iters          000000018004c038     LIBCMTD:cpu_disp.obj
 0003:00000040       __memset_nt_iters          000000018004c040     LIBCMTD:cpu_disp.obj
 0003:00000064       _crtDbgFlag                000000018004c064     libucrtd:debug_heap.obj
 0003:00000068       _crtBreakAlloc             000000018004c068     libucrtd:debug_heap.obj
 0003:00000070       __abort_behavior           000000018004c070     libucrtd:abort.obj
 0003:00000084       _crtAssertBusy             000000018004c084     libucrtd:dbgrptt.obj
 0003:00000088       _CrtDbgMode                000000018004c088     libucrtd:dbgrptt.obj
 0003:00000098       _CrtDbgFile                000000018004c098     libucrtd:dbgrptt.obj
 0003:000000c0       __acrt_initial_multibyte_data 000000018004c0c0     libucrtd:mbctype.obj
 0003:00000600       __acrt_initial_locale_data 000000018004c600     libucrtd:nlsdata.obj
 0003:00000758       __acrt_initial_locale_pointers 000000018004c758     libucrtd:nlsdata.obj
 0003:00000768       __acrt_wide_c_locale_string 000000018004c768     libucrtd:nlsdata.obj
 0003:00000770       _pfnAllocHook              000000018004c770     libucrtd:debug_heap_hook.obj
 0003:00000780       _iob                       000000018004c780     libucrtd:_file.obj
 0003:00000888       __globallocalestatus       000000018004c888     libucrtd:glstatus.obj
 0003:00000890       __acrt_lconv_c             000000018004c890     libucrtd:localeconv.obj
 0003:00000928       __acrt_lconv_static_decimal 000000018004c928     libucrtd:localeconv.obj
 0003:0000092c       __acrt_lconv_static_W_decimal 000000018004c92c     libucrtd:localeconv.obj
 0003:00000930       _pwctype                   000000018004c930     libucrtd:ctype.obj
 0003:00000940       _lookuptrailbytes          000000018004c940     libucrtd:read.obj
 0003:00000a60       ??_R0?AVbad_exception@std@@@8 000000018004ca60     libvcruntimed:frame.obj
 0003:00000a88       ??_R0?AVexception@std@@@8  000000018004ca88     libvcruntimed:frame.obj
 0003:00000ab0       ??_R0?AVtype_info@@@8      000000018004cab0     LIBCMTD:std_type_info_static.obj
 0003:00000ae0       __KERNEL32Functions        000000018004cae0     libcpmtd:winapisupp.obj
 0003:00000c28       __castguard_check_failure_os_handled_fptr 000000018004cc28     LIBCMTD:guard_support.obj
 0003:00000c30       ?__type_info_root_node@@3U__type_info_node@@A 000000018004cc30     LIBCMTD:tncleanup.obj
 0003:00000c40       ?_OptionsStorage@?1??__local_stdio_printf_options@@9@4_KA 000000018004cc40     LIBCMTD:default_local_stdio_options.obj
 0003:00000c48       ?_OptionsStorage@?1??__local_stdio_scanf_options@@9@4_KA 000000018004cc48     LIBCMTD:default_local_stdio_options.obj
 0003:00000c50       __scrt_current_native_startup_state 000000018004cc50     LIBCMTD:utility.obj
 0003:00000c58       __scrt_native_startup_lock 000000018004cc58     LIBCMTD:utility.obj
 0003:00000c98       __scrt_debugger_hook_flag  000000018004cc98     LIBCMTD:utility_desktop.obj
 0003:00001210       __favor                    000000018004d210     LIBCMTD:cpu_disp.obj
 0003:00001218       ?__WinRTOutOfMemoryExceptionCallback@@3P6APEAXXZEA 000000018004d218     libvcruntimed:ehhelpers.obj
 0003:00001220       ?pArgList@UnDecorator@@0PEAVReplicator@@EA 000000018004d220     libvcruntimed:undname.obj
 0003:00001228       ?pZNameList@UnDecorator@@0PEAVReplicator@@EA 000000018004d228     libvcruntimed:undname.obj
 0003:00001230       ?pTemplateArgList@UnDecorator@@0PEAVReplicator@@EA 000000018004d230     libvcruntimed:undname.obj
 0003:00001238       ?gName@UnDecorator@@0PEBDEB 000000018004d238     libvcruntimed:undname.obj
 0003:00001240       ?name@UnDecorator@@0PEBDEB 000000018004d240     libvcruntimed:undname.obj
 0003:00001248       ?disableFlags@UnDecorator@@0KA 000000018004d248     libvcruntimed:undname.obj
 0003:0000124c       ?fExplicitTemplateParams@UnDecorator@@0_NA 000000018004d24c     libvcruntimed:undname.obj
 0003:0000124d       ?fGetTemplateArgumentList@UnDecorator@@0_NA 000000018004d24d     libvcruntimed:undname.obj
 0003:00001250       ?m_pGetParameter@UnDecorator@@0P6APEADJ@ZEA 000000018004d250     libvcruntimed:undname.obj
 0003:00001258       ?m_CHPENameOffset@UnDecorator@@0KA 000000018004d258     libvcruntimed:undname.obj
 0003:0000125c       ?m_recursionLevel@UnDecorator@@0KA 000000018004d25c     libvcruntimed:undname.obj
 0003:00001380       __pPurecall                000000018004d380     libvcruntimed:purevirt_data.obj
 0003:000013a0       ?c_exit_complete@?1???R<lambda_6e4b09c48022b2350581041d5f6b0c4c>@@QEBA@XZ@4_NA 000000018004d3a0     libucrtd:exit.obj
 0003:000014b8       _environ_table             000000018004d4b8     libucrtd:environment_initialization.obj
 0003:000014c0       _wenviron_table            000000018004d4c0     libucrtd:environment_initialization.obj
 0003:000014c8       __dcrt_initial_wide_environment 000000018004d4c8     libucrtd:environment_initialization.obj
 0003:000014d0       __dcrt_initial_narrow_environment 000000018004d4d0     libucrtd:environment_initialization.obj
 0003:000014d8       __acrt_atexit_table        000000018004d4d8     libucrtd:onexit.obj
 0003:000014f0       __acrt_at_quick_exit_table 000000018004d4f0     libucrtd:onexit.obj
 0003:00001538       _pfnDumpClient             000000018004d538     libucrtd:debug_heap.obj
 0003:00001548       _pfnReportHook             000000018004d548     libucrtd:dbgrptt.obj
 0003:00001550       _pReportHookList           000000018004d550     libucrtd:dbgrptt.obj
 0003:00001558       _pReportHookListW          000000018004d558     libucrtd:dbgrptt.obj
 0003:000017c0       _mbctype                   000000018004d7c0     libucrtd:mbctype.obj
 0003:000017c8       _mbcasemap                 000000018004d7c8     libucrtd:mbctype.obj
 0003:000017d0       __acrt_current_multibyte_data 000000018004d7d0     libucrtd:mbctype.obj
 0003:000017e0       _pgmptr                    000000018004d7e0     libucrtd:argv_data.obj
 0003:000017e8       __argc                     000000018004d7e8     libucrtd:argv_data.obj
 0003:000017f0       __argv                     000000018004d7f0     libucrtd:argv_data.obj
 0003:000017f8       __wargv                    000000018004d7f8     libucrtd:argv_data.obj
 0003:00001800       _acmdln                    000000018004d800     libucrtd:argv_data.obj
 0003:00001808       _wcmdln                    000000018004d808     libucrtd:argv_data.obj
 0003:000019c0       __acrt_heap                000000018004d9c0     libucrtd:heap_handle.obj
 0003:000019d0       __pioinfo                  000000018004d9d0     libucrtd:ioinit.obj
 0003:00001dd0       _nhandle                   000000018004ddd0     libucrtd:ioinit.obj
 0003:00001de8       __acrt_current_locale_data 000000018004dde8     libucrtd:nlsdata.obj
 0003:00001df0       __acrt_stdout_buffer       000000018004ddf0     libucrtd:_sftbuf.obj
 0003:00001df8       __acrt_stderr_buffer       000000018004ddf8     libucrtd:_sftbuf.obj
 0003:00001e04       __acrt_locale_changed_data 000000018004de04     libucrtd:wsetlocale.obj
 0003:00002440       _nstream                   000000018004e440     libucrtd:_file.obj
 0003:00002448       __piob                     000000018004e448     libucrtd:_file.obj
 0003:00002458       __acrt_lconv_static_null   000000018004e458     libucrtd:localeconv.obj
 0003:0000245c       __acrt_lconv_static_W_null 000000018004e45c     libucrtd:localeconv.obj
 0003:00002478       __fma3_is_available        000000018004e478     libucrtd:fma3_available.obj
 0003:0000247c       __use_fma3_lib             000000018004e47c     libucrtd:fma3_available.obj
 0003:00002480       __scrt_ucrt_dll_is_in_use  000000018004e480     <common>
 0003:00002488       __dyn_tls_init_callback    000000018004e488     <common>

 entry point at        0001:00000e20

 Static symbols

 0000:fffac000       .debug$S                   0000000180000000     hy3d_engine.exp
 0000:fffac000       .debug$S                   0000000180000000     kernel32:KERNEL32.dll
 0000:fffac000       .debug$S                   0000000180000000     kernel32:KERNEL32.dll
 0000:fffac000       .debug$S                   0000000180000000     kernel32:KERNEL32.dll
 0000:fffac000       .debug$S                   0000000180000000     kernel32:KERNEL32.dll
 0000:fffac000       .debug$S                   0000000180000000     kernel32:KERNEL32.dll
 0000:fffac000       .debug$S                   0000000180000000     kernel32:KERNEL32.dll
 0000:fffac000       .debug$S                   0000000180000000     kernel32:KERNEL32.dll
 0000:fffac000       .debug$S                   0000000180000000     kernel32:KERNEL32.dll
 0000:fffac000       .debug$S                   0000000180000000     kernel32:KERNEL32.dll
 0000:fffac000       .debug$S                   0000000180000000     kernel32:KERNEL32.dll
 0000:fffac000       .debug$S                   0000000180000000     kernel32:KERNEL32.dll
 0000:fffac000       .debug$S                   0000000180000000     kernel32:KERNEL32.dll
 0000:fffac000       .debug$S                   0000000180000000     kernel32:KERNEL32.dll
 0000:fffac000       .debug$S                   0000000180000000     kernel32:KERNEL32.dll
 0000:fffac000       .debug$S                   0000000180000000     kernel32:KERNEL32.dll
 0000:fffac000       .debug$S                   0000000180000000     kernel32:KERNEL32.dll
 0000:fffac000       .debug$S                   0000000180000000     kernel32:KERNEL32.dll
 0000:fffac000       .debug$S                   0000000180000000     kernel32:KERNEL32.dll
 0000:fffac000       .debug$S                   0000000180000000     kernel32:KERNEL32.dll
 0000:fffac000       .debug$S                   0000000180000000     kernel32:KERNEL32.dll
 0000:fffac000       .debug$S                   0000000180000000     kernel32:KERNEL32.dll
 0000:fffac000       .debug$S                   0000000180000000     kernel32:KERNEL32.dll
 0000:fffac000       .debug$S                   0000000180000000     kernel32:KERNEL32.dll
 0000:fffac000       .debug$S                   0000000180000000     kernel32:KERNEL32.dll
 0000:fffac000       .debug$S                   0000000180000000     kernel32:KERNEL32.dll
 0000:fffac000       .debug$S                   0000000180000000     kernel32:KERNEL32.dll
 0000:fffac000       .debug$S                   0000000180000000     kernel32:KERNEL32.dll
 0000:fffac000       .debug$S                   0000000180000000     kernel32:KERNEL32.dll
 0000:fffac000       .debug$S                   0000000180000000     kernel32:KERNEL32.dll
 0000:fffac000       .debug$S                   0000000180000000     kernel32:KERNEL32.dll
 0000:fffac000       .debug$S                   0000000180000000     kernel32:KERNEL32.dll
 0000:fffac000       .debug$S                   0000000180000000     kernel32:KERNEL32.dll
 0000:fffac000       .debug$S                   0000000180000000     kernel32:KERNEL32.dll
 0000:fffac000       .debug$S                   0000000180000000     kernel32:KERNEL32.dll
 0000:fffac000       .debug$S                   0000000180000000     kernel32:KERNEL32.dll
 0000:fffac000       .debug$S                   0000000180000000     kernel32:KERNEL32.dll
 0000:fffac000       .debug$S                   0000000180000000     kernel32:KERNEL32.dll
 0000:fffac000       .debug$S                   0000000180000000     kernel32:KERNEL32.dll
 0000:fffac000       .debug$S                   0000000180000000     kernel32:KERNEL32.dll
 0000:fffac000       .debug$S                   0000000180000000     kernel32:KERNEL32.dll
 0000:fffac000       .debug$S                   0000000180000000     kernel32:KERNEL32.dll
 0000:fffac000       .debug$S                   0000000180000000     kernel32:KERNEL32.dll
 0000:fffac000       .debug$S                   0000000180000000     kernel32:KERNEL32.dll
 0000:fffac000       .debug$S                   0000000180000000     kernel32:KERNEL32.dll
 0000:fffac000       .debug$S                   0000000180000000     kernel32:KERNEL32.dll
 0000:fffac000       .debug$S                   0000000180000000     kernel32:KERNEL32.dll
 0000:fffac000       .debug$S                   0000000180000000     kernel32:KERNEL32.dll
 0000:fffac000       .debug$S                   0000000180000000     kernel32:KERNEL32.dll
 0000:fffac000       .debug$S                   0000000180000000     kernel32:KERNEL32.dll
 0000:fffac000       .debug$S                   0000000180000000     kernel32:KERNEL32.dll
 0000:fffac000       .debug$S                   0000000180000000     kernel32:KERNEL32.dll
 0000:fffac000       .debug$S                   0000000180000000     kernel32:KERNEL32.dll
 0000:fffac000       .debug$S                   0000000180000000     kernel32:KERNEL32.dll
 0000:fffac000       .debug$S                   0000000180000000     kernel32:KERNEL32.dll
 0000:fffac000       .debug$S                   0000000180000000     kernel32:KERNEL32.dll
 0000:fffac000       .debug$S                   0000000180000000     kernel32:KERNEL32.dll
 0000:fffac000       .debug$S                   0000000180000000     kernel32:KERNEL32.dll
 0000:fffac000       .debug$S                   0000000180000000     kernel32:KERNEL32.dll
 0000:fffac000       .debug$S                   0000000180000000     kernel32:KERNEL32.dll
 0000:fffac000       .debug$S                   0000000180000000     kernel32:KERNEL32.dll
 0000:fffac000       .debug$S                   0000000180000000     kernel32:KERNEL32.dll
 0000:fffac000       .debug$S                   0000000180000000     kernel32:KERNEL32.dll
 0000:fffac000       .debug$S                   0000000180000000     kernel32:KERNEL32.dll
 0000:fffac000       .debug$S                   0000000180000000     kernel32:KERNEL32.dll
 0000:fffac000       .debug$S                   0000000180000000     kernel32:KERNEL32.dll
 0000:fffac000       .debug$S                   0000000180000000     kernel32:KERNEL32.dll
 0000:fffac000       .debug$S                   0000000180000000     kernel32:KERNEL32.dll
 0000:fffac000       .debug$S                   0000000180000000     kernel32:KERNEL32.dll
 0000:fffac000       .debug$S                   0000000180000000     kernel32:KERNEL32.dll
 0000:fffac000       .debug$S                   0000000180000000     kernel32:KERNEL32.dll
 0000:fffac000       .debug$S                   0000000180000000     kernel32:KERNEL32.dll
 0000:fffac000       .debug$S                   0000000180000000     kernel32:KERNEL32.dll
 0000:fffac000       .debug$S                   0000000180000000     kernel32:KERNEL32.dll
 0000:fffac000       .debug$S                   0000000180000000     kernel32:KERNEL32.dll
 0000:fffac000       .debug$S                   0000000180000000     kernel32:KERNEL32.dll
 0000:fffac000       .debug$S                   0000000180000000     kernel32:KERNEL32.dll
 0000:fffac000       .debug$S                   0000000180000000     kernel32:KERNEL32.dll
 0000:fffac000       .debug$S                   0000000180000000     kernel32:KERNEL32.dll
 0000:fffac000       .debug$S                   0000000180000000     kernel32:KERNEL32.dll
 0000:fffac000       .debug$S                   0000000180000000     kernel32:KERNEL32.dll
 0000:fffac000       .debug$S                   0000000180000000     kernel32:KERNEL32.dll
 0000:fffac000       .debug$S                   0000000180000000     kernel32:KERNEL32.dll
 0000:fffac000       .debug$S                   0000000180000000     kernel32:KERNEL32.dll
 0000:fffac000       .debug$S                   0000000180000000     kernel32:KERNEL32.dll
 0000:fffac000       .debug$S                   0000000180000000     kernel32:KERNEL32.dll
 0000:fffac000       .debug$S                   0000000180000000     kernel32:KERNEL32.dll
 0000:fffac000       .debug$S                   0000000180000000     kernel32:KERNEL32.dll
 0000:fffac000       .debug$S                   0000000180000000     kernel32:KERNEL32.dll
 0000:fffac000       .debug$S                   0000000180000000     kernel32:KERNEL32.dll
 0000:fffac000       .debug$S                   0000000180000000     kernel32:KERNEL32.dll
 0000:fffac000       .debug$S                   0000000180000000     kernel32:KERNEL32.dll
 0000:fffac000       .debug$S                   0000000180000000     kernel32:KERNEL32.dll
 0000:fffac000       .debug$S                   0000000180000000     kernel32:KERNEL32.dll
 0000:fffac000       .debug$S                   0000000180000000     kernel32:KERNEL32.dll
 0000:fffac000       .debug$S                   0000000180000000     kernel32:KERNEL32.dll
 0000:fffac000       .debug$S                   0000000180000000     kernel32:KERNEL32.dll
 0000:fffac000       .debug$S                   0000000180000000     kernel32:KERNEL32.dll
 0000:fffac000       .debug$S                   0000000180000000     kernel32:KERNEL32.dll
 0000:fffac000       .debug$S                   0000000180000000     kernel32:KERNEL32.dll
 0000:fffac000       .debug$S                   0000000180000000     kernel32:KERNEL32.dll
 0000:fffac000       .debug$S                   0000000180000000     kernel32:KERNEL32.dll
 0000:fffac000       .debug$S                   0000000180000000     kernel32:KERNEL32.dll
 0000:fffac000       .debug$S                   0000000180000000     kernel32:KERNEL32.dll
 0000:fffac000       .debug$S                   0000000180000000     kernel32:KERNEL32.dll
 0000:fffac000       .debug$S                   0000000180000000     kernel32:KERNEL32.dll
 0000:fffac000       .debug$S                   0000000180000000     kernel32:KERNEL32.dll
 0000:fffac000       .debug$S                   0000000180000000     kernel32:KERNEL32.dll
 0000:fffac000       .debug$S                   0000000180000000     kernel32:KERNEL32.dll
 0000:fffac000       .debug$S                   0000000180000000     kernel32:KERNEL32.dll
 0000:fffac000       .debug$S                   0000000180000000     kernel32:KERNEL32.dll
 0000:fffac000       .debug$S                   0000000180000000     kernel32:KERNEL32.dll
 0000:fffac000       .debug$S                   0000000180000000     kernel32:KERNEL32.dll
 0000:fffac000       .debug$S                   0000000180000000     kernel32:KERNEL32.dll
 0000:fffac000       .debug$S                   0000000180000000     kernel32:KERNEL32.dll
 0000:fffac000       .debug$S                   0000000180000000     kernel32:KERNEL32.dll
 0000:fffac000       .debug$S                   0000000180000000     kernel32:KERNEL32.dll
 0000:fffac000       .debug$S                   0000000180000000     kernel32:KERNEL32.dll
 0000:fffac000       .debug$S                   0000000180000000     kernel32:KERNEL32.dll
 0000:fffac000       .debug$S                   0000000180000000     kernel32:KERNEL32.dll
 0000:fffac000       .debug$S                   0000000180000000     kernel32:KERNEL32.dll
 0000:fffac000       .debug$S                   0000000180000000     kernel32:KERNEL32.dll
 0001:00000100       ?begin@?$argument_list@D@?A0x5f5c8891@@QEBAPEAPEADXZ 0000000180001100 f i libucrtd:argv_wildcards.obj
 0001:000001b0       $LN16                      00000001800011b0     libcpmtd:xtime.obj
 0001:0000035c       $LN16                      000000018000135c     libcpmtd:xtime.obj
 0001:00000400       ?initialize_pointers@@YAHXZ 0000000180001400 f   libcpmtd:winapisupp.obj
 0001:00000a10       ?dllmain_crt_dispatch@@YAHQEAUHINSTANCE__@@KQEAX@Z 0000000180001a10 f   LIBCMTD:dll_dllmain.obj
 0001:00000aa0       ?dllmain_crt_process_attach@@YAHQEAUHINSTANCE__@@QEAX@Z 0000000180001aa0 f   LIBCMTD:dll_dllmain.obj
 0001:00000be0       ?dllmain_crt_process_detach@@YAH_N@Z 0000000180001be0 f   LIBCMTD:dll_dllmain.obj
 0001:00000c80       ?dllmain_dispatch@@YAHQEAUHINSTANCE__@@KQEAX@Z 0000000180001c80 f   LIBCMTD:dll_dllmain.obj
 0001:00000dc0       ?dllmain_raw@@YAHQEAUHINSTANCE__@@KQEAX@Z 0000000180001dc0 f   LIBCMTD:dll_dllmain.obj
 0001:00000fa0       $$000000                   0000000180001fa0     LIBCMTD:amdsecgs.obj
 0001:00001060       __get_entropy              0000000180002060 f   LIBCMTD:gs_support.obj
 0001:00001290       ?find_pe_section@@YAPEAU_IMAGE_SECTION_HEADER@@QEAE_K@Z 0000000180002290 f   LIBCMTD:utility.obj
 0001:00001370       ?is_potentially_valid_image_base@@YA_NQEAX@Z 0000000180002370 f   LIBCMTD:utility.obj
 0001:00001c80       ?capture_current_context@@YAXQEAU_CONTEXT@@@Z 0000000180002c80 f   libucrtd:invalid_parameter.obj
 0001:00001c80       capture_current_context    0000000180002c80 f   LIBCMTD:gs_report.obj
 0001:00001d20       capture_previous_context   0000000180002d20 f   LIBCMTD:gs_report.obj
 0001:00002660       ??0<lambda_8d0ee55de4b1038c4002e0adecdf1839>@@QEAA@AEBQEAU__acrt_ptd@@@Z 0000000180003660 f i libucrtd:per_thread_data.obj
 0001:00002660       ??0<lambda_8f455de75cd7d7f24b4096f044d8b9e6>@@QEAA@AEBQEAU__acrt_ptd@@@Z 0000000180003660 f i libucrtd:per_thread_data.obj
 0001:00002660       ??0<lambda_e157831efee4ea0afb0a2ace5dd5fd0d>@@QEAA@AEBQEAU__acrt_ptd@@@Z 0000000180003660 f i libucrtd:per_thread_data.obj
 0001:00002660       ??0<lambda_4e7105787b7b0e0227fbf2b2d883fa65>@@QEAA@AEBH@Z 0000000180003660 f i libucrtd:close.obj
 0001:00002660       ??0<lambda_5533cddd4bda0037814beee657757329>@@QEAA@AEBH@Z 0000000180003660 f i libucrtd:commit.obj
 0001:00002660       ??0<lambda_df1553121bfa390f1154bd84936f2730>@@QEAA@AEAV?$__crt_unique_heap_ptr@PEADU__crt_internal_free_policy@@@@@Z 0000000180003660 f i libucrtd:argv_parsing.obj
 0001:00002660       ??0<lambda_d121dba8a4adeaf3a9819e48611155df>@@QEAA@AEBQEAU_onexit_table_t@@@Z 0000000180003660 f i libucrtd:onexit.obj
 0001:00002890       init_memcpy_functions      0000000180003890 f   libvcruntimed:initialization.obj
 0001:000029d0       ?_FilterSetCurrentException@@YAKPEAU_EXCEPTION_POINTERS@@E@Z 00000001800039d0 f   libvcruntimed:ehhelpers.obj
 0001:00002bf0       $$000000                   0000000180003bf0     libvcruntimed:notify.obj
 0001:00002d70       ??0scoped_get_last_error_reset@?A0x26810693@@QEAA@XZ 0000000180003d70 f   libvcruntimed:per_thread_data.obj
 0001:00002d90       ??1scoped_get_last_error_reset@?A0x26810693@@QEAA@XZ 0000000180003d90 f   libvcruntimed:per_thread_data.obj
 0001:00002de0       ?store_and_initialize_ptd@@YA_NQEAU__vcrt_ptd@@@Z 0000000180003de0 f   libvcruntimed:per_thread_data.obj
 0001:000031e0       $$000000                   00000001800041e0     libvcruntimed:memcpy.obj
 0001:000038f0       ??$SehTransFilter@V__FrameHandler3@@@@YAHPEAU_EXCEPTION_POINTERS@@PEAUEHExceptionRecord@@PEA_KPEAU_CONTEXT@@PEAU_xDISPATCHER_CONTEXT@@PEBU_s_FuncInfo@@HPEAH@Z 00000001800048f0 f   libvcruntimed:risctrnsctrl.obj
 0001:00004390       ?invalid_function_sentinel@@YAPEAXXZ 0000000180005390 f   libucrtd:winapi_thunks.obj
 0001:00004390       ?invalid_function_sentinel@@YAPEAXXZ 0000000180005390 f   libvcruntimed:winapi_downlevel.obj
 0001:000043a0       ?try_get_FlsAlloc@@YAP6AKP6AXPEAX@Z@ZXZ 00000001800053a0 f   libvcruntimed:winapi_downlevel.obj
 0001:000043d0       ?try_get_FlsFree@@YAP6AHK@ZXZ 00000001800053d0 f   libvcruntimed:winapi_downlevel.obj
 0001:00004400       ?try_get_FlsGetValue@@YAP6APEAXK@ZXZ 0000000180005400 f   libvcruntimed:winapi_downlevel.obj
 0001:00004430       ?try_get_FlsSetValue@@YAP6AHKPEAX@ZXZ 0000000180005430 f   libvcruntimed:winapi_downlevel.obj
 0001:00004460       ?try_get_InitializeCriticalSectionEx@@YAP6AHPEAU_RTL_CRITICAL_SECTION@@KK@ZXZ 0000000180005460 f   libvcruntimed:winapi_downlevel.obj
 0001:00004490       ?try_get_first_available_module@@YAPEAUHINSTANCE__@@QEBW4module_id@?A0x61a31dd3@@0@Z 0000000180005490 f   libvcruntimed:winapi_downlevel.obj
 0001:000044f0       ?try_get_function@@YAPEAXW4function_id@?A0x61a31dd3@@QEBDQEBW4module_id@2@2@Z 00000001800054f0 f   libvcruntimed:winapi_downlevel.obj
 0001:00004660       ?try_get_module@@YAPEAUHINSTANCE__@@W4module_id@?A0x61a31dd3@@@Z 0000000180005660 f   libvcruntimed:winapi_downlevel.obj
 0001:000047c0       ?try_get_proc_address_from_first_available_module@@YAPEAXQEBDQEBW4module_id@?A0x61a31dd3@@1@Z 00000001800057c0 f   libvcruntimed:winapi_downlevel.obj
 0001:00004810       ?try_load_library_from_system_directory@@YAPEAUHINSTANCE__@@QEB_W@Z 0000000180005810 f   libvcruntimed:winapi_downlevel.obj
 0001:00004ce0       ?adjustIp@@YA_KPEAU_xDISPATCHER_CONTEXT@@_K@Z 0000000180005ce0 f   libvcruntimed:ehstate.obj
 0001:00004cf0       ??$BuildCatchObjectHelperInternal@V__FrameHandler3@@@@YAHPEAUEHExceptionRecord@@PEAXPEBU_s_HandlerType@@PEBU_s_CatchableType@@@Z 0000000180005cf0 f   libvcruntimed:frame.obj
 0001:000050d0       ??$BuildCatchObjectInternal@V__FrameHandler3@@@@YAXPEAUEHExceptionRecord@@PEAXPEBU_s_HandlerType@@PEBU_s_CatchableType@@@Z 00000001800060d0 f   libvcruntimed:frame.obj
 0001:00005220       ??$CatchIt@V__FrameHandler3@@@@YAXPEAUEHExceptionRecord@@PEA_KPEAU_CONTEXT@@PEAU_xDISPATCHER_CONTEXT@@PEBU_s_FuncInfo@@PEBU_s_HandlerType@@PEBU_s_CatchableType@@PEBU_s_TryBlockMapEntry@@H1EE@Z 0000000180006220 f   libvcruntimed:frame.obj
 0001:00005360       ??$FindHandler@V__FrameHandler3@@@@YAXPEAUEHExceptionRecord@@PEA_KPEAU_CONTEXT@@PEAU_xDISPATCHER_CONTEXT@@PEBU_s_FuncInfo@@EH1@Z 0000000180006360 f   libvcruntimed:frame.obj
 0001:00005b30       ??$FindHandlerForForeignException@V__FrameHandler3@@@@YAXPEAUEHExceptionRecord@@PEA_KPEAU_CONTEXT@@PEAU_xDISPATCHER_CONTEXT@@PEBU_s_FuncInfo@@HH1@Z 0000000180006b30 f   libvcruntimed:frame.obj
 0001:00006550       ??0<lambda_92619d2358a28f41a33ba319515a20b9>@@QEAA@AEBQEAU__acrt_ptd@@AEBQEAPEAU__crt_locale_data@@@Z 0000000180007550 f i libucrtd:per_thread_data.obj
 0001:00006550       ??0<lambda_bd5a608237428601b7e45fbdc72b1ae8>@@QEAA@AEBQEAU__acrt_ptd@@AEBQEAPEAU__crt_multibyte_data@@@Z 0000000180007550 f i libucrtd:mbctype.obj
 0001:00006be0       ?ExFilterRethrow@@YAHPEAU_EXCEPTION_POINTERS@@PEAUEHExceptionRecord@@PEAH@Z 0000000180007be0 f   libvcruntimed:frame.obj
 0001:00007000       ?IsInExceptionSpec@@YAEPEAUEHExceptionRecord@@PEBU_s_ESTypeList@@@Z 0000000180008000 f   libvcruntimed:frame.obj
 0001:00007120       ?Is_bad_exception_allowed@@YAEPEBU_s_ESTypeList@@@Z 0000000180008120 f   libvcruntimed:frame.obj
 0001:000072a0       ?__RethrowException@@YAXPEAUEHExceptionRecord@@@Z 00000001800082a0 f   libvcruntimed:frame.obj
 0001:000074c0       $$000000                   00000001800084c0     libvcruntimed:memset.obj
 0001:00007680       $$000000                   0000000180008680     libvcruntimed:handlers.obj
 0001:00007e90       ??$common_message_window@D@@YAHHQEAXQEBD111@Z 0000000180008e90 f   libucrtd:dbgrpt.obj
 0001:00008560       ??$common_message_window@_W@@YAHHQEAXQEB_W111@Z 0000000180009560 f   libucrtd:dbgrpt.obj
 0001:00008dc0       ?get_output_message_format@@YAPEB_WD@Z 0000000180009dc0 f   libucrtd:dbgrpt.obj
 0001:00008dd0       ?get_output_message_format@@YAPEB_W_W@Z 0000000180009dd0 f   libucrtd:dbgrpt.obj
 0001:00008de0       ?get_program_name_unknown_text@@YAPEBDD@Z 0000000180009de0 f   libucrtd:dbgrpt.obj
 0001:00008df0       ?get_program_name_unknown_text@@YAPEB_W_W@Z 0000000180009df0 f   libucrtd:dbgrpt.obj
 0001:00009220       ?xcptlookup@@YAPEAU__crt_signal_action_t@@KQEAU1@@Z 000000018000a220 f   libucrtd:exception_filter.obj
 0001:00009540       $LN33                      000000018000a540     libucrtd:exception_filter.obj
 0001:00009580       ??$?RV<lambda_d80eeec6fff315bfe5c115232f3240e3>@@AEAV<lambda_6e4b09c48022b2350581041d5f6b0c4c>@@V<lambda_2358e3775559c9db80273638284d5e45>@@@?$__crt_seh_guarded_call@X@@QEAAX$$QEAV<lambda_d80eeec6fff315bfe5c115232f3240e3>@@AEAV<lambda_6e4b09c48022b2350581041d5f6b0c4c>@@$$QEAV<lambda_2358e3775559c9db80273638284d5e45>@@@Z 000000018000a580 f   libucrtd:exit.obj
 0001:000095c0       ??$__acrt_lock_and_call@V<lambda_6e4b09c48022b2350581041d5f6b0c4c>@@@@YAXW4__acrt_lock_id@@$$QEAV<lambda_6e4b09c48022b2350581041d5f6b0c4c>@@@Z 000000018000a5c0 f   libucrtd:exit.obj
 0001:000096a0       ??0<lambda_04ddeca75b7c13fd67716e8dfcef87ee>@@QEAA@AEBW4__acrt_lock_id@@@Z 000000018000a6a0 f   libucrtd:per_thread_data.obj
 0001:000096a0       ??0<lambda_0ae27a3a962d80f24befdcbee591983d>@@QEAA@AEBW4__acrt_lock_id@@@Z 000000018000a6a0 f   libucrtd:per_thread_data.obj
 0001:000096a0       ??0<lambda_2d41944a1d46af3157314b8a01080d33>@@QEAA@AEBW4__acrt_lock_id@@@Z 000000018000a6a0 f   libucrtd:per_thread_data.obj
 0001:000096a0       ??0<lambda_6992ecaafeb10aed2b74cb1fae11a551>@@QEAA@AEBW4__acrt_lock_id@@@Z 000000018000a6a0 f   libucrtd:per_thread_data.obj
 0001:000096a0       ??0<lambda_74a0ef281e44d15e1136f792f539efb3>@@QEAA@AEBW4__acrt_lock_id@@@Z 000000018000a6a0 f   libucrtd:per_thread_data.obj
 0001:000096a0       ??0<lambda_aa500f224e6afead328df44964fe2772>@@QEAA@AEBW4__acrt_lock_id@@@Z 000000018000a6a0 f   libucrtd:per_thread_data.obj
 0001:000096a0       ??0<lambda_aa87e3671a710a21b5dc78c0bdf72e11>@@QEAA@AEBW4__acrt_lock_id@@@Z 000000018000a6a0 f   libucrtd:per_thread_data.obj
 0001:000096a0       ??0<lambda_dc504788e8f1664fe9b84e20bfb512f2>@@QEAA@AEBW4__acrt_lock_id@@@Z 000000018000a6a0 f   libucrtd:per_thread_data.obj
 0001:000096a0       ??0<lambda_38119f0e861e05405d8a144b9b982f0a>@@QEAA@AEBW4__acrt_lock_id@@@Z 000000018000a6a0 f   libucrtd:wsetlocale.obj
 0001:000096a0       ??0<lambda_410d79af7f07d98d83a3f525b3859a53>@@QEAA@AEBW4__acrt_lock_id@@@Z 000000018000a6a0 f   libucrtd:wsetlocale.obj
 0001:000096a0       ??0<lambda_53fc7fc888e23d815d7080162c0aeeb2>@@QEAA@AEBH@Z 000000018000a6a0 f   libucrtd:close.obj
 0001:000096a0       ??0<lambda_8ddc48ad9d26c778cb15812d1d88fc8a>@@QEAA@AEBH@Z 000000018000a6a0 f   libucrtd:close.obj
 0001:000096a0       ??0<lambda_47cffbaa968af5c721c38a4a6f8da44d>@@QEAA@AEBH@Z 000000018000a6a0 f   libucrtd:commit.obj
 0001:000096a0       ??0<lambda_4e3dbe6921bc0b5a1a6bc6573fdc859e>@@QEAA@AEBH@Z 000000018000a6a0 f   libucrtd:commit.obj
 0001:000096a0       ??0<lambda_728235dc0fc2b1f82d1fa5b3e7102d8f>@@QEAA@AEBW4__acrt_lock_id@@@Z 000000018000a6a0 f   libucrtd:mbctype.obj
 0001:000096a0       ??0<lambda_efa02eb69bf647d2f7ff0dd6f1103f72>@@QEAA@AEBW4__acrt_lock_id@@@Z 000000018000a6a0 f   libucrtd:mbctype.obj
 0001:000096a0       ??0<lambda_450d765d439847d4c735a33c368b5fc0>@@QEAA@AEBW4__acrt_lock_id@@@Z 000000018000a6a0 f   libucrtd:signal.obj
 0001:000096a0       ??0<lambda_601a2a7da3b7a96e9554ac7215c4b07c>@@QEAA@AEBW4__acrt_lock_id@@@Z 000000018000a6a0 f   libucrtd:signal.obj
 0001:000096a0       ??0<lambda_2358e3775559c9db80273638284d5e45>@@QEAA@AEBW4__acrt_lock_id@@@Z 000000018000a6a0 f   libucrtd:exit.obj
 0001:000096a0       ??0<lambda_d80eeec6fff315bfe5c115232f3240e3>@@QEAA@AEBW4__acrt_lock_id@@@Z 000000018000a6a0 f   libucrtd:exit.obj
 0001:000096a0       ??0<lambda_6a47f4c8fd0152770a780fc1d70204eb>@@QEAA@AEBW4__acrt_lock_id@@@Z 000000018000a6a0 f   libucrtd:onexit.obj
 0001:000096a0       ??0<lambda_6aaa2265f5b6a89667e7d7630012e97a>@@QEAA@AEBW4__acrt_lock_id@@@Z 000000018000a6a0 f   libucrtd:onexit.obj
 0001:000096a0       ??0<lambda_886d6c58226a84441f68b9f2b8217b83>@@QEAA@AEBW4__acrt_lock_id@@@Z 000000018000a6a0 f   libucrtd:fflush.obj
 0001:000096a0       ??0<lambda_f7f22ab5edc0698d5f6905b0d3f44752>@@QEAA@AEBW4__acrt_lock_id@@@Z 000000018000a6a0 f   libucrtd:fflush.obj
 0001:000096c0       ??0<lambda_6e4b09c48022b2350581041d5f6b0c4c>@@QEAA@AEBW4_crt_exit_cleanup_mode@@AEBW4_crt_exit_return_mode@@AEA_N@Z 000000018000a6c0 f   libucrtd:exit.obj
 0001:000096c0       ??0<lambda_ab61a845afdef5b7c387490eaf3616ee>@@QEAA@AEAHAEB_N0@Z 000000018000a6c0 f   libucrtd:fflush.obj
 0001:00009730       ??R<lambda_04ddeca75b7c13fd67716e8dfcef87ee>@@QEBAXXZ 000000018000a730 f   libucrtd:per_thread_data.obj
 0001:00009730       ??R<lambda_6992ecaafeb10aed2b74cb1fae11a551>@@QEBAXXZ 000000018000a730 f   libucrtd:per_thread_data.obj
 0001:00009730       ??R<lambda_aa500f224e6afead328df44964fe2772>@@QEBAXXZ 000000018000a730 f   libucrtd:per_thread_data.obj
 0001:00009730       ??R<lambda_dc504788e8f1664fe9b84e20bfb512f2>@@QEBAXXZ 000000018000a730 f   libucrtd:per_thread_data.obj
 0001:00009730       ??R<lambda_38119f0e861e05405d8a144b9b982f0a>@@QEBAXXZ 000000018000a730 f   libucrtd:wsetlocale.obj
 0001:00009730       ??R<lambda_728235dc0fc2b1f82d1fa5b3e7102d8f>@@QEBAXXZ 000000018000a730 f   libucrtd:mbctype.obj
 0001:00009730       ??R<lambda_601a2a7da3b7a96e9554ac7215c4b07c>@@QEBAXXZ 000000018000a730 f   libucrtd:signal.obj
 0001:00009730       ??R<lambda_2358e3775559c9db80273638284d5e45>@@QEBAXXZ 000000018000a730 f   libucrtd:exit.obj
 0001:00009730       ??R<lambda_6aaa2265f5b6a89667e7d7630012e97a>@@QEBAXXZ 000000018000a730 f   libucrtd:onexit.obj
 0001:00009730       ??R<lambda_f7f22ab5edc0698d5f6905b0d3f44752>@@QEBAXXZ 000000018000a730 f   libucrtd:fflush.obj
 0001:00009750       ??R<lambda_6e4b09c48022b2350581041d5f6b0c4c>@@QEBA@XZ 000000018000a750 f   libucrtd:exit.obj
 0001:00009850       ??R<lambda_0ae27a3a962d80f24befdcbee591983d>@@QEBAXXZ 000000018000a850 f   libucrtd:per_thread_data.obj
 0001:00009850       ??R<lambda_2d41944a1d46af3157314b8a01080d33>@@QEBAXXZ 000000018000a850 f   libucrtd:per_thread_data.obj
 0001:00009850       ??R<lambda_74a0ef281e44d15e1136f792f539efb3>@@QEBAXXZ 000000018000a850 f   libucrtd:per_thread_data.obj
 0001:00009850       ??R<lambda_aa87e3671a710a21b5dc78c0bdf72e11>@@QEBAXXZ 000000018000a850 f   libucrtd:per_thread_data.obj
 0001:00009850       ??R<lambda_410d79af7f07d98d83a3f525b3859a53>@@QEBAXXZ 000000018000a850 f   libucrtd:wsetlocale.obj
 0001:00009850       ??R<lambda_efa02eb69bf647d2f7ff0dd6f1103f72>@@QEBAXXZ 000000018000a850 f   libucrtd:mbctype.obj
 0001:00009850       ??R<lambda_450d765d439847d4c735a33c368b5fc0>@@QEBAXXZ 000000018000a850 f   libucrtd:signal.obj
 0001:00009850       ??R<lambda_d80eeec6fff315bfe5c115232f3240e3>@@QEBAXXZ 000000018000a850 f   libucrtd:exit.obj
 0001:00009850       ??R<lambda_6a47f4c8fd0152770a780fc1d70204eb>@@QEBAXXZ 000000018000a850 f   libucrtd:onexit.obj
 0001:00009850       ??R<lambda_886d6c58226a84441f68b9f2b8217b83>@@QEBAXXZ 000000018000a850 f   libucrtd:fflush.obj
 0001:000098c0       ?atexit_exception_filter@@YAHK@Z 000000018000a8c0 f   libucrtd:exit.obj
 0001:00009960       ?common_exit@@YAXHW4_crt_exit_cleanup_mode@@W4_crt_exit_return_mode@@@Z 000000018000a960 f   libucrtd:exit.obj
 0001:000099f0       ?exit_or_terminate_process@@YAXI@Z 000000018000a9f0 f   libucrtd:exit.obj
 0001:00009a30       ?is_managed_app@@YA_NXZ    000000018000aa30 f   libucrtd:exit.obj
 0001:00009ae0       ?should_call_terminate_process@@YA_NXZ 000000018000aae0 f   libucrtd:exit.obj
 0001:00009b40       ?try_cor_exit_process@@YAXI@Z 000000018000ab40 f   libucrtd:exit.obj
 0001:00009c60       ??$common_configure_argv@D@@YAHW4_crt_argv_mode@@@Z 000000018000ac60 f   libucrtd:argv_parsing.obj
 0001:00009ff0       ??$parse_command_line@D@@YAXPEADPEAPEAD0PEA_K2@Z 000000018000aff0 f   libucrtd:argv_parsing.obj
 0001:0000a4a0       ??R<lambda_df1553121bfa390f1154bd84936f2730>@@QEBAHXZ 000000018000b4a0 f   libucrtd:argv_parsing.obj
 0001:0000a500       ?do_locale_initialization@@YAXD@Z 000000018000b500 f   libucrtd:argv_parsing.obj
 0001:0000a520       ?expand_argv_wildcards@@YAHQEAPEADQEAPEAPEAD@Z 000000018000b520 f   libucrtd:argv_parsing.obj
 0001:0000a550       ?get_argv@@YAAEAPEAPEADD@Z 000000018000b550 f   libucrtd:argv_parsing.obj
 0001:0000a560       ?get_command_line@@YAPEADD@Z 000000018000b560 f   libucrtd:argv_parsing.obj
 0001:0000a570       ?should_copy_another_character@@YA_ND@Z 000000018000b570 f   libucrtd:argv_parsing.obj
 0001:0000a704       ??$common_initialize_environment_nolock@D@@YAHXZ 000000018000b704 f   libucrtd:environment_initialization.obj
 0001:0000a77c       ??$create_environment@D@@YAQEAPEADQEAD@Z 000000018000b77c f   libucrtd:environment_initialization.obj
 0001:0000a8d8       ??$free_environment@D@@YAXQEAPEAD@Z 000000018000b8d8 f   libucrtd:environment_initialization.obj
 0001:0000a8d8       ??$free_environment@_W@@YAXQEAPEA_W@Z 000000018000b8d8 f   libucrtd:environment_initialization.obj
 0001:0000a934       ??$uninitialize_environment_internal@D@@YAXAEAPEAPEAD@Z 000000018000b934 f   libucrtd:environment_initialization.obj
 0001:0000a950       ??$uninitialize_environment_internal@_W@@YAXAEAPEAPEA_W@Z 000000018000b950 f   libucrtd:environment_initialization.obj
 0001:0000a9c0       ??$?RV<lambda_6a47f4c8fd0152770a780fc1d70204eb>@@AEAV<lambda_d121dba8a4adeaf3a9819e48611155df>@@V<lambda_6aaa2265f5b6a89667e7d7630012e97a>@@@?$__crt_seh_guarded_call@H@@QEAAH$$QEAV<lambda_6a47f4c8fd0152770a780fc1d70204eb>@@AEAV<lambda_d121dba8a4adeaf3a9819e48611155df>@@$$QEAV<lambda_6aaa2265f5b6a89667e7d7630012e97a>@@@Z 000000018000b9c0 f   libucrtd:onexit.obj
 0001:0000aa10       ??$__acrt_lock_and_call@V<lambda_d121dba8a4adeaf3a9819e48611155df>@@@@YAHW4__acrt_lock_id@@$$QEAV<lambda_d121dba8a4adeaf3a9819e48611155df>@@@Z 000000018000ba10 f   libucrtd:onexit.obj
 0001:0000aa60       ??R<lambda_d121dba8a4adeaf3a9819e48611155df>@@QEBAHXZ 000000018000ba60 f   libucrtd:onexit.obj
 0001:0000ad50       initialize_global_variables 000000018000bd50 f   libucrtd:initialization.obj
 0001:0000ad70       initialize_c               000000018000bd70 f   libucrtd:initialization.obj
 0001:0000ada0       uninitialize_c             000000018000bda0 f   libucrtd:initialization.obj
 0001:0000ada0       uninitialize_global_state_isolation 000000018000bda0 f   libucrtd:initialization.obj
 0001:0000adb0       initialize_environment     000000018000bdb0 f   libucrtd:initialization.obj
 0001:0000adb0       initialize_global_state_isolation 000000018000bdb0 f   libucrtd:initialization.obj
 0001:0000adc0       uninitialize_environment   000000018000bdc0 f   libucrtd:initialization.obj
 0001:0000adf0       initialize_pointers        000000018000bdf0 f   libucrtd:initialization.obj
 0001:0000ae50       uninitialize_vcruntime     000000018000be50 f   libucrtd:initialization.obj
 0001:0000ae70       uninitialize_allocated_memory 000000018000be70 f   libucrtd:initialization.obj
 0001:0000aeb0       uninitialize_allocated_io_buffers 000000018000beb0 f   libucrtd:initialization.obj
 0001:0000af30       report_memory_leaks        000000018000bf30 f   libucrtd:initialization.obj
 0001:0000af60       ??$uninitialize@V<lambda_af27fe6ede5d83bbdbd622796c194e9c>@@@?$dual_state_global@PEAU__crt_multibyte_data@@@__crt_state_management@@QEAAX$$QEAV<lambda_af27fe6ede5d83bbdbd622796c194e9c>@@@Z 000000018000bf60 f   libucrtd:initialization.obj
 0001:0000afb0       ??R<lambda_af27fe6ede5d83bbdbd622796c194e9c>@@QEBAXAEAPEAU__crt_multibyte_data@@@Z 000000018000bfb0 f   libucrtd:initialization.obj
 0001:0000b2b0       ?block_from_header@@YAPEAEQEAU_CrtMemBlockHeader@@@Z 000000018000c2b0 f   libucrtd:debug_heap.obj
 0001:0000b2c0       ?check_block@@YA_NQEAU_CrtMemBlockHeader@@@Z 000000018000c2c0 f   libucrtd:debug_heap.obj
 0001:0000b680       ?check_bytes@@YA_NQEBEE_K@Z 000000018000c680 f   libucrtd:debug_heap.obj
 0001:0000b6f0       ?dump_all_object_since_nolock@@YAXQEBU_CrtMemState@@@Z 000000018000c6f0 f   libucrtd:debug_heap.obj
 0001:0000bab0       ?free_dbg_nolock@@YAXQEAXH@Z 000000018000cab0 f   libucrtd:debug_heap.obj
 0001:0000c100       ?header_from_block@@YAPEAU_CrtMemBlockHeader@@QEBX@Z 000000018000d100 f   libucrtd:debug_heap.obj
 0001:0000c110       ?heap_alloc_dbg@@YAPEAX_KHQEBDH@Z 000000018000d110 f   libucrtd:debug_heap.obj
 0001:0000c1b0       ?heap_alloc_dbg_internal@@YAPEAX_KHQEBDH@Z 000000018000d1b0 f   libucrtd:debug_heap.obj
 0001:0000c5f0       ?is_bad_read_pointer@@YA_NQEBX_K@Z 000000018000d5f0 f   libucrtd:debug_heap.obj
 0001:0000c700       ?is_block_an_aligned_allocation@@YA_NQEBX@Z 000000018000d700 f   libucrtd:debug_heap.obj
 0001:0000c740       ?is_block_type_valid@@YA_NH@Z 000000018000d740 f   libucrtd:debug_heap.obj
 0001:0000c790       ?print_block_data@@YAXQEAU__crt_locale_pointers@@QEAU_CrtMemBlockHeader@@@Z 000000018000d790 f   libucrtd:debug_heap.obj
 0001:0000c9c0       ?realloc_dbg_nolock@@YAPEAXQEAXQEA_KHQEBDH_N@Z 000000018000d9c0 f   libucrtd:debug_heap.obj
 0001:0000d1e0       ?validate_heap_if_required_nolock@@YAXXZ 000000018000e1e0 f   libucrtd:debug_heap.obj
 0001:0000df90       ??$common_tcscpy_s@D@@YAHQEAD_KQEBD@Z 000000018000ef90 f   libucrtd:strcpy_s.obj
 0001:0000e490       $$000000                   000000018000f490     libucrtd:strcmp.obj
 0001:0000e510       $$000000                   000000018000f510     libucrtd:strlen.obj
 0001:0000e7d0       ??$common_vsnprintf_s@D@@YAH_KQEAD00QEBDQEAU__crt_locale_pointers@@1@Z 000000018000f7d0 f   libucrtd:output.obj
 0001:0000ed90       ??$common_vsnprintf_s@_W@@YAH_KQEA_W00QEB_WQEAU__crt_locale_pointers@@QEAD@Z 000000018000fd90 f   libucrtd:output.obj
 0001:0000f360       ??$common_vsprintf@Vformat_validation_base@__crt_stdio_output@@D@@YAH_KQEAD0QEBDQEAU__crt_locale_pointers@@1@Z 0000000180010360 f   libucrtd:output.obj
 0001:0000f840       ??$common_vsprintf@Vformat_validation_base@__crt_stdio_output@@_W@@YAH_KQEA_W0QEB_WQEAU__crt_locale_pointers@@QEAD@Z 0000000180010840 f   libucrtd:output.obj
 0001:0000fd10       ??$common_vsprintf_s@D@@YAH_KQEAD0QEBDQEAU__crt_locale_pointers@@1@Z 0000000180010d10 f   libucrtd:output.obj
 0001:00011fcc       $LN39                      0000000180012fcc     libucrtd:output.obj
 0001:0001232c       $LN39                      000000018001332c     libucrtd:output.obj
 0001:00012e18       $LN54                      0000000180013e18     libucrtd:output.obj
 0001:00012e40       $LN53                      0000000180013e40     libucrtd:output.obj
 0001:00013298       $LN54                      0000000180014298     libucrtd:output.obj
 0001:000132c0       $LN53                      00000001800142c0     libucrtd:output.obj
 0001:00013734       $LN44                      0000000180014734     libucrtd:output.obj
 0001:00013764       $LN43                      0000000180014764     libucrtd:output.obj
 0001:00013c8c       $LN44                      0000000180014c8c     libucrtd:output.obj
 0001:00013cbc       $LN43                      0000000180014cbc     libucrtd:output.obj
 0001:00013f40       $LN19                      0000000180014f40     libucrtd:output.obj
 0001:00017f10       $$000000                   0000000180018f10     libucrtd:strncmp.obj
 0001:00018090       ??$?RV<lambda_0ae27a3a962d80f24befdcbee591983d>@@AEAV<lambda_8d0ee55de4b1038c4002e0adecdf1839>@@V<lambda_dc504788e8f1664fe9b84e20bfb512f2>@@@?$__crt_seh_guarded_call@X@@QEAAX$$QEAV<lambda_0ae27a3a962d80f24befdcbee591983d>@@AEAV<lambda_8d0ee55de4b1038c4002e0adecdf1839>@@$$QEAV<lambda_dc504788e8f1664fe9b84e20bfb512f2>@@@Z 0000000180019090 f   libucrtd:per_thread_data.obj
 0001:000180d0       ??$?RV<lambda_2d41944a1d46af3157314b8a01080d33>@@AEAV<lambda_8f455de75cd7d7f24b4096f044d8b9e6>@@V<lambda_aa500f224e6afead328df44964fe2772>@@@?$__crt_seh_guarded_call@X@@QEAAX$$QEAV<lambda_2d41944a1d46af3157314b8a01080d33>@@AEAV<lambda_8f455de75cd7d7f24b4096f044d8b9e6>@@$$QEAV<lambda_aa500f224e6afead328df44964fe2772>@@@Z 00000001800190d0 f   libucrtd:per_thread_data.obj
 0001:00018110       ??$?RV<lambda_74a0ef281e44d15e1136f792f539efb3>@@AEAV<lambda_e157831efee4ea0afb0a2ace5dd5fd0d>@@V<lambda_04ddeca75b7c13fd67716e8dfcef87ee>@@@?$__crt_seh_guarded_call@X@@QEAAX$$QEAV<lambda_74a0ef281e44d15e1136f792f539efb3>@@AEAV<lambda_e157831efee4ea0afb0a2ace5dd5fd0d>@@$$QEAV<lambda_04ddeca75b7c13fd67716e8dfcef87ee>@@@Z 0000000180019110 f   libucrtd:per_thread_data.obj
 0001:00018150       ??$?RV<lambda_aa87e3671a710a21b5dc78c0bdf72e11>@@AEAV<lambda_92619d2358a28f41a33ba319515a20b9>@@V<lambda_6992ecaafeb10aed2b74cb1fae11a551>@@@?$__crt_seh_guarded_call@X@@QEAAX$$QEAV<lambda_aa87e3671a710a21b5dc78c0bdf72e11>@@AEAV<lambda_92619d2358a28f41a33ba319515a20b9>@@$$QEAV<lambda_6992ecaafeb10aed2b74cb1fae11a551>@@@Z 0000000180019150 f   libucrtd:per_thread_data.obj
 0001:00018190       ??$__acrt_lock_and_call@V<lambda_8d0ee55de4b1038c4002e0adecdf1839>@@@@YAXW4__acrt_lock_id@@$$QEAV<lambda_8d0ee55de4b1038c4002e0adecdf1839>@@@Z 0000000180019190 f   libucrtd:per_thread_data.obj
 0001:000181e0       ??$__acrt_lock_and_call@V<lambda_8f455de75cd7d7f24b4096f044d8b9e6>@@@@YAXW4__acrt_lock_id@@$$QEAV<lambda_8f455de75cd7d7f24b4096f044d8b9e6>@@@Z 00000001800191e0 f   libucrtd:per_thread_data.obj
 0001:00018230       ??$__acrt_lock_and_call@V<lambda_92619d2358a28f41a33ba319515a20b9>@@@@YAXW4__acrt_lock_id@@$$QEAV<lambda_92619d2358a28f41a33ba319515a20b9>@@@Z 0000000180019230 f   libucrtd:per_thread_data.obj
 0001:00018280       ??$__acrt_lock_and_call@V<lambda_e157831efee4ea0afb0a2ace5dd5fd0d>@@@@YAXW4__acrt_lock_id@@$$QEAV<lambda_e157831efee4ea0afb0a2ace5dd5fd0d>@@@Z 0000000180019280 f   libucrtd:per_thread_data.obj
 0001:00018310       ??R<lambda_8d0ee55de4b1038c4002e0adecdf1839>@@QEBAXXZ 0000000180019310 f   libucrtd:per_thread_data.obj
 0001:00018330       ??R<lambda_8f455de75cd7d7f24b4096f044d8b9e6>@@QEBAXXZ 0000000180019330 f   libucrtd:per_thread_data.obj
 0001:00018350       ??R<lambda_92619d2358a28f41a33ba319515a20b9>@@QEBAXXZ 0000000180019350 f   libucrtd:per_thread_data.obj
 0001:00018380       ??R<lambda_e157831efee4ea0afb0a2ace5dd5fd0d>@@QEBAXXZ 0000000180019380 f   libucrtd:per_thread_data.obj
 0001:000183f0       ?construct_ptd@@YAXQEAU__acrt_ptd@@QEAPEAU__crt_locale_data@@@Z 00000001800193f0 f   libucrtd:per_thread_data.obj
 0001:000184d0       ?construct_ptd_array@@YAXQEAU__acrt_ptd@@@Z 00000001800194d0 f   libucrtd:per_thread_data.obj
 0001:00018540       ?destroy_fls@@YAXPEAX@Z    0000000180019540 f   libucrtd:per_thread_data.obj
 0001:00018580       ?destroy_ptd@@YAXQEAU__acrt_ptd@@@Z 0000000180019580 f   libucrtd:per_thread_data.obj
 0001:000186a0       ?destroy_ptd_array@@YAXQEAU__acrt_ptd@@@Z 00000001800196a0 f   libucrtd:per_thread_data.obj
 0001:00018700       ?internal_get_ptd_head@@YAPEAU__acrt_ptd@@XZ 0000000180019700 f   libucrtd:per_thread_data.obj
 0001:00018830       ?internal_getptd_noexit@@YAPEAU__acrt_ptd@@XZ 0000000180019830 f   libucrtd:per_thread_data.obj
 0001:000188a0       ?replace_current_thread_locale_nolock@@YAXQEAU__acrt_ptd@@QEAU__crt_locale_data@@@Z 00000001800198a0 f   libucrtd:per_thread_data.obj
 0001:00018960       ?try_get_ptd_head@@YAPEAU__acrt_ptd@@XZ 0000000180019960 f   libucrtd:per_thread_data.obj
 0001:0001a280       ??$common_tcscpy_s@_W@@YAHQEA_W_KQEB_W@Z 000000018001b280 f   libucrtd:wcscpy_s.obj
 0001:0001a790       ??$common_strnlen@$00G@@YA_KQEBG_K@Z 000000018001b790 f   libucrtd:strnlen.obj
 0001:0001a7f0       ??$common_strnlen@$0A@E@@YA_KQEBE_K@Z 000000018001b7f0 f   libucrtd:strnlen.obj
 0001:0001a850       ??$common_strnlen@$0A@G@@YA_KQEBG_K@Z 000000018001b850 f   libucrtd:strnlen.obj
 0001:0001a8b0       ??$common_strnlen_c@$00G@@YA_KQEBG_K@Z 000000018001b8b0 f   libucrtd:strnlen.obj
 0001:0001a930       ??$common_strnlen_c@$0A@E@@YA_KQEBE_K@Z 000000018001b930 f   libucrtd:strnlen.obj
 0001:0001a9b0       ??$common_strnlen_c@$0A@G@@YA_KQEBG_K@Z 000000018001b9b0 f   libucrtd:strnlen.obj
 0001:0001aa30       ??$common_strnlen_simd@$00$00G@@YA_KQEBG_K@Z 000000018001ba30 f   libucrtd:strnlen.obj
 0001:0001acd0       ??$common_strnlen_simd@$00$0A@G@@YA_KQEBG_K@Z 000000018001bcd0 f   libucrtd:strnlen.obj
 0001:0001afc0       ??$common_strnlen_simd@$0A@$00E@@YA_KQEBE_K@Z 000000018001bfc0 f   libucrtd:strnlen.obj
 0001:0001b240       ??$common_strnlen_simd@$0A@$00G@@YA_KQEBG_K@Z 000000018001c240 f   libucrtd:strnlen.obj
 0001:0001b4e0       ??$common_strnlen_simd@$0A@$0A@E@@YA_KQEBE_K@Z 000000018001c4e0 f   libucrtd:strnlen.obj
 0001:0001b7b0       ??$common_strnlen_simd@$0A@$0A@G@@YA_KQEBG_K@Z 000000018001c7b0 f   libucrtd:strnlen.obj
 0001:0001baa0       ??$last_reached@$00@@YA_NQEBX0@Z 000000018001caa0 f   libucrtd:strnlen.obj
 0001:0001bab0       ??$last_reached@$0A@@@YA_NQEBX0@Z 000000018001cab0 f   libucrtd:strnlen.obj
 0001:0001bcf0       ??$__acrt_convert_wcs_mbs_cp@_WDV<lambda_f788ae46380686e8b737efdd8c720d07>@@U__crt_win32_buffer_no_resizing@@@@YAHQEB_WAEAV?$__crt_win32_buffer@DU__crt_win32_buffer_no_resizing@@@@AEBV<lambda_f788ae46380686e8b737efdd8c720d07>@@I@Z 000000018001ccf0 f   libucrtd:getmodulefilenamea.obj
 0001:0001bf80       ??R<lambda_f788ae46380686e8b737efdd8c720d07>@@QEBAHIQEB_WQEAD_K@Z 000000018001cf80 f   libucrtd:getmodulefilenamea.obj
 0001:0001bf80       ??R<lambda_d8593a27d1aa8c02be35c86a17d324c4>@@QEBAHIQEB_WQEAD_K@Z 000000018001cf80 f   libucrtd:argv_wildcards.obj
 0001:0001c2f0       ??$common_show_message_box@_W@@YAHQEB_W0I@Z 000000018001d2f0 f   libucrtd:crtmbox.obj
 0001:0001c600       ??$?RV<lambda_450d765d439847d4c735a33c368b5fc0>@@AEAV<lambda_44731a7d0e6d81c3e6aa82d741081786>@@V<lambda_601a2a7da3b7a96e9554ac7215c4b07c>@@@?$__crt_seh_guarded_call@P6AXH@Z@@QEAAP6AXH@Z$$QEAV<lambda_450d765d439847d4c735a33c368b5fc0>@@AEAV<lambda_44731a7d0e6d81c3e6aa82d741081786>@@$$QEAV<lambda_601a2a7da3b7a96e9554ac7215c4b07c>@@@Z 000000018001d600 f   libucrtd:signal.obj
 0001:0001c650       ??$__acrt_lock_and_call@V<lambda_44731a7d0e6d81c3e6aa82d741081786>@@@@YAP6AXH@ZW4__acrt_lock_id@@$$QEAV<lambda_44731a7d0e6d81c3e6aa82d741081786>@@@Z 000000018001d650 f   libucrtd:signal.obj
 0001:0001c6a0       ??R<lambda_44731a7d0e6d81c3e6aa82d741081786>@@QEBAP6AXH@ZXZ 000000018001d6a0 f   libucrtd:signal.obj
 0001:0001c6d0       ?get_global_action_nolock@@YAPEAP6AXH@ZH@Z 000000018001d6d0 f   libucrtd:signal.obj
 0001:0001c760       ?siglookup@@YAPEAU__crt_signal_action_t@@HQEAU1@@Z 000000018001d760 f   libucrtd:signal.obj
 0001:0001cd00       $LN58                      000000018001dd00     libucrtd:signal.obj
 0001:0001cd0c       $LN57                      000000018001dd0c     libucrtd:signal.obj
 0001:0001cd30       ??$get_cached_win_policy@Udeveloper_information_policy_properties@?1??__acrt_get_developer_information_policy@@YA?AW4developer_information_policy@@XZ@@@YA?AW4developer_information_policy@@W4AppPolicyShowDeveloperDiagnostic@@@Z 000000018001dd30 f   libucrtd:win_policies.obj
 0001:0001ce00       ??$get_cached_win_policy@Uwindowing_model_policy_properties@?1??__acrt_get_windowing_model_policy@@YA?AW4windowing_model_policy@@XZ@@@YA?AW4windowing_model_policy@@W4AppPolicyWindowingModel@@@Z 000000018001de00 f   libucrtd:win_policies.obj
 0001:0001ced0       ??$get_win_policy@Uprocess_end_policy_properties@?1??__acrt_get_process_end_policy@@YA?AW4process_end_policy@@XZ@@@YA?AW4process_end_policy@@W4AppPolicyProcessTerminationMethod@@@Z 000000018001ded0 f   libucrtd:win_policies.obj
 0001:0001cf20       ?appmodel_get_policy@developer_information_policy_properties@?1??__acrt_get_developer_information_policy@@YA?AW4developer_information_policy@@XZ@SAJPEAW4AppPolicyShowDeveloperDiagnostic@@@Z 000000018001df20 f   libucrtd:win_policies.obj
 0001:0001cf40       ?appmodel_get_policy@process_end_policy_properties@?1??__acrt_get_process_end_policy@@YA?AW4process_end_policy@@XZ@SAJPEAW4AppPolicyProcessTerminationMethod@@@Z 000000018001df40 f   libucrtd:win_policies.obj
 0001:0001cf60       ?appmodel_get_policy@windowing_model_policy_properties@?1??__acrt_get_windowing_model_policy@@YA?AW4windowing_model_policy@@XZ@SAJPEAW4AppPolicyWindowingModel@@@Z 000000018001df60 f   libucrtd:win_policies.obj
 0001:0001cf80       ?appmodel_policy_to_policy_type@developer_information_policy_properties@?1??__acrt_get_developer_information_policy@@YA?AW4developer_information_policy@@XZ@SA?AW43@J@Z 000000018001df80 f   libucrtd:win_policies.obj
 0001:0001cfa0       ?appmodel_policy_to_policy_type@process_end_policy_properties@?1??__acrt_get_process_end_policy@@YA?AW4process_end_policy@@XZ@SA?AW43@W4AppPolicyProcessTerminationMethod@@@Z 000000018001dfa0 f   libucrtd:win_policies.obj
 0001:0001cfc0       ?appmodel_policy_to_policy_type@windowing_model_policy_properties@?1??__acrt_get_windowing_model_policy@@YA?AW4windowing_model_policy@@XZ@SA?AW43@J@Z 000000018001dfc0 f   libucrtd:win_policies.obj
 0001:0001d060       ?<lambda_invoker_cdecl>@<lambda_a1ce4c8ae42411fd470c77163914f50e>@@CAHPEBX0@Z 000000018001e060 f   libucrtd:argv_wildcards.obj
 0001:0001d090       ??$__acrt_convert_wcs_mbs_cp@D_WV<lambda_7c9dea7b4ca7285d2cdb541a38da6275>@@U__crt_win32_buffer_internal_dynamic_resizing@@@@YAHQEBDAEAV?$__crt_win32_buffer@_WU__crt_win32_buffer_internal_dynamic_resizing@@@@AEBV<lambda_7c9dea7b4ca7285d2cdb541a38da6275>@@I@Z 000000018001e090 f   libucrtd:argv_wildcards.obj
 0001:0001d230       ??$__acrt_convert_wcs_mbs_cp@_WDV<lambda_d8593a27d1aa8c02be35c86a17d324c4>@@U__crt_win32_buffer_internal_dynamic_resizing@@@@YAHQEB_WAEAV?$__crt_win32_buffer@DU__crt_win32_buffer_internal_dynamic_resizing@@@@AEBV<lambda_d8593a27d1aa8c02be35c86a17d324c4>@@I@Z 000000018001e230 f   libucrtd:argv_wildcards.obj
 0001:0001d470       ??$common_expand_argv_wildcards@D@@YAHQEAPEADQEAPEAPEAD@Z 000000018001e470 f   libucrtd:argv_wildcards.obj
 0001:0001d8a0       ??$copy_and_add_argument_to_buffer@D@@YAHQEBD0_KAEAV?$argument_list@D@?A0x5f5c8891@@@Z 000000018001e8a0 f   libucrtd:argv_wildcards.obj
 0001:0001da50       ??$expand_argument_wildcards@D@@YAHQEAD0AEAV?$argument_list@D@?A0x5f5c8891@@@Z 000000018001ea50 f   libucrtd:argv_wildcards.obj
 0001:0001df50       ??0?$argument_list@D@?A0x5f5c8891@@QEAA@XZ 000000018001ef50 f   libucrtd:argv_wildcards.obj
 0001:0001dfe0       ??1?$argument_list@D@?A0x5f5c8891@@QEAA@XZ 000000018001efe0 f   libucrtd:argv_wildcards.obj
 0001:0001e050       ??B<lambda_a1ce4c8ae42411fd470c77163914f50e>@@QEBAP6AHPEBX0@ZXZ 000000018001f050 f   libucrtd:argv_wildcards.obj
 0001:0001e060       ??R<lambda_7c9dea7b4ca7285d2cdb541a38da6275>@@QEBAHIQEBDQEA_W_K@Z 000000018001f060 f   libucrtd:argv_wildcards.obj
 0001:0001e0b0       ??R<lambda_a1ce4c8ae42411fd470c77163914f50e>@@QEBAHPEBX0@Z 000000018001f0b0 f   libucrtd:argv_wildcards.obj
 0001:0001e0f0       ??R<lambda_cfae5a0e6efa98e0d1aa03c4cec8f74e>@@QEBA_ND@Z 000000018001f0f0 f   libucrtd:argv_wildcards.obj
 0001:0001e2f0       ?append@?$argument_list@D@?A0x5f5c8891@@QEAAHQEAD@Z 000000018001f2f0 f   libucrtd:argv_wildcards.obj
 0001:0001e410       ?end@?$argument_list@D@?A0x5f5c8891@@QEBAPEAPEADXZ 000000018001f410 f   libucrtd:argv_wildcards.obj
 0001:0001e420       ?expand_if_necessary@?$argument_list@D@?A0x5f5c8891@@AEAAHXZ 000000018001f420 f   libucrtd:argv_wildcards.obj
 0001:0001e600       ?get_file_name@@YAPEADQEAV?$__crt_win32_buffer@DU__crt_win32_buffer_internal_dynamic_resizing@@@@QEA_W@Z 000000018001f600 f   libucrtd:argv_wildcards.obj
 0001:0001e650       ?get_wide@@YAPEA_WQEAV?$__crt_win32_buffer@_WU__crt_win32_buffer_internal_dynamic_resizing@@@@QEAD@Z 000000018001f650 f   libucrtd:argv_wildcards.obj
 0001:0001e6a0       ?previous_character@@YAPEADQEAD0@Z 000000018001f6a0 f   libucrtd:argv_wildcards.obj
 0001:0001e710       ?size@?$argument_list@D@?A0x5f5c8891@@QEBA_KXZ 000000018001f710 f   libucrtd:argv_wildcards.obj
 0001:0001e790       ??$?RV<lambda_efa02eb69bf647d2f7ff0dd6f1103f72>@@AEAV<lambda_bd5a608237428601b7e45fbdc72b1ae8>@@V<lambda_728235dc0fc2b1f82d1fa5b3e7102d8f>@@@?$__crt_seh_guarded_call@X@@QEAAX$$QEAV<lambda_efa02eb69bf647d2f7ff0dd6f1103f72>@@AEAV<lambda_bd5a608237428601b7e45fbdc72b1ae8>@@$$QEAV<lambda_728235dc0fc2b1f82d1fa5b3e7102d8f>@@@Z 000000018001f790 f   libucrtd:mbctype.obj
 0001:0001e7d0       ??$__acrt_lock_and_call@V<lambda_bd5a608237428601b7e45fbdc72b1ae8>@@@@YAXW4__acrt_lock_id@@$$QEAV<lambda_bd5a608237428601b7e45fbdc72b1ae8>@@@Z 000000018001f7d0 f   libucrtd:mbctype.obj
 0001:0001e900       ??R<lambda_bd5a608237428601b7e45fbdc72b1ae8>@@QEBAXXZ 000000018001f900 f   libucrtd:mbctype.obj
 0001:0001ea20       ?CPtoLocaleName@@YAPEB_WH@Z 000000018001fa20 f   libucrtd:mbctype.obj
 0001:0001eac0       ?getSystemCP@@YAHH@Z       000000018001fac0 f   libucrtd:mbctype.obj
 0001:0001eba0       ?setSBCS@@YAXPEAU__crt_multibyte_data@@@Z 000000018001fba0 f   libucrtd:mbctype.obj
 0001:0001eca0       ?setSBUpLow@@YAXPEAU__crt_multibyte_data@@@Z 000000018001fca0 f   libucrtd:mbctype.obj
 0001:0001f090       ?setmbcp_internal@@YAHH_NQEAU__acrt_ptd@@QEAPEAU__crt_multibyte_data@@@Z 0000000180020090 f   libucrtd:mbctype.obj
 0001:0001f2f0       ?update_thread_multibyte_data_internal@@YAPEAU__crt_multibyte_data@@QEAU__acrt_ptd@@QEAPEAU1@@Z 00000001800202f0 f   libucrtd:mbctype.obj
 0001:0001fa30       memcpy_s                   0000000180020a30 f   libucrtd:cfout.obj
 0001:0001fa30       memcpy_s                   0000000180020a30 f   libucrtd:mbctype.obj
 0001:0001fb6c       ?x_ismbbtype_l@@YAHPEAU__crt_locale_pointers@@IHH@Z 0000000180020b6c f   libucrtd:ismbbyte.obj
 0001:0001fc30       ?filter_mbtowcs_flags@@YAKIK@Z 0000000180020c30 f   libucrtd:multibytetowidechar.obj
 0001:0001fd30       ?filter_wcstomb_flags@@YAKIK@Z 0000000180020d30 f   libucrtd:widechartomultibyte.obj
 0001:00020020       ?try_get_AppPolicyGetProcessTerminationMethod@@YAP6AJPEAXPEAW4AppPolicyProcessTerminationMethod@@@ZXZ 0000000180021020 f   libucrtd:winapi_thunks.obj
 0001:00020050       ?try_get_AppPolicyGetShowDeveloperDiagnostic@@YAP6AJPEAXPEAW4AppPolicyShowDeveloperDiagnostic@@@ZXZ 0000000180021050 f   libucrtd:winapi_thunks.obj
 0001:00020080       ?try_get_AppPolicyGetWindowingModel@@YAP6AJPEAXPEAW4AppPolicyWindowingModel@@@ZXZ 0000000180021080 f   libucrtd:winapi_thunks.obj
 0001:000200b0       ?try_get_AreFileApisANSI@@YAP6AHXZXZ 00000001800210b0 f   libucrtd:winapi_thunks.obj
 0001:000200e0       ?try_get_FlsAlloc@@YAP6AKP6AXPEAX@Z@ZXZ 00000001800210e0 f   libucrtd:winapi_thunks.obj
 0001:00020110       ?try_get_FlsFree@@YAP6AHK@ZXZ 0000000180021110 f   libucrtd:winapi_thunks.obj
 0001:00020140       ?try_get_FlsGetValue@@YAP6APEAXK@ZXZ 0000000180021140 f   libucrtd:winapi_thunks.obj
 0001:00020170       ?try_get_FlsSetValue@@YAP6AHKPEAX@ZXZ 0000000180021170 f   libucrtd:winapi_thunks.obj
 0001:000201a0       ?try_get_GetActiveWindow@@YAP6APEAUHWND__@@XZXZ 00000001800211a0 f   libucrtd:winapi_thunks.obj
 0001:000201d0       ?try_get_GetLastActivePopup@@YAP6APEAUHWND__@@PEAU1@@ZXZ 00000001800211d0 f   libucrtd:winapi_thunks.obj
 0001:00020200       ?try_get_GetProcessWindowStation@@YAP6APEAUHWINSTA__@@XZXZ 0000000180021200 f   libucrtd:winapi_thunks.obj
 0001:00020230       ?try_get_GetUserObjectInformationW@@YAP6AHPEAXH0KPEAK@ZXZ 0000000180021230 f   libucrtd:winapi_thunks.obj
 0001:00020260       ?try_get_InitializeCriticalSectionEx@@YAP6AHPEAU_RTL_CRITICAL_SECTION@@KK@ZXZ 0000000180021260 f   libucrtd:winapi_thunks.obj
 0001:00020290       ?try_get_LCMapStringEx@@YAP6AHPEB_WK0HPEA_WHPEAU_nlsversioninfo@@PEAX_J@ZXZ 0000000180021290 f   libucrtd:winapi_thunks.obj
 0001:000202c0       ?try_get_LocaleNameToLCID@@YAP6AKPEB_WK@ZXZ 00000001800212c0 f   libucrtd:winapi_thunks.obj
 0001:000202f0       ?try_get_MessageBoxA@@YAP6AHPEAUHWND__@@PEBD1I@ZXZ 00000001800212f0 f   libucrtd:winapi_thunks.obj
 0001:00020320       ?try_get_MessageBoxW@@YAP6AHPEAUHWND__@@PEB_W1I@ZXZ 0000000180021320 f   libucrtd:winapi_thunks.obj
 0001:00020350       ?try_get_first_available_module@@YAPEAUHINSTANCE__@@QEBW4module_id@?A0x391cf84c@@0@Z 0000000180021350 f   libucrtd:winapi_thunks.obj
 0001:000203b0       ?try_get_function@@YAPEAXW4function_id@?A0x391cf84c@@QEBDQEBW4module_id@2@2@Z 00000001800213b0 f   libucrtd:winapi_thunks.obj
 0001:00020550       ?try_get_module@@YAPEAUHINSTANCE__@@W4module_id@?A0x391cf84c@@@Z 0000000180021550 f   libucrtd:winapi_thunks.obj
 0001:000206b0       ?try_get_proc_address_from_first_available_module@@YAPEAXQEBDQEBW4module_id@?A0x391cf84c@@1@Z 00000001800216b0 f   libucrtd:winapi_thunks.obj
 0001:00020700       ?try_load_library_from_system_directory@@YAPEAUHINSTANCE__@@QEB_W@Z 0000000180021700 f   libucrtd:winapi_thunks.obj
 0001:00020f20       ?get_std_handle_id@@YAKH@Z 0000000180021f20 f   libucrtd:ioinit.obj
 0001:00020f70       ?initialize_inherited_file_handles_nolock@@YAXXZ 0000000180021f70 f   libucrtd:ioinit.obj
 0001:00021120       ?initialize_stdio_handles_nolock@@YAXXZ 0000000180022120 f   libucrtd:ioinit.obj
 0001:00021a80       ?select_heap@@YAPEAXQEAX@Z 0000000180022a80 f   libucrtd:free_base.obj
 0001:00021ba0       ?is_contraction_possible@@YA_N_K@Z 0000000180022ba0 f   libucrtd:expand.obj
 0001:00021ea0       ??$?RV<lambda_410d79af7f07d98d83a3f525b3859a53>@@AEAV<lambda_3e16ef9562a7dcce91392c22ab16ea36>@@V<lambda_38119f0e861e05405d8a144b9b982f0a>@@@?$__crt_seh_guarded_call@X@@QEAAX$$QEAV<lambda_410d79af7f07d98d83a3f525b3859a53>@@AEAV<lambda_3e16ef9562a7dcce91392c22ab16ea36>@@$$QEAV<lambda_38119f0e861e05405d8a144b9b982f0a>@@@Z 0000000180022ea0 f   libucrtd:wsetlocale.obj
 0001:00021ee0       ??$__acrt_lock_and_call@V<lambda_3e16ef9562a7dcce91392c22ab16ea36>@@@@YAXW4__acrt_lock_id@@$$QEAV<lambda_3e16ef9562a7dcce91392c22ab16ea36>@@@Z 0000000180022ee0 f   libucrtd:wsetlocale.obj
 0001:00021f30       ??$uninitialize@V<lambda_363eea9039da1e8169e2d060c7fe5cbc>@@@?$dual_state_global@PEAU__crt_locale_data@@@__crt_state_management@@QEAAX$$QEAV<lambda_363eea9039da1e8169e2d060c7fe5cbc>@@@Z 0000000180022f30 f   libucrtd:wsetlocale.obj
 0001:00021f80       ??R<lambda_363eea9039da1e8169e2d060c7fe5cbc>@@QEBAXAEAPEAU__crt_locale_data@@@Z 0000000180022f80 f   libucrtd:wsetlocale.obj
 0001:00021fc0       ??R<lambda_3e16ef9562a7dcce91392c22ab16ea36>@@QEBA@XZ 0000000180022fc0 f   libucrtd:wsetlocale.obj
 0001:00022090       ?issue_debug_notification@@YA_NQEB_W@Z 0000000180023090 f   libucrtd:report_runtime_error.obj
 0001:000220f0       ?should_write_error_to_console@@YA_NXZ 00000001800230f0 f   libucrtd:report_runtime_error.obj
 0001:00022130       ?write_string_to_console@@YAXQEB_W@Z 0000000180023130 f   libucrtd:report_runtime_error.obj
 0001:00023190       ?fe_to_nearest@@YA_NQEBN_KF@Z 0000000180024190 f   libucrtd:cvt.obj
 0001:000232e0       ?fp_format_a@@YAHQEBNPEAD_KQEAD2H_NIQEAU__crt_locale_pointers@@W4__acrt_rounding_mode@@@Z 00000001800242e0 f   libucrtd:cvt.obj
 0001:00023b80       ?fp_format_e@@YAHQEBNQEAD_K12H_NIQEAU__crt_locale_pointers@@W4__acrt_rounding_mode@@@Z 0000000180024b80 f   libucrtd:cvt.obj
 0001:00023da0       ?fp_format_e_internal@@YAHQEAD_KH_NIQEAU_strflt@@2QEAU__crt_locale_pointers@@@Z 0000000180024da0 f   libucrtd:cvt.obj
 0001:000241d0       ?fp_format_f@@YAHQEBNQEAD_K12HQEAU__crt_locale_pointers@@W4__acrt_rounding_mode@@@Z 00000001800251d0 f   libucrtd:cvt.obj
 0001:00024330       ?fp_format_f_internal@@YAHQEAD_KHQEAU_strflt@@_NQEAU__crt_locale_pointers@@@Z 0000000180025330 f   libucrtd:cvt.obj
 0001:000245d0       ?fp_format_g@@YAHQEBNQEAD_K12H_NIW4__acrt_rounding_mode@@QEAU__crt_locale_pointers@@@Z 00000001800255d0 f   libucrtd:cvt.obj
 0001:00024820       ?fp_format_nan_or_infinity@@YAHW4__acrt_fp_class@@_NPEAD_K1@Z 0000000180025820 f   libucrtd:cvt.obj
 0001:00024990       ?shift_bytes@@YAXQEAD_K0H@Z 0000000180025990 f   libucrtd:cvt.obj
 0001:000249e0       ?should_round_up@@YA_NQEBN_KFW4__acrt_rounding_mode@@@Z 00000001800259e0 f   libucrtd:cvt.obj
 0001:00025104       $LN42                      0000000180026104     libucrtd:cvt.obj
 0001:00025118       $LN41                      0000000180026118     libucrtd:cvt.obj
 0001:00025e80       ??$common_xtox@KD@@YAHKQEAD_KI_N@Z 0000000180026e80 f   libucrtd:xtoa.obj
 0001:000260c0       ??$common_xtox@K_W@@YAHKQEA_W_KI_N@Z 00000001800270c0 f   libucrtd:xtoa.obj
 0001:00026310       ??$common_xtox_s@KD@@YAHKQEAD_KI_N@Z 0000000180027310 f   libucrtd:xtoa.obj
 0001:000266c0       ??$common_xtox_s@K_W@@YAHKQEA_W_KI_N@Z 00000001800276c0 f   libucrtd:xtoa.obj
 0001:00026b30       ?_mbstowcs_l_helper@@YA_KPEA_WPEBD_KPEAU__crt_locale_pointers@@@Z 0000000180027b30 f   libucrtd:mbstowcs.obj
 0001:00027730       ?_wcstombs_l_helper@@YA_KPEADPEB_W_KPEAU__crt_locale_pointers@@@Z 0000000180028730 f   libucrtd:wcstombs.obj
 0001:00027fe0       ?wcsncnt@@YA_KPEB_W_K@Z    0000000180028fe0 f   libucrtd:wcstombs.obj
 0001:00028600       ??$common_tcscat_s@_W@@YAHQEA_W_KQEB_W@Z 0000000180029600 f   libucrtd:wcscat_s.obj
 0001:00028cb0       ??$common_tcscat_s@D@@YAHQEAD_KQEBD@Z 0000000180029cb0 f   libucrtd:strcat_s.obj
 0001:00029410       ?shortsort@@YAXPEAD0_KP6AHPEBX2@Z@Z 000000018002a410 f   libucrtd:qsort.obj
 0001:000294f0       ?swap@@YAXPEAD0_K@Z        000000018002a4f0 f   libucrtd:qsort.obj
 0001:00029c90       ??$common_tcsncpy_s@_W@@YAHQEA_W_KQEB_W1@Z 000000018002ac90 f   libucrtd:wcsncpy_s.obj
 0001:0002a370       ??$common_tcsncpy_s@D@@YAHQEAD_KQEBD1@Z 000000018002b370 f   libucrtd:strncpy_s.obj
 0001:0002aa30       fallbackMethod             000000018002ba30 f   libucrtd:strpbrk.obj
 0001:0002b394       $LN85                      000000018002c394     libucrtd:strpbrk.obj
 0001:0002b3d0       $LN84                      000000018002c3d0     libucrtd:strpbrk.obj
 0001:0002b410       $LN83                      000000018002c410     libucrtd:strpbrk.obj
 0001:0002b8e0       ?__acrt_LCMapStringA_stat@@YAHPEAU__crt_locale_pointers@@PEB_WKPEBDHPEADHHH@Z 000000018002c8e0 f   libucrtd:lcmapstringa.obj
 0001:0002bf80       ?initialize_multibyte@@YAHXZ 000000018002cf80 f   libucrtd:multibyte_initializer.obj
 0001:0002bfb0       ?GetTableIndexFromLocaleName@@YAHPEB_W@Z 000000018002cfb0 f   libucrtd:lcidtoname_downlevel.obj
 0001:0002c960       ??$?RV<lambda_842d9ff0dc9ef11c61343bbaebe7f885>@@AEAV<lambda_c5860995281e5c4ce005b3de8f5874ee>@@V<lambda_d90129c13df834fdcbf8d2b88dafcf2d>@@@?$__crt_seh_guarded_call@X@@QEAAX$$QEAV<lambda_842d9ff0dc9ef11c61343bbaebe7f885>@@AEAV<lambda_c5860995281e5c4ce005b3de8f5874ee>@@$$QEAV<lambda_d90129c13df834fdcbf8d2b88dafcf2d>@@@Z 000000018002d960 f   libucrtd:fflush.obj
 0001:0002c9a0       ??$?RV<lambda_886d6c58226a84441f68b9f2b8217b83>@@AEAV<lambda_ab61a845afdef5b7c387490eaf3616ee>@@V<lambda_f7f22ab5edc0698d5f6905b0d3f44752>@@@?$__crt_seh_guarded_call@X@@QEAAX$$QEAV<lambda_886d6c58226a84441f68b9f2b8217b83>@@AEAV<lambda_ab61a845afdef5b7c387490eaf3616ee>@@$$QEAV<lambda_f7f22ab5edc0698d5f6905b0d3f44752>@@@Z 000000018002d9a0 f   libucrtd:fflush.obj
 0001:0002c9e0       ??$__acrt_lock_and_call@V<lambda_ab61a845afdef5b7c387490eaf3616ee>@@@@YAXW4__acrt_lock_id@@$$QEAV<lambda_ab61a845afdef5b7c387490eaf3616ee>@@@Z 000000018002d9e0 f   libucrtd:fflush.obj
 0001:0002ca30       ??$__acrt_lock_stream_and_call@V<lambda_c5860995281e5c4ce005b3de8f5874ee>@@@@YAXQEAU_iobuf@@$$QEAV<lambda_c5860995281e5c4ce005b3de8f5874ee>@@@Z 000000018002da30 f   libucrtd:fflush.obj
 0001:0002ca80       ??0<lambda_842d9ff0dc9ef11c61343bbaebe7f885>@@QEAA@AEBQEAU_iobuf@@@Z 000000018002da80 f   libucrtd:fflush.obj
 0001:0002ca80       ??0<lambda_d90129c13df834fdcbf8d2b88dafcf2d>@@QEAA@AEBQEAU_iobuf@@@Z 000000018002da80 f   libucrtd:fflush.obj
 0001:0002caa0       ??0<lambda_c5860995281e5c4ce005b3de8f5874ee>@@QEAA@AEBV__crt_stdio_stream@@AEAHAEB_N1@Z 000000018002daa0 f   libucrtd:fflush.obj
 0001:0002cb00       ??R<lambda_842d9ff0dc9ef11c61343bbaebe7f885>@@QEBAXXZ 000000018002db00 f   libucrtd:fflush.obj
 0001:0002cb20       ??R<lambda_ab61a845afdef5b7c387490eaf3616ee>@@QEBA@XZ 000000018002db20 f   libucrtd:fflush.obj
 0001:0002cc10       ??R<lambda_c5860995281e5c4ce005b3de8f5874ee>@@QEBAXXZ 000000018002dc10 f   libucrtd:fflush.obj
 0001:0002ccb0       ??R<lambda_d90129c13df834fdcbf8d2b88dafcf2d>@@QEBAXXZ 000000018002dcb0 f   libucrtd:fflush.obj
 0001:0002cd20       ?common_flush_all@@YAH_N@Z 000000018002dd20 f   libucrtd:fflush.obj
 0001:0002cd90       ?common_flush_all_should_try_to_flush_stream@@YA_NV__crt_stdio_stream@@QEAH@Z 000000018002dd90 f   libucrtd:fflush.obj
 0001:0002ce40       ?is_stream_allocated@@YA_NJ@Z 000000018002de40 f   libucrtd:fflush.obj
 0001:0002ce70       ?is_stream_flushable@@YA_NJ@Z 000000018002de70 f   libucrtd:fflush.obj
 0001:0002cea0       ?is_stream_flushable_or_commitable@@YA_NJ@Z 000000018002dea0 f   libucrtd:fflush.obj
 0001:0002d420       ??$free_crt_array@D$01@@YAXAEAY01PEAD@Z 000000018002e420 f   libucrtd:inittime.obj
 0001:0002d420       ??$free_crt_array@_W$01@@YAXAEAY01PEA_W@Z 000000018002e420 f   libucrtd:inittime.obj
 0001:0002d440       ??$free_crt_array@D$06@@YAXAEAY06PEAD@Z 000000018002e440 f   libucrtd:inittime.obj
 0001:0002d440       ??$free_crt_array@_W$06@@YAXAEAY06PEA_W@Z 000000018002e440 f   libucrtd:inittime.obj
 0001:0002d460       ??$free_crt_array@D$0M@@@YAXAEAY0M@PEAD@Z 000000018002e460 f   libucrtd:inittime.obj
 0001:0002d460       ??$free_crt_array@_W$0M@@@YAXAEAY0M@PEA_W@Z 000000018002e460 f   libucrtd:inittime.obj
 0001:0002d480       ?free_crt_array_internal@@YAXQEAPEBX_K@Z 000000018002e480 f   libucrtd:inittime.obj
 0001:0002d7b0       ??R<lambda_88e6d024674186fe9d3f7283b675e4c3>@@QEBA_KPEBD@Z 000000018002e7b0 f   libucrtd:mbrtowc.obj
 0001:0002dec0       ?check_trailing@@YA_NPEBDW4__acrt_has_trailing_digits@@@Z 000000018002eec0 f   libucrtd:_fptostr.obj
 0001:0002df10       ?should_round_up@@YA_NQEBDHW4__acrt_has_trailing_digits@@W4__acrt_rounding_mode@@@Z 000000018002ef10 f   libucrtd:_fptostr.obj
 0001:0002e4d0       ??$convert_to_fos_high_precision@N@@YA?AW4__acrt_has_trailing_digits@@NIQEAHQEAD_K@Z 000000018002f4d0 f   libucrtd:cfout.obj
 0001:0002ebf0       ??0scoped_fp_state_reset@?A0x71ca7cfb@@QEAA@XZ 000000018002fbf0 f   libucrtd:cfout.obj
 0001:0002ec40       ??1scoped_fp_state_reset@?A0x71ca7cfb@@QEAA@XZ 000000018002fc40 f   libucrtd:cfout.obj
 0001:00030dc0       ??$?RV<lambda_4e3dbe6921bc0b5a1a6bc6573fdc859e>@@AEAV<lambda_5533cddd4bda0037814beee657757329>@@V<lambda_47cffbaa968af5c721c38a4a6f8da44d>@@@?$__crt_seh_guarded_call@H@@QEAAH$$QEAV<lambda_4e3dbe6921bc0b5a1a6bc6573fdc859e>@@AEAV<lambda_5533cddd4bda0037814beee657757329>@@$$QEAV<lambda_47cffbaa968af5c721c38a4a6f8da44d>@@@Z 0000000180031dc0 f   libucrtd:commit.obj
 0001:00030e10       ??$__acrt_lowio_lock_fh_and_call@V<lambda_5533cddd4bda0037814beee657757329>@@@@YAHH$$QEAV<lambda_5533cddd4bda0037814beee657757329>@@@Z 0000000180031e10 f   libucrtd:commit.obj
 0001:00030e60       ??R<lambda_8ddc48ad9d26c778cb15812d1d88fc8a>@@QEBAXXZ 0000000180031e60 f   libucrtd:close.obj
 0001:00030e60       ??R<lambda_47cffbaa968af5c721c38a4a6f8da44d>@@QEBAXXZ 0000000180031e60 f   libucrtd:commit.obj
 0001:00030e80       ??R<lambda_53fc7fc888e23d815d7080162c0aeeb2>@@QEBAXXZ 0000000180031e80 f   libucrtd:close.obj
 0001:00030e80       ??R<lambda_4e3dbe6921bc0b5a1a6bc6573fdc859e>@@QEBAXXZ 0000000180031e80 f   libucrtd:commit.obj
 0001:00030ea0       ??R<lambda_5533cddd4bda0037814beee657757329>@@QEBAHXZ 0000000180031ea0 f   libucrtd:commit.obj
 0001:00031140       ?write_binary_nolock@@YA?AUwrite_result@?A0x17268360@@HQEBDI@Z 0000000180032140 f   libucrtd:write.obj
 0001:00031210       ?write_double_translated_ansi_nolock@@YA?AUwrite_result@?A0x17268360@@HQEBDI@Z 0000000180032210 f   libucrtd:write.obj
 0001:00032170       ?write_double_translated_unicode_nolock@@YA?AUwrite_result@?A0x17268360@@QEBDI@Z 0000000180033170 f   libucrtd:write.obj
 0001:000322d0       ?write_requires_double_translation_nolock@@YA_NH@Z 00000001800332d0 f   libucrtd:write.obj
 0001:000323f0       ?write_text_ansi_nolock@@YA?AUwrite_result@?A0x17268360@@HQEBDI@Z 00000001800333f0 f   libucrtd:write.obj
 0001:00032620       ?write_text_utf16le_nolock@@YA?AUwrite_result@?A0x17268360@@HQEBDI@Z 0000000180033620 f   libucrtd:write.obj
 0001:00032860       ?write_text_utf8_nolock@@YA?AUwrite_result@?A0x17268360@@HQEBDI@Z 0000000180033860 f   libucrtd:write.obj
 0001:000337a0       $$000000                   00000001800347a0     libucrtd:log10.obj
 0001:000342e0       ??$to_abstract_status@W4__acrt_fenv_machine_sse_status@@@@YA?AW4__acrt_fenv_abstract_status@@W4__acrt_fenv_machine_sse_status@@@Z 00000001800352e0 f   libucrtd:_fenvutils.obj
 0001:00034300       ??$translate_control_exception_mask@W4__acrt_fenv_abstract_control@@W4__acrt_fenv_machine_sse_control@@@@YA?AW4__acrt_fenv_abstract_control@@W4__acrt_fenv_machine_sse_control@@@Z 0000000180035300 f   libucrtd:_fenvutils.obj
 0001:000343f0       ??$translate_control_exception_mask@W4__acrt_fenv_machine_sse_control@@W4__acrt_fenv_abstract_control@@@@YA?AW4__acrt_fenv_machine_sse_control@@W4__acrt_fenv_abstract_control@@@Z 00000001800353f0 f   libucrtd:_fenvutils.obj
 0001:000344e0       ??$translate_control_rounding_control@W4__acrt_fenv_abstract_control@@W4__acrt_fenv_machine_sse_control@@@@YA?AW4__acrt_fenv_abstract_control@@W4__acrt_fenv_machine_sse_control@@@Z 00000001800354e0 f   libucrtd:_fenvutils.obj
 0001:00034550       ??$translate_control_rounding_control@W4__acrt_fenv_machine_sse_control@@W4__acrt_fenv_abstract_control@@@@YA?AW4__acrt_fenv_machine_sse_control@@W4__acrt_fenv_abstract_control@@@Z 0000000180035550 f   libucrtd:_fenvutils.obj
 0001:000345c0       ??$translate_status@W4__acrt_fenv_abstract_status@@W4__acrt_fenv_machine_sse_status@@@@YA?AW4__acrt_fenv_abstract_status@@W4__acrt_fenv_machine_sse_status@@@Z 00000001800355c0 f   libucrtd:_fenvutils.obj
 0001:000346b0       ??$translate_status@W4__acrt_fenv_machine_sse_status@@W4__acrt_fenv_abstract_status@@@@YA?AW4__acrt_fenv_machine_sse_status@@W4__acrt_fenv_abstract_status@@@Z 00000001800356b0 f   libucrtd:_fenvutils.obj
 0001:00034980       ?get_machine_sse_control@@YA?AW4__acrt_fenv_machine_sse_control@@XZ 0000000180035980 f   libucrtd:_fenvutils.obj
 0001:000349a0       ?get_machine_sse_status@@YA?AW4__acrt_fenv_machine_sse_status@@XZ 00000001800359a0 f   libucrtd:_fenvutils.obj
 0001:000349c0       ?set_machine_sse_control@@YAXW4__acrt_fenv_machine_sse_control@@@Z 00000001800359c0 f   libucrtd:_fenvutils.obj
 0001:00034a20       ?set_machine_sse_status@@YAXW4__acrt_fenv_machine_sse_status@@@Z 0000000180035a20 f   libucrtd:_fenvutils.obj
 0001:00034a70       ?to_abstract_control@@YA?AW4__acrt_fenv_abstract_control@@W4__acrt_fenv_machine_sse_control@@@Z 0000000180035a70 f   libucrtd:_fenvutils.obj
 0001:00034ac0       ?to_machine_sse_control@@YA?AW4__acrt_fenv_machine_sse_control@@W4__acrt_fenv_abstract_control@@@Z 0000000180035ac0 f   libucrtd:_fenvutils.obj
 0001:00034b20       ?to_machine_sse_status@@YA?AW4__acrt_fenv_machine_sse_status@@W4__acrt_fenv_abstract_status@@@Z 0000000180035b20 f   libucrtd:_fenvutils.obj
 0001:00034b40       ?translate_control_denormal_control_from_sse@@YA?AW4__acrt_fenv_abstract_control@@W4__acrt_fenv_machine_sse_control@@@Z 0000000180035b40 f   libucrtd:_fenvutils.obj
 0001:00034bc0       ?translate_control_denormal_control_to_sse@@YA?AW4__acrt_fenv_machine_sse_control@@W4__acrt_fenv_abstract_control@@@Z 0000000180035bc0 f   libucrtd:_fenvutils.obj
 0001:00034ce0       ??$common_lseek_nolock@_J@@YA_JH_JH@Z 0000000180035ce0 f   libucrtd:lseek.obj
 0001:00034df0       ?common_lseek_do_seek_nolock@@YA_JQEAX_JH@Z 0000000180035df0 f   libucrtd:lseek.obj
 0001:00035260       ?combine_second_surrogate@?A0xc60ee810@@YA_U_SPEAU_Mbstatet@@@Z 0000000180036260 f   libucrtd:c16rtomb.obj
 0001:00035280       ?has_surrogate@?A0xc60ee810@@YA_NPEAU_Mbstatet@@@Z 0000000180036280 f   libucrtd:c16rtomb.obj
 0001:000352b0       ?is_first_surrogate@?A0xc60ee810@@YA_N_S@Z 00000001800362b0 f   libucrtd:c16rtomb.obj
 0001:000352f0       ?is_second_surrogate@?A0xc60ee810@@YA_N_S@Z 00000001800362f0 f   libucrtd:c16rtomb.obj
 0001:00035330       ?store_first_surrogate@?A0xc60ee810@@YAX_SPEAU_Mbstatet@@@Z 0000000180036330 f   libucrtd:c16rtomb.obj
 0001:000354a0       _log_special_common        00000001800364a0 f   libucrtd:log_special.obj
 0001:000355c0       _call_matherr              00000001800365c0 f   libucrtd:libm_error.obj
 0001:00035650       _exception_enabled         0000000180036650 f   libucrtd:libm_error.obj
 0001:00035970       _abstract_cw               0000000180036970 f   libucrtd:ieee.obj
 0001:00035ac0       _abstract_sw               0000000180036ac0 f   libucrtd:ieee.obj
 0001:00035ba0       _hw_cw                     0000000180036ba0 f   libucrtd:ieee.obj
 0001:00035cf0       common_control87           0000000180036cf0 f   libucrtd:ieee.obj
 0001:00035e10       ??$?RV<lambda_53fc7fc888e23d815d7080162c0aeeb2>@@AEAV<lambda_4e7105787b7b0e0227fbf2b2d883fa65>@@V<lambda_8ddc48ad9d26c778cb15812d1d88fc8a>@@@?$__crt_seh_guarded_call@H@@QEAAH$$QEAV<lambda_53fc7fc888e23d815d7080162c0aeeb2>@@AEAV<lambda_4e7105787b7b0e0227fbf2b2d883fa65>@@$$QEAV<lambda_8ddc48ad9d26c778cb15812d1d88fc8a>@@@Z 0000000180036e10 f   libucrtd:close.obj
 0001:00035e60       ??$__acrt_lowio_lock_fh_and_call@V<lambda_4e7105787b7b0e0227fbf2b2d883fa65>@@@@YAHH$$QEAV<lambda_4e7105787b7b0e0227fbf2b2d883fa65>@@@Z 0000000180036e60 f   libucrtd:close.obj
 0001:00035eb0       ??R<lambda_4e7105787b7b0e0227fbf2b2d883fa65>@@QEBAHXZ 0000000180036eb0 f   libucrtd:close.obj
 0001:00035f60       ?close_os_handle_nolock@@YAKH@Z 0000000180036f60 f   libucrtd:close.obj
 0001:00036d10       $$000000                   0000000180037d10     libucrtd:fpsr.obj
 0001:00037070       $$000000                   0000000180038070     LIBCMTD:chkstk.obj
 0001:000371a0       $$000000                   00000001800381a0     libvcruntimed:memcmp.obj
 0001:000376a0       $$000000                   00000001800386a0     LIBCMTD:guard_dispatch.obj
 0001:000376c0       $$000000                   00000001800386c0     LIBCMTD:guard_xfg_dispatch.obj
 0001:000376e0       ?fin$0@?0??dllmain_crt_process_attach@@YAHQEAUHINSTANCE__@@QEAX@Z@4HA 00000001800386e0 f   LIBCMTD:dll_dllmain.obj
 0001:00037700       ?fin$0@?0??dllmain_crt_process_detach@@YAH_N@Z@4HA 0000000180038700 f   LIBCMTD:dll_dllmain.obj
 0001:0003771a       ?fin$1@?0??dllmain_crt_process_detach@@YAH_N@Z@4HA 000000018003871a f   LIBCMTD:dll_dllmain.obj
 0001:00037730       ?filt$0@?0??dllmain_dispatch@@YAHQEAUHINSTANCE__@@KQEAX@Z@4HA 0000000180038730 f   LIBCMTD:dll_dllmain.obj
 0001:00037780       __scrt_is_nonwritable_in_current_image$filt$0 0000000180038780 f   LIBCMTD:utility.obj
 0001:000377c0       __DestructExceptionObject$filt$0 00000001800387c0 f   libvcruntimed:ehhelpers.obj
 0001:000377f0       ?filt$0@?0???$_CallSETranslator@V__FrameHandler3@@@@YAHPEAUEHExceptionRecord@@PEA_KPEAU_CONTEXT@@PEAU_xDISPATCHER_CONTEXT@@PEBU_s_FuncInfo@@K1H@Z@4HA 00000001800387f0 f   libvcruntimed:risctrnsctrl.obj
 0001:00037860       ?filt$0@?0??is_bad_read_pointer@@YA_NQEBX_K@Z@4HA 0000000180038860 f   libucrtd:debug_heap.obj
 0001:00037860       terminate$filt$0           0000000180038860 f   libucrtd:terminate.obj
 0001:00037860       ?filt$0@?0???$BuildCatchObjectHelperInternal@V__FrameHandler3@@@@YAHPEAUEHExceptionRecord@@PEAXPEBU_s_HandlerType@@PEBU_s_CatchableType@@@Z@4HA 0000000180038860 f   libvcruntimed:frame.obj
 0001:00037860       ?filt$0@?0???$BuildCatchObjectInternal@V__FrameHandler3@@@@YAXPEAUEHExceptionRecord@@PEAXPEBU_s_HandlerType@@PEBU_s_CatchableType@@@Z@4HA 0000000180038860 f   libvcruntimed:frame.obj
 0001:00037880       ?filt$0@?0??CxxCallCatchBlock@__FrameHandler3@@SAPEAXPEAU_EXCEPTION_RECORD@@@Z@4HA 0000000180038880 f   libvcruntimed:frame.obj
 0001:000378a9       ?fin$1@?0??CxxCallCatchBlock@__FrameHandler3@@SAPEAXPEAU_EXCEPTION_RECORD@@@Z@4HA 00000001800388a9 f   libvcruntimed:frame.obj
 0001:00037940       ?filt$0@?0??FrameUnwindToState@__FrameHandler3@@SAXPEA_KPEAU_xDISPATCHER_CONTEXT@@PEBU_s_FuncInfo@@H@Z@4HA 0000000180038940 f   libvcruntimed:frame.obj
 0001:00037961       ?fin$1@?0??FrameUnwindToState@__FrameHandler3@@SAXPEA_KPEAU_xDISPATCHER_CONTEXT@@PEBU_s_FuncInfo@@H@Z@4HA 0000000180038961 f   libvcruntimed:frame.obj
 0001:000379a0       ?fin$0@?0???$?RV<lambda_0ae27a3a962d80f24befdcbee591983d>@@AEAV<lambda_8d0ee55de4b1038c4002e0adecdf1839>@@V<lambda_dc504788e8f1664fe9b84e20bfb512f2>@@@?$__crt_seh_guarded_call@X@@QEAAX$$QEAV<lambda_0ae27a3a962d80f24befdcbee591983d>@@AEAV<lambda_8d0ee55de4b1038c4002e0adecdf1839>@@$$QEAV<lambda_dc504788e8f1664fe9b84e20bfb512f2>@@@Z@4HA 00000001800389a0 f   libucrtd:per_thread_data.obj
 0001:000379a0       ?fin$0@?0???$?RV<lambda_2d41944a1d46af3157314b8a01080d33>@@AEAV<lambda_8f455de75cd7d7f24b4096f044d8b9e6>@@V<lambda_aa500f224e6afead328df44964fe2772>@@@?$__crt_seh_guarded_call@X@@QEAAX$$QEAV<lambda_2d41944a1d46af3157314b8a01080d33>@@AEAV<lambda_8f455de75cd7d7f24b4096f044d8b9e6>@@$$QEAV<lambda_aa500f224e6afead328df44964fe2772>@@@Z@4HA 00000001800389a0 f   libucrtd:per_thread_data.obj
 0001:000379a0       ?fin$0@?0???$?RV<lambda_74a0ef281e44d15e1136f792f539efb3>@@AEAV<lambda_e157831efee4ea0afb0a2ace5dd5fd0d>@@V<lambda_04ddeca75b7c13fd67716e8dfcef87ee>@@@?$__crt_seh_guarded_call@X@@QEAAX$$QEAV<lambda_74a0ef281e44d15e1136f792f539efb3>@@AEAV<lambda_e157831efee4ea0afb0a2ace5dd5fd0d>@@$$QEAV<lambda_04ddeca75b7c13fd67716e8dfcef87ee>@@@Z@4HA 00000001800389a0 f   libucrtd:per_thread_data.obj
 0001:000379a0       ?fin$0@?0???$?RV<lambda_aa87e3671a710a21b5dc78c0bdf72e11>@@AEAV<lambda_92619d2358a28f41a33ba319515a20b9>@@V<lambda_6992ecaafeb10aed2b74cb1fae11a551>@@@?$__crt_seh_guarded_call@X@@QEAAX$$QEAV<lambda_aa87e3671a710a21b5dc78c0bdf72e11>@@AEAV<lambda_92619d2358a28f41a33ba319515a20b9>@@$$QEAV<lambda_6992ecaafeb10aed2b74cb1fae11a551>@@@Z@4HA 00000001800389a0 f   libucrtd:per_thread_data.obj
 0001:000379a0       ?fin$0@?0???$?RV<lambda_410d79af7f07d98d83a3f525b3859a53>@@AEAV<lambda_3e16ef9562a7dcce91392c22ab16ea36>@@V<lambda_38119f0e861e05405d8a144b9b982f0a>@@@?$__crt_seh_guarded_call@X@@QEAAX$$QEAV<lambda_410d79af7f07d98d83a3f525b3859a53>@@AEAV<lambda_3e16ef9562a7dcce91392c22ab16ea36>@@$$QEAV<lambda_38119f0e861e05405d8a144b9b982f0a>@@@Z@4HA 00000001800389a0 f   libucrtd:wsetlocale.obj
 0001:000379a0       ?fin$0@?0???$?RV<lambda_efa02eb69bf647d2f7ff0dd6f1103f72>@@AEAV<lambda_bd5a608237428601b7e45fbdc72b1ae8>@@V<lambda_728235dc0fc2b1f82d1fa5b3e7102d8f>@@@?$__crt_seh_guarded_call@X@@QEAAX$$QEAV<lambda_efa02eb69bf647d2f7ff0dd6f1103f72>@@AEAV<lambda_bd5a608237428601b7e45fbdc72b1ae8>@@$$QEAV<lambda_728235dc0fc2b1f82d1fa5b3e7102d8f>@@@Z@4HA 00000001800389a0 f   libucrtd:mbctype.obj
 0001:000379a0       ?fin$0@?0???$?RV<lambda_d80eeec6fff315bfe5c115232f3240e3>@@AEAV<lambda_6e4b09c48022b2350581041d5f6b0c4c>@@V<lambda_2358e3775559c9db80273638284d5e45>@@@?$__crt_seh_guarded_call@X@@QEAAX$$QEAV<lambda_d80eeec6fff315bfe5c115232f3240e3>@@AEAV<lambda_6e4b09c48022b2350581041d5f6b0c4c>@@$$QEAV<lambda_2358e3775559c9db80273638284d5e45>@@@Z@4HA 00000001800389a0 f   libucrtd:exit.obj
 0001:000379a0       ?fin$0@?0???$?RV<lambda_886d6c58226a84441f68b9f2b8217b83>@@AEAV<lambda_ab61a845afdef5b7c387490eaf3616ee>@@V<lambda_f7f22ab5edc0698d5f6905b0d3f44752>@@@?$__crt_seh_guarded_call@X@@QEAAX$$QEAV<lambda_886d6c58226a84441f68b9f2b8217b83>@@AEAV<lambda_ab61a845afdef5b7c387490eaf3616ee>@@$$QEAV<lambda_f7f22ab5edc0698d5f6905b0d3f44752>@@@Z@4HA 00000001800389a0 f   libucrtd:fflush.obj
 0001:000379c0       ?filt$0@?0???R<lambda_6e4b09c48022b2350581041d5f6b0c4c>@@QEBA@XZ@4HA 00000001800389c0 f   libucrtd:exit.obj
 0001:000379f0       ?fin$0@?0???$?RV<lambda_450d765d439847d4c735a33c368b5fc0>@@AEAV<lambda_44731a7d0e6d81c3e6aa82d741081786>@@V<lambda_601a2a7da3b7a96e9554ac7215c4b07c>@@@?$__crt_seh_guarded_call@P6AXH@Z@@QEAAP6AXH@Z$$QEAV<lambda_450d765d439847d4c735a33c368b5fc0>@@AEAV<lambda_44731a7d0e6d81c3e6aa82d741081786>@@$$QEAV<lambda_601a2a7da3b7a96e9554ac7215c4b07c>@@@Z@4HA 00000001800389f0 f   libucrtd:signal.obj
 0001:000379f0       ?fin$0@?0???$?RV<lambda_6a47f4c8fd0152770a780fc1d70204eb>@@AEAV<lambda_d121dba8a4adeaf3a9819e48611155df>@@V<lambda_6aaa2265f5b6a89667e7d7630012e97a>@@@?$__crt_seh_guarded_call@H@@QEAAH$$QEAV<lambda_6a47f4c8fd0152770a780fc1d70204eb>@@AEAV<lambda_d121dba8a4adeaf3a9819e48611155df>@@$$QEAV<lambda_6aaa2265f5b6a89667e7d7630012e97a>@@@Z@4HA 00000001800389f0 f   libucrtd:onexit.obj
 0001:00037a10       ?dtor$0@?0???R<lambda_d121dba8a4adeaf3a9819e48611155df>@@QEBAHXZ@4HA 0000000180038a10 f   libucrtd:onexit.obj
 0001:00037a30       ?fin$0@?0??heap_alloc_dbg_internal@@YAPEAX_KHQEBDH@Z@4HA 0000000180038a30 f   libucrtd:debug_heap.obj
 0001:00037a30       _CrtMemCheckpoint$fin$0    0000000180038a30 f   libucrtd:debug_heap.obj
 0001:00037a50       ?fin$0@?0??validate_heap_if_required_nolock@@YAXXZ@4HA 0000000180038a50 f   libucrtd:debug_heap.obj
 0001:00037a70       _CrtCheckMemory$fin$0      0000000180038a70 f   libucrtd:debug_heap.obj
 0001:00037a70       _CrtMemDumpAllObjectsSince$fin$0 0000000180038a70 f   libucrtd:debug_heap.obj
 0001:00037a70       _CrtSetDbgFlag$fin$0       0000000180038a70 f   libucrtd:debug_heap.obj
 0001:00037a70       _msize_dbg$fin$0           0000000180038a70 f   libucrtd:debug_heap.obj
 0001:00037a70       _realloc_dbg$fin$0         0000000180038a70 f   libucrtd:debug_heap.obj
 0001:00037a90       _free_dbg$fin$0            0000000180038a90 f   libucrtd:debug_heap.obj
 0001:00037a90       _query_new_handler$fin$0   0000000180038a90 f   libucrtd:new_handler.obj
 0001:00037ab0       _VCrtDbgReportA$fin$0      0000000180038ab0 f   libucrtd:dbgrptt.obj
 0001:00037acb       _VCrtDbgReportA$fin$1      0000000180038acb f   libucrtd:dbgrptt.obj
 0001:00037af0       _VCrtDbgReportW$fin$0      0000000180038af0 f   libucrtd:dbgrptt.obj
 0001:00037b0b       _VCrtDbgReportW$fin$1      0000000180038b0b f   libucrtd:dbgrptt.obj
 0001:00037b30       raise$fin$0                0000000180038b30 f   libucrtd:signal.obj
 0001:00037b60       ?fin$0@?0??update_thread_multibyte_data_internal@@YAPEAU__crt_multibyte_data@@QEAU__acrt_ptd@@QEAPEAU1@@Z@4HA 0000000180038b60 f   libucrtd:mbctype.obj
 0001:00037b80       __acrt_initialize_lowio$fin$0 0000000180038b80 f   libucrtd:ioinit.obj
 0001:00037ba0       ?dtor$0@?0??fp_format_a@@YAHQEBNPEAD_KQEAD2H_NIQEAU__crt_locale_pointers@@W4__acrt_rounding_mode@@@Z@4HA 0000000180038ba0 f   libucrtd:cvt.obj
 0001:00037bc0       __acrt_update_thread_locale_data$fin$0 0000000180038bc0 f   libucrtd:locale_refcounting.obj
 0001:00037be0       ?dtor$0@?0??_wcstombs_l_helper@@YA_KPEADPEB_W_KPEAU__crt_locale_pointers@@@Z@4HA 0000000180038be0 f   libucrtd:wcstombs.obj
 0001:00037c00       ?dtor$0@?0??shortsort@@YAXPEAD0_KP6AHPEBX2@Z@Z@4HA 0000000180038c00 f   libucrtd:qsort.obj
 0001:00037c20       __acrt_lowio_ensure_fh_exists$fin$0 0000000180038c20 f   libucrtd:osfinfo.obj
 0001:00037c40       ?fin$0@?0???$?RV<lambda_842d9ff0dc9ef11c61343bbaebe7f885>@@AEAV<lambda_c5860995281e5c4ce005b3de8f5874ee>@@V<lambda_d90129c13df834fdcbf8d2b88dafcf2d>@@@?$__crt_seh_guarded_call@X@@QEAAX$$QEAV<lambda_842d9ff0dc9ef11c61343bbaebe7f885>@@AEAV<lambda_c5860995281e5c4ce005b3de8f5874ee>@@$$QEAV<lambda_d90129c13df834fdcbf8d2b88dafcf2d>@@@Z@4HA 0000000180038c40 f   libucrtd:fflush.obj
 0001:00037c60       _fcloseall$fin$0           0000000180038c60 f   libucrtd:closeall.obj
 0001:00037c80       ?fin$0@?0???$?RV<lambda_53fc7fc888e23d815d7080162c0aeeb2>@@AEAV<lambda_4e7105787b7b0e0227fbf2b2d883fa65>@@V<lambda_8ddc48ad9d26c778cb15812d1d88fc8a>@@@?$__crt_seh_guarded_call@H@@QEAAH$$QEAV<lambda_53fc7fc888e23d815d7080162c0aeeb2>@@AEAV<lambda_4e7105787b7b0e0227fbf2b2d883fa65>@@$$QEAV<lambda_8ddc48ad9d26c778cb15812d1d88fc8a>@@@Z@4HA 0000000180038c80 f   libucrtd:close.obj
 0001:00037c80       ?fin$0@?0???$?RV<lambda_4e3dbe6921bc0b5a1a6bc6573fdc859e>@@AEAV<lambda_5533cddd4bda0037814beee657757329>@@V<lambda_47cffbaa968af5c721c38a4a6f8da44d>@@@?$__crt_seh_guarded_call@H@@QEAAH$$QEAV<lambda_4e3dbe6921bc0b5a1a6bc6573fdc859e>@@AEAV<lambda_5533cddd4bda0037814beee657757329>@@$$QEAV<lambda_47cffbaa968af5c721c38a4a6f8da44d>@@@Z@4HA 0000000180038c80 f   libucrtd:commit.obj
 0001:00037ca0       _write$fin$0               0000000180038ca0 f   libucrtd:write.obj
 0001:00037cc0       fclose$fin$0               0000000180038cc0 f   libucrtd:fclose.obj
 0001:00037cf0       common_control87$filt$0    0000000180038cf0 f   libucrtd:ieee.obj
 0001:00037d40       _ctrlfp$filt$0             0000000180038d40 f   libucrtd:fpctrl.obj
 0001:00037d90       _IsNonwritableInCurrentImage$filt$0 0000000180038d90 f   LIBCMTD:pesect.obj
 0002:00000290       ?pinit@@3P6AHXZEA          0000000180039290     libcpmtd:winapisupp.obj
 0002:00000870       GS_ExceptionPointers       0000000180039870     LIBCMTD:gs_report.obj
 0002:00000890       ?tokenTable@@3QBUStringLiteral@@B 0000000180039890     libvcruntimed:undname.obj
 0002:00000990       ?nameTable@@3QBUStringLiteral@@B 0000000180039990     libvcruntimed:undname.obj
 0002:00000ec0       ?rttiTable@@3QBUStringLiteral@@B 0000000180039ec0     libvcruntimed:undname.obj
 0002:00000f10       ?IndirectionName@@3QBUStringLiteral@@B 0000000180039f10     libvcruntimed:undname.obj
 0002:00000f70       ?PrefixName@@3QBUStringLiteral@@B 0000000180039f70     libvcruntimed:undname.obj
 0002:000016a0       ?ExceptionTemplate@?1??UnwindNestedFrames@__FrameHandler3@@SAXPEA_KPEAUEHExceptionRecord@@PEAU_CONTEXT@@0PEAXPEBU_s_FuncInfo@@HHPEBU_s_HandlerType@@PEAU_xDISPATCHER_CONTEXT@@E@Z@4U_EXCEPTION_RECORD@@B 000000018003a6a0     libvcruntimed:risctrnsctrl.obj
 0002:00001738       ?module_names@?A0x61a31dd3@@3QBQEB_WB 000000018003a738     libvcruntimed:winapi_downlevel.obj
 0002:000019b0       ?candidate_modules@?1??try_get_FlsAlloc@@YAP6AKP6AXPEAX@Z@ZXZ@4QBW4module_id@?A0x61a31dd3@@B 000000018003a9b0     libvcruntimed:winapi_downlevel.obj
 0002:000019b8       ?candidate_modules@?1??try_get_FlsFree@@YAP6AHK@ZXZ@4QBW4module_id@?A0x61a31dd3@@B 000000018003a9b8     libvcruntimed:winapi_downlevel.obj
 0002:000019c0       ?candidate_modules@?1??try_get_FlsGetValue@@YAP6APEAXK@ZXZ@4QBW4module_id@?A0x61a31dd3@@B 000000018003a9c0     libvcruntimed:winapi_downlevel.obj
 0002:000019c8       ?candidate_modules@?1??try_get_FlsSetValue@@YAP6AHKPEAX@ZXZ@4QBW4module_id@?A0x61a31dd3@@B 000000018003a9c8     libvcruntimed:winapi_downlevel.obj
 0002:000019d0       ?candidate_modules@?1??try_get_InitializeCriticalSectionEx@@YAP6AHPEAU_RTL_CRITICAL_SECTION@@KK@ZXZ@4QBW4module_id@?A0x61a31dd3@@B 000000018003a9d0     libvcruntimed:winapi_downlevel.obj
 0002:00001b20       ?report_type_messages@@3QBQEB_WB 000000018003ab20     libucrtd:dbgrpt.obj
 0002:00001b80       ?more_info_string@@3QEB_WEB 000000018003ab80     libucrtd:dbgrpt.obj
 0002:00001ebe       ?empty_string@?1???$common_message_window@D@@YAHHQEAXQEBD111@Z@4QBDB 000000018003aebe     libucrtd:dbgrpt.obj
 0002:000021bc       ?empty_string@?1???$common_message_window@_W@@YAHHQEAXQEB_W111@Z@4QB_WB 000000018003b1bc     libucrtd:dbgrpt.obj
 0002:000025c8       $cppxdata$??R<lambda_d121dba8a4adeaf3a9819e48611155df>@@QEBAHXZ 000000018003b5c8     libucrtd:onexit.obj
 0002:000025f0       __acrt_initializers        000000018003b5f0     libucrtd:initialization.obj
 0002:000026f0       ?block_use_names@@3QBQEBDB 000000018003b6f0     libucrtd:debug_heap.obj
 0002:00006a70       ?errtable@@3QBUerrentry@?A0x31fdb9ec@@B 000000018003fa70     libucrtd:errno.obj
 0002:00006c00       $cppxdata$??1?$__crt_win32_buffer@DU__crt_win32_buffer_no_resizing@@@@QEAA@XZ 000000018003fc00     libucrtd:getmodulefilenamea.obj
 0002:00006de8       $cppxdata$??1?$__crt_win32_buffer@DU__crt_win32_buffer_internal_dynamic_resizing@@@@QEAA@XZ 000000018003fde8     libucrtd:argv_wildcards.obj
 0002:00006de8       $cppxdata$??1?$__crt_win32_buffer@_WU__crt_win32_buffer_internal_dynamic_resizing@@@@QEAA@XZ 000000018003fde8     libucrtd:argv_wildcards.obj
 0002:00007208       ?_mb_locale_names@@3QBQEB_WB 0000000180040208     libucrtd:mbctype.obj
 0002:000072f0       ?module_names@?A0x391cf84c@@3QBQEB_WB 00000001800402f0     libucrtd:winapi_thunks.obj
 0002:00007874       ?candidate_modules@?1??try_get_AreFileApisANSI@@YAP6AHXZXZ@4QBW4module_id@?A0x391cf84c@@B 0000000180040874     libucrtd:winapi_thunks.obj
 0002:00007888       ?candidate_modules@?1??try_get_FlsAlloc@@YAP6AKP6AXPEAX@Z@ZXZ@4QBW4module_id@?A0x391cf84c@@B 0000000180040888     libucrtd:winapi_thunks.obj
 0002:00007890       ?candidate_modules@?1??try_get_FlsFree@@YAP6AHK@ZXZ@4QBW4module_id@?A0x391cf84c@@B 0000000180040890     libucrtd:winapi_thunks.obj
 0002:00007898       ?candidate_modules@?1??try_get_FlsGetValue@@YAP6APEAXK@ZXZ@4QBW4module_id@?A0x391cf84c@@B 0000000180040898     libucrtd:winapi_thunks.obj
 0002:000078a0       ?candidate_modules@?1??try_get_FlsSetValue@@YAP6AHKPEAX@ZXZ@4QBW4module_id@?A0x391cf84c@@B 00000001800408a0     libucrtd:winapi_thunks.obj
 0002:000078a8       ?candidate_modules@?1??try_get_GetActiveWindow@@YAP6APEAUHWND__@@XZXZ@4QBW4module_id@?A0x391cf84c@@B 00000001800408a8     libucrtd:winapi_thunks.obj
 0002:000078c0       ?candidate_modules@?1??try_get_GetLastActivePopup@@YAP6APEAUHWND__@@PEAU2@@ZXZ@4QBW4module_id@?A0x391cf84c@@B 00000001800408c0     libucrtd:winapi_thunks.obj
 0002:000078e0       ?candidate_modules@?1??try_get_GetProcessWindowStation@@YAP6APEAUHWINSTA__@@XZXZ@4QBW4module_id@?A0x391cf84c@@B 00000001800408e0     libucrtd:winapi_thunks.obj
 0002:00007900       ?candidate_modules@?1??try_get_GetUserObjectInformationW@@YAP6AHPEAXH0KPEAK@ZXZ@4QBW4module_id@?A0x391cf84c@@B 0000000180040900     libucrtd:winapi_thunks.obj
 0002:00007928       ?candidate_modules@?1??try_get_InitializeCriticalSectionEx@@YAP6AHPEAU_RTL_CRITICAL_SECTION@@KK@ZXZ@4QBW4module_id@?A0x391cf84c@@B 0000000180040928     libucrtd:winapi_thunks.obj
 0002:00007930       ?candidate_modules@?1??try_get_LCMapStringEx@@YAP6AHPEB_WK0HPEA_WHPEAU_nlsversioninfo@@PEAX_J@ZXZ@4QBW4module_id@?A0x391cf84c@@B 0000000180040930     libucrtd:winapi_thunks.obj
 0002:00007938       ?candidate_modules@?1??try_get_LocaleNameToLCID@@YAP6AKPEB_WK@ZXZ@4QBW4module_id@?A0x391cf84c@@B 0000000180040938     libucrtd:winapi_thunks.obj
 0002:00007958       ?candidate_modules@?1??try_get_MessageBoxA@@YAP6AHPEAUHWND__@@PEBD1I@ZXZ@4QBW4module_id@?A0x391cf84c@@B 0000000180040958     libucrtd:winapi_thunks.obj
 0002:00007970       ?candidate_modules@?1??try_get_MessageBoxW@@YAP6AHPEAUHWND__@@PEB_W1I@ZXZ@4QBW4module_id@?A0x391cf84c@@B 0000000180040970     libucrtd:winapi_thunks.obj
 0002:00007984       ?candidate_modules@?1??try_get_AppPolicyGetProcessTerminationMethod@@YAP6AJPEAXPEAW4AppPolicyProcessTerminationMethod@@@ZXZ@4QBW4module_id@?A0x391cf84c@@B 0000000180040984     libucrtd:winapi_thunks.obj
 0002:000079b0       ?candidate_modules@?1??try_get_AppPolicyGetShowDeveloperDiagnostic@@YAP6AJPEAXPEAW4AppPolicyShowDeveloperDiagnostic@@@ZXZ@4QBW4module_id@?A0x391cf84c@@B 00000001800409b0     libucrtd:winapi_thunks.obj
 0002:000079dc       ?candidate_modules@?1??try_get_AppPolicyGetWindowingModel@@YAP6AJPEAXPEAW4AppPolicyWindowingModel@@@ZXZ@4QBW4module_id@?A0x391cf84c@@B 00000001800409dc     libucrtd:winapi_thunks.obj
 0002:00008a30       $cppxdata$?fp_format_a@@YAHQEBNPEAD_KQEAD2H_NIQEAU__crt_locale_pointers@@W4__acrt_rounding_mode@@@Z 0000000180041a30     libucrtd:cvt.obj
 0002:00008a60       ?strings@?1??fp_format_nan_or_infinity@@YAHW4__acrt_fp_class@@_NPEAD_K1@Z@4QAY03QEBDA 0000000180041a60     libucrtd:cvt.obj
 0002:00009710       $cppxdata$?_wcstombs_l_helper@@YA_KPEADPEB_W_KPEAU__crt_locale_pointers@@@Z 0000000180042710     libucrtd:wcstombs.obj
 0002:00009990       $cppxdata$?shortsort@@YAXPEAD0_KP6AHPEBX2@Z@Z 0000000180042990     libucrtd:qsort.obj
 0002:00009cd0       ?LcidToLocaleNameTable@?A0x881e4c05@@3QBULcidToLocaleName@1@B 0000000180042cd0     libucrtd:lcidtoname_downlevel.obj
 0002:0000b730       ?LocaleNameToIndexTable@?A0x881e4c05@@3QBULocaleNameIndex@1@B 0000000180044730     libucrtd:lcidtoname_downlevel.obj
 0002:0000f030       __real_ninf                0000000180048030     libucrtd:log10.obj
 0002:0000f040       __real_inf                 0000000180048040     libucrtd:log10.obj
 0002:0000f050       __real_neg_qnan            0000000180048050     libucrtd:log10.obj
 0002:0000f060       __real_qnanbit             0000000180048060     libucrtd:log10.obj
 0002:0000f070       __int_1023                 0000000180048070     libucrtd:log10.obj
 0002:0000f080       __mask_001                 0000000180048080     libucrtd:log10.obj
 0002:0000f090       __mask_mant                0000000180048090     libucrtd:log10.obj
 0002:0000f0a0       __mask_mant_top8           00000001800480a0     libucrtd:log10.obj
 0002:0000f0b0       __mask_mant9               00000001800480b0     libucrtd:log10.obj
 0002:0000f0c0       __real_log10_e             00000001800480c0     libucrtd:log10.obj
 0002:0000f0d0       __real_log10_e_lead        00000001800480d0     libucrtd:log10.obj
 0002:0000f0e0       __real_log10_e_tail        00000001800480e0     libucrtd:log10.obj
 0002:0000f0f0       __real_log10_2_lead        00000001800480f0     libucrtd:log10.obj
 0002:0000f100       __real_log10_2_tail        0000000180048100     libucrtd:log10.obj
 0002:0000f110       __real_two                 0000000180048110     libucrtd:log10.obj
 0002:0000f120       __real_one                 0000000180048120     libucrtd:log10.obj
 0002:0000f130       __real_half                0000000180048130     libucrtd:log10.obj
 0002:0000f140       __mask_100                 0000000180048140     libucrtd:log10.obj
 0002:0000f150       __real_1_over_512          0000000180048150     libucrtd:log10.obj
 0002:0000f160       __real_1_over_2            0000000180048160     libucrtd:log10.obj
 0002:0000f170       __real_1_over_3            0000000180048170     libucrtd:log10.obj
 0002:0000f180       __real_1_over_4            0000000180048180     libucrtd:log10.obj
 0002:0000f190       __real_1_over_5            0000000180048190     libucrtd:log10.obj
 0002:0000f1a0       __real_1_over_6            00000001800481a0     libucrtd:log10.obj
 0002:0000f1b0       __real_neg_1023            00000001800481b0     libucrtd:log10.obj
 0002:0000f1c0       __mask_2045                00000001800481c0     libucrtd:log10.obj
 0002:0000f1d0       __real_threshold           00000001800481d0     libucrtd:log10.obj
 0002:0000f1e0       __real_near_one_lt         00000001800481e0     libucrtd:log10.obj
 0002:0000f1f0       __real_near_one_gt         00000001800481f0     libucrtd:log10.obj
 0002:0000f200       __real_min_norm            0000000180048200     libucrtd:log10.obj
 0002:0000f210       __real_notsign             0000000180048210     libucrtd:log10.obj
 0002:0000f220       __real_ca1                 0000000180048220     libucrtd:log10.obj
 0002:0000f230       __real_ca2                 0000000180048230     libucrtd:log10.obj
 0002:0000f240       __real_ca3                 0000000180048240     libucrtd:log10.obj
 0002:0000f250       __real_ca4                 0000000180048250     libucrtd:log10.obj
 0002:0000f260       __mask_lower               0000000180048260     libucrtd:log10.obj
 0002:0000f270       __flag_x_zero              0000000180048270     libucrtd:log10.obj
 0002:0000f274       __flag_x_neg               0000000180048274     libucrtd:log10.obj
 0002:0000f278       __flag_x_nan               0000000180048278     libucrtd:log10.obj
 0002:00010df0       __real@433fffffffffffff    0000000180049df0     libucrtd:fpsr.obj
 0002:00010df8       __real@c33fffffffffffff    0000000180049df8     libucrtd:fpsr.obj
 0002:00011590       $unwind$UpdateAndRender    000000018004a590     hy3d_engine.obj
 0002:0001159c       $unwind$?initialize_multibyte@@YAHXZ 000000018004a59c     libucrtd:multibyte_initializer.obj
 0002:0001159c       $unwind$initialize_pointers 000000018004a59c     libucrtd:initialization.obj
 0002:0001159c       $unwind$__acrt_initialize_locks 000000018004a59c     libucrtd:locks.obj
 0002:0001159c       $unwind$?try_get_ptd_head@@YAPEAU__acrt_ptd@@XZ 000000018004a59c     libucrtd:per_thread_data.obj
 0002:0001159c       $unwind$__acrt_freeptd     000000018004a59c     libucrtd:per_thread_data.obj
 0002:0001159c       $unwind$__acrt_getptd      000000018004a59c     libucrtd:per_thread_data.obj
 0002:0001159c       $unwind$__acrt_getptd_head 000000018004a59c     libucrtd:per_thread_data.obj
 0002:0001159c       $unwind$?should_write_error_to_console@@YA_NXZ 000000018004a59c     libucrtd:report_runtime_error.obj
 0002:0001159c       $unwind$__acrt_AreFileApisANSI 000000018004a59c     libucrtd:winapi_thunks.obj
 0002:0001159c       $unwind$__acrt_can_show_message_box 000000018004a59c     libucrtd:winapi_thunks.obj
 0002:0001159c       $unwind$__pctype_func      000000018004a59c     libucrtd:ctype.obj
 0002:0001159c       $unwind$__acrt_initialize_multibyte 000000018004a59c     libucrtd:mbctype.obj
 0002:0001159c       $unwind$__acrt_update_thread_multibyte_data 000000018004a59c     libucrtd:mbctype.obj
 0002:0001159c       $unwind$__doserrno         000000018004a59c     libucrtd:errno.obj
 0002:0001159c       $unwind$_errno             000000018004a59c     libucrtd:errno.obj
 0002:0001159c       $unwind$_invalid_parameter_noinfo 000000018004a59c     libucrtd:invalid_parameter.obj
 0002:0001159c       $unwind$abort              000000018004a59c     libucrtd:abort.obj
 0002:0001159c       $unwind$?is_managed_app@@YA_NXZ 000000018004a59c     libucrtd:exit.obj
 0002:0001159c       $unwind$?should_call_terminate_process@@YA_NXZ 000000018004a59c     libucrtd:exit.obj
 0002:0001159c       $unwind$__acrt_uninitialize_stdio 000000018004a59c     libucrtd:_file.obj
 0002:0001159c       $unwind$_clrfp             000000018004a59c     libucrtd:fpctrl.obj
 0002:0001159c       $unwind$_statfp            000000018004a59c     libucrtd:fpctrl.obj
 0002:0001159c       $unwind$_clearfp           000000018004a59c     libucrtd:ieee.obj
 0002:0001159c       $unwind$?get_machine_sse_control@@YA?AW4__acrt_fenv_machine_sse_control@@XZ 000000018004a59c     libucrtd:_fenvutils.obj
 0002:0001159c       $unwind$?get_machine_sse_status@@YA?AW4__acrt_fenv_machine_sse_status@@XZ 000000018004a59c     libucrtd:_fenvutils.obj
 0002:0001159c       $unwind$__acrt_fenv_get_control 000000018004a59c     libucrtd:_fenvutils.obj
 0002:0001159c       $unwind$__acrt_fenv_get_status 000000018004a59c     libucrtd:_fenvutils.obj
 0002:0001159c       $unwind$__acrt_has_user_matherr 000000018004a59c     libucrtd:matherr.obj
 0002:0001159c       $unwind$__scrt_initialize_default_local_stdio_options 000000018004a59c     LIBCMTD:default_local_stdio_options.obj
 0002:0001159c       $unwind$__security_init_cookie 000000018004a59c     LIBCMTD:gs_support.obj
 0002:0001159c       $unwind$_guard_icall_checks_enforced 000000018004a59c     LIBCMTD:guard_support.obj
 0002:0001159c       $unwind$?initialize_pointers@@YAHXZ 000000018004a59c     libcpmtd:winapisupp.obj
 0002:0001159c       $unwind$_Query_perf_counter 000000018004a59c     libcpmtd:xtime.obj
 0002:0001159c       $unwind$_Query_perf_frequency 000000018004a59c     libcpmtd:xtime.obj
 0002:0001159c       $unwind$__vcrt_initialize_locks 000000018004a59c     libvcruntimed:locks.obj
 0002:0001159c       $unwind$__vcrt_uninitialize_locks 000000018004a59c     libvcruntimed:locks.obj
 0002:0001159c       $unwind$__vcrt_getptd      000000018004a59c     libvcruntimed:per_thread_data.obj
 0002:000115a4       $unwind$??$get_cached_win_policy@Udeveloper_information_policy_properties@?1??__acrt_get_developer_information_policy@@YA?AW4developer_information_policy@@XZ@@@YA?AW4developer_information_policy@@W4AppPolicyShowDeveloperDiagnostic@@@Z 000000018004a5a4     libucrtd:win_policies.obj
 0002:000115a4       $unwind$??$get_cached_win_policy@Uwindowing_model_policy_properties@?1??__acrt_get_windowing_model_policy@@YA?AW4windowing_model_policy@@XZ@@@YA?AW4windowing_model_policy@@W4AppPolicyWindowingModel@@@Z 000000018004a5a4     libucrtd:win_policies.obj
 0002:000115a4       $unwind$__acrt_uninitialize_winapi_thunks 000000018004a5a4     libucrtd:winapi_thunks.obj
 0002:000115a4       $unwind$_isatty            000000018004a5a4     libucrtd:isatty.obj
 0002:000115a4       $unwind$_get_osfhandle     000000018004a5a4     libucrtd:osfinfo.obj
 0002:000115a4       $unwind$?write_requires_double_translation_nolock@@YA_NH@Z 000000018004a5a4     libucrtd:write.obj
 0002:000115a4       $unwind$_set_error_mode    000000018004a5a4     libucrtd:set_error_mode.obj
 0002:000115a4       $unwind$?try_cor_exit_process@@YAXI@Z 000000018004a5a4     libucrtd:exit.obj
 0002:000115a4       $unwind$?_Load_barrier@std@@YAXW4memory_order@1@@Z 000000018004a5a4     libcpmtd:xtime.obj
 0002:000115a4       $unwind$__vcrt_FlsFree     000000018004a5a4     libvcruntimed:winapi_downlevel.obj
 0002:000115a4       $unwind$__vcrt_FlsGetValue 000000018004a5a4     libvcruntimed:winapi_downlevel.obj
 0002:000115ac       $unwind$?is_space@__crt_strtox@@YA_N_WPEAU__crt_locale_pointers@@@Z 000000018004a5ac     libucrtd:atox.obj
 0002:000115ac       $unwind$??0big_integer@__crt_strtox@@QEAA@AEBU01@@Z 000000018004a5ac     libucrtd:cfout.obj
 0002:000115ac       $unwind$??4big_integer@__crt_strtox@@QEAAAEAU01@AEBU01@@Z 000000018004a5ac     libucrtd:cfout.obj
 0002:000115ac       $unwind$??9__crt_strtox@@YA_NAEBUbig_integer@0@0@Z 000000018004a5ac     libucrtd:cfout.obj
 0002:000115ac       $unwind$iswctype           000000018004a5ac     libucrtd:iswctype.obj
 0002:000115ac       $unwind$_realloc_base      000000018004a5ac     libucrtd:realloc_base.obj
 0002:000115ac       $unwind$?allocate@?$__crt_win32_buffer@DU__crt_win32_buffer_no_resizing@@@@QEAAH_K@Z 000000018004a5ac     libucrtd:getmodulefilenamea.obj
 0002:000115ac       $unwind$??$uninitialize@V<lambda_af27fe6ede5d83bbdbd622796c194e9c>@@@?$dual_state_global@PEAU__crt_multibyte_data@@@__crt_state_management@@QEAAX$$QEAV<lambda_af27fe6ede5d83bbdbd622796c194e9c>@@@Z 000000018004a5ac     libucrtd:initialization.obj
 0002:000115ac       $unwind$__acrt_execute_uninitializers 000000018004a5ac     libucrtd:shared_initialization.obj
 0002:000115ac       $unwind$?try_get_first_available_module@@YAPEAUHINSTANCE__@@QEBW4module_id@?A0x391cf84c@@0@Z 000000018004a5ac     libucrtd:winapi_thunks.obj
 0002:000115ac       $unwind$?free_crt_array_internal@@YAXQEAPEBX_K@Z 000000018004a5ac     libucrtd:inittime.obj
 0002:000115ac       $unwind$_updatetlocinfoEx_nolock 000000018004a5ac     libucrtd:locale_refcounting.obj
 0002:000115ac       $unwind$??$uninitialize@V<lambda_363eea9039da1e8169e2d060c7fe5cbc>@@@?$dual_state_global@PEAU__crt_locale_data@@@__crt_state_management@@QEAAX$$QEAV<lambda_363eea9039da1e8169e2d060c7fe5cbc>@@@Z 000000018004a5ac     libucrtd:wsetlocale.obj
 0002:000115ac       $unwind$??$initialize_from_array@$$BY10BAA@E@?$dual_state_global@PEAE@__crt_state_management@@QEAAXAEAY10BAA@E@Z 000000018004a5ac     libucrtd:mbctype.obj
 0002:000115ac       $unwind$??$initialize_from_array@$$BY10BAB@E@?$dual_state_global@PEAE@__crt_state_management@@QEAAXAEAY10BAB@E@Z 000000018004a5ac     libucrtd:mbctype.obj
 0002:000115ac       $unwind$??$initialize_from_array@$$BY00Q6AXPEB_W00I_K@Z@?$dual_state_global@P6AXPEB_W00I_K@Z@__crt_state_management@@QEAAXAEAY00Q6AXPEB_W00I_K@Z@Z 000000018004a5ac     libucrtd:invalid_parameter.obj
 0002:000115ac       $unwind$?allocate@?$__crt_win32_buffer@DU__crt_win32_buffer_internal_dynamic_resizing@@@@QEAAH_K@Z 000000018004a5ac     libucrtd:argv_wildcards.obj
 0002:000115ac       $unwind$?allocate@?$__crt_win32_buffer@_WU__crt_win32_buffer_internal_dynamic_resizing@@@@QEAAH_K@Z 000000018004a5ac     libucrtd:argv_wildcards.obj
 0002:000115ac       $unwind$?append@?$argument_list@D@?A0x5f5c8891@@QEAAHQEAD@Z 000000018004a5ac     libucrtd:argv_wildcards.obj
 0002:000115ac       $unwind$?get_file_name@@YAPEADQEAV?$__crt_win32_buffer@DU__crt_win32_buffer_internal_dynamic_resizing@@@@QEA_W@Z 000000018004a5ac     libucrtd:argv_wildcards.obj
 0002:000115ac       $unwind$?get_wide@@YAPEA_WQEAV?$__crt_win32_buffer@_WU__crt_win32_buffer_internal_dynamic_resizing@@@@QEAD@Z 000000018004a5ac     libucrtd:argv_wildcards.obj
 0002:000115ac       $unwind$_initterm          000000018004a5ac     libucrtd:initterm.obj
 0002:000115ac       $unwind$?common_flush_all_should_try_to_flush_stream@@YA_NV__crt_stdio_stream@@QEAH@Z 000000018004a5ac     libucrtd:fflush.obj
 0002:000115ac       $unwind$??$extract_argument_from_va_list@U_CRT_DOUBLE@@U1@@?$standard_base@DV?$string_output_adapter@D@__crt_stdio_output@@@__crt_stdio_output@@IEAA_NAEAU_CRT_DOUBLE@@@Z 000000018004a5ac     libucrtd:output.obj
 0002:000115ac       $unwind$??$extract_argument_from_va_list@U_CRT_DOUBLE@@U1@@?$standard_base@_WV?$string_output_adapter@_W@__crt_stdio_output@@@__crt_stdio_output@@IEAA_NAEAU_CRT_DOUBLE@@@Z 000000018004a5ac     libucrtd:output.obj
 0002:000115ac       $unwind$?force_decimal_point@__crt_stdio_output@@YAXPEADQEAU__crt_locale_pointers@@@Z 000000018004a5ac     libucrtd:output.obj
 0002:000115ac       $unwind$?type_case_c_tchar@?$output_processor@_WV?$string_output_adapter@_W@__crt_stdio_output@@V?$format_validation_base@_WV?$string_output_adapter@_W@__crt_stdio_output@@@2@@__crt_stdio_output@@AEAA_N_W@Z 000000018004a5ac     libucrtd:output.obj
 0002:000115ac       $unwind$??$common_strnlen_c@$00G@@YA_KQEBG_K@Z 000000018004a5ac     libucrtd:strnlen.obj
 0002:000115ac       $unwind$??$common_strnlen_c@$0A@E@@YA_KQEBE_K@Z 000000018004a5ac     libucrtd:strnlen.obj
 0002:000115ac       $unwind$??$common_strnlen_c@$0A@G@@YA_KQEBG_K@Z 000000018004a5ac     libucrtd:strnlen.obj
 0002:000115ac       $unwind$?find_pe_section@@YAPEAU_IMAGE_SECTION_HEADER@@QEAE_K@Z 000000018004a5ac     LIBCMTD:utility.obj
 0002:000115ac       $unwind$?store@?$_Atomic_storage@_J$07@std@@QEAAX_J@Z 000000018004a5ac     libcpmtd:xtime.obj
 0002:000115ac       $unwind$?_CallMemberFunction0@@YAXQEAX0@Z 000000018004a5ac     libvcruntimed:ehhelpers.obj
 0002:000115ac       $unwind$?StateFromControlPc@__FrameHandler3@@SAHPEBU_s_FuncInfo@@PEAU_xDISPATCHER_CONTEXT@@@Z 000000018004a5ac     libvcruntimed:ehstate.obj
 0002:000115ac       $unwind$??8type_info@@QEBA_NAEBV0@@Z 000000018004a5ac     libvcruntimed:frame.obj
 0002:000115ac       $unwind$??9iterator@HandlerMap@__FrameHandler3@@QEBA_NAEBV012@@Z 000000018004a5ac     libvcruntimed:frame.obj
 0002:000115ac       $unwind$?ExecutionInCatch@__FrameHandler3@@SA_NPEAU_xDISPATCHER_CONTEXT@@PEBU_s_FuncInfo@@@Z 000000018004a5ac     libvcruntimed:risctrnsctrl.obj
 0002:000115ac       $unwind$_CreateFrameInfo   000000018004a5ac     libvcruntimed:risctrnsctrl.obj
 0002:000115ac       $unwind$?try_get_first_available_module@@YAPEAUHINSTANCE__@@QEBW4module_id@?A0x61a31dd3@@0@Z 000000018004a5ac     libvcruntimed:winapi_downlevel.obj
 0002:000115b4       $unwind$__ascii_wcsnicmp   000000018004a5b4     libucrtd:wcsnicmp.obj
 0002:000115b4       $unwind$__GSHandlerCheckCommon 000000018004a5b4     LIBCMTD:gshandler.obj
 0002:000115b4       $unwind$?store@?$_Atomic_storage@_J$07@std@@QEAAX_JW4memory_order@2@@Z 000000018004a5b4     libcpmtd:xtime.obj
 0002:000115bc       $unwind$?is_space@__crt_strtox@@YA_NDQEAU__crt_locale_pointers@@@Z 000000018004a5bc     libucrtd:atox.obj
 0002:000115bc       $unwind$__acrt_FlsSetValue 000000018004a5bc     libucrtd:winapi_thunks.obj
 0002:000115bc       $unwind$__acrt_LocaleNameToLCID 000000018004a5bc     libucrtd:winapi_thunks.obj
 0002:000115bc       $unwind$?has_any_of@__crt_stdio_stream@@QEBA_NJ@Z 000000018004a5bc     libucrtd:_sftbuf.obj
 0002:000115bc       $unwind$?has_all_of@__crt_stdio_stream@@QEBA_NJ@Z 000000018004a5bc     libucrtd:fflush.obj
 0002:000115bc       $unwind$_exception_enabled 000000018004a5bc     libucrtd:libm_error.obj
 0002:000115bc       $unwind$?load@?$_Atomic_storage@_J$07@std@@QEBA_JW4memory_order@2@@Z 000000018004a5bc     libcpmtd:xtime.obj
 0002:000115bc       $unwind$?_FilterSetCurrentException@@YAKPEAU_EXCEPTION_POINTERS@@E@Z 000000018004a5bc     libvcruntimed:ehhelpers.obj
 0002:000115bc       $unwind$?CatchTryBlock@__FrameHandler3@@SAPEBU_s_TryBlockMapEntry@@PEBU_s_FuncInfo@@H@Z 000000018004a5bc     libvcruntimed:risctrnsctrl.obj
 0002:000115c4       $unwind$?dllmain_crt_process_attach@@YAHQEAUHINSTANCE__@@QEAX@Z 000000018004a5c4     LIBCMTD:dll_dllmain.obj
 0002:000115e4       $unwind$?dtor$0@?0??fp_format_a@@YAHQEBNPEAD_KQEAD2H_NIQEAU__crt_locale_pointers@@W4__acrt_rounding_mode@@@Z@4HA 000000018004a5e4     libucrtd:cvt.obj
 0002:000115e4       $unwind$?dtor$0@?0??_wcstombs_l_helper@@YA_KPEADPEB_W_KPEAU__crt_locale_pointers@@@Z@4HA 000000018004a5e4     libucrtd:wcstombs.obj
 0002:000115e4       $unwind$?filt$0@?0??is_bad_read_pointer@@YA_NQEBX_K@Z@4HA 000000018004a5e4     libucrtd:debug_heap.obj
 0002:000115e4       $unwind$_free_dbg$fin$0    000000018004a5e4     libucrtd:debug_heap.obj
 0002:000115e4       $unwind$_query_new_handler$fin$0 000000018004a5e4     libucrtd:new_handler.obj
 0002:000115e4       $unwind$?fin$0@?0???$?RV<lambda_0ae27a3a962d80f24befdcbee591983d>@@AEAV<lambda_8d0ee55de4b1038c4002e0adecdf1839>@@V<lambda_dc504788e8f1664fe9b84e20bfb512f2>@@@?$__crt_seh_guarded_call@X@@QEAAX$$QEAV<lambda_0ae27a3a962d80f24befdcbee591983d>@@AEAV<lambda_8d0ee55de4b1038c4002e0adecdf1839>@@$$QEAV<lambda_dc504788e8f1664fe9b84e20bfb512f2>@@@Z@4HA 000000018004a5e4     libucrtd:per_thread_data.obj
 0002:000115e4       $unwind$?fin$0@?0???$?RV<lambda_2d41944a1d46af3157314b8a01080d33>@@AEAV<lambda_8f455de75cd7d7f24b4096f044d8b9e6>@@V<lambda_aa500f224e6afead328df44964fe2772>@@@?$__crt_seh_guarded_call@X@@QEAAX$$QEAV<lambda_2d41944a1d46af3157314b8a01080d33>@@AEAV<lambda_8f455de75cd7d7f24b4096f044d8b9e6>@@$$QEAV<lambda_aa500f224e6afead328df44964fe2772>@@@Z@4HA 000000018004a5e4     libucrtd:per_thread_data.obj
 0002:000115e4       $unwind$?fin$0@?0???$?RV<lambda_74a0ef281e44d15e1136f792f539efb3>@@AEAV<lambda_e157831efee4ea0afb0a2ace5dd5fd0d>@@V<lambda_04ddeca75b7c13fd67716e8dfcef87ee>@@@?$__crt_seh_guarded_call@X@@QEAAX$$QEAV<lambda_74a0ef281e44d15e1136f792f539efb3>@@AEAV<lambda_e157831efee4ea0afb0a2ace5dd5fd0d>@@$$QEAV<lambda_04ddeca75b7c13fd67716e8dfcef87ee>@@@Z@4HA 000000018004a5e4     libucrtd:per_thread_data.obj
 0002:000115e4       $unwind$?fin$0@?0???$?RV<lambda_aa87e3671a710a21b5dc78c0bdf72e11>@@AEAV<lambda_92619d2358a28f41a33ba319515a20b9>@@V<lambda_6992ecaafeb10aed2b74cb1fae11a551>@@@?$__crt_seh_guarded_call@X@@QEAAX$$QEAV<lambda_aa87e3671a710a21b5dc78c0bdf72e11>@@AEAV<lambda_92619d2358a28f41a33ba319515a20b9>@@$$QEAV<lambda_6992ecaafeb10aed2b74cb1fae11a551>@@@Z@4HA 000000018004a5e4     libucrtd:per_thread_data.obj
 0002:000115e4       $unwind$__acrt_update_thread_locale_data$fin$0 000000018004a5e4     libucrtd:locale_refcounting.obj
 0002:000115e4       $unwind$?fin$0@?0???$?RV<lambda_410d79af7f07d98d83a3f525b3859a53>@@AEAV<lambda_3e16ef9562a7dcce91392c22ab16ea36>@@V<lambda_38119f0e861e05405d8a144b9b982f0a>@@@?$__crt_seh_guarded_call@X@@QEAAX$$QEAV<lambda_410d79af7f07d98d83a3f525b3859a53>@@AEAV<lambda_3e16ef9562a7dcce91392c22ab16ea36>@@$$QEAV<lambda_38119f0e861e05405d8a144b9b982f0a>@@@Z@4HA 000000018004a5e4     libucrtd:wsetlocale.obj
 0002:000115e4       $unwind$?fin$0@?0???$?RV<lambda_53fc7fc888e23d815d7080162c0aeeb2>@@AEAV<lambda_4e7105787b7b0e0227fbf2b2d883fa65>@@V<lambda_8ddc48ad9d26c778cb15812d1d88fc8a>@@@?$__crt_seh_guarded_call@H@@QEAAH$$QEAV<lambda_53fc7fc888e23d815d7080162c0aeeb2>@@AEAV<lambda_4e7105787b7b0e0227fbf2b2d883fa65>@@$$QEAV<lambda_8ddc48ad9d26c778cb15812d1d88fc8a>@@@Z@4HA 000000018004a5e4     libucrtd:close.obj
 0002:000115e4       $unwind$?fin$0@?0???$?RV<lambda_4e3dbe6921bc0b5a1a6bc6573fdc859e>@@AEAV<lambda_5533cddd4bda0037814beee657757329>@@V<lambda_47cffbaa968af5c721c38a4a6f8da44d>@@@?$__crt_seh_guarded_call@H@@QEAAH$$QEAV<lambda_4e3dbe6921bc0b5a1a6bc6573fdc859e>@@AEAV<lambda_5533cddd4bda0037814beee657757329>@@$$QEAV<lambda_47cffbaa968af5c721c38a4a6f8da44d>@@@Z@4HA 000000018004a5e4     libucrtd:commit.obj
 0002:000115e4       $unwind$__acrt_initialize_lowio$fin$0 000000018004a5e4     libucrtd:ioinit.obj
 0002:000115e4       $unwind$?fin$0@?0???$?RV<lambda_efa02eb69bf647d2f7ff0dd6f1103f72>@@AEAV<lambda_bd5a608237428601b7e45fbdc72b1ae8>@@V<lambda_728235dc0fc2b1f82d1fa5b3e7102d8f>@@@?$__crt_seh_guarded_call@X@@QEAAX$$QEAV<lambda_efa02eb69bf647d2f7ff0dd6f1103f72>@@AEAV<lambda_bd5a608237428601b7e45fbdc72b1ae8>@@$$QEAV<lambda_728235dc0fc2b1f82d1fa5b3e7102d8f>@@@Z@4HA 000000018004a5e4     libucrtd:mbctype.obj
 0002:000115e4       $unwind$?fin$0@?0??update_thread_multibyte_data_internal@@YAPEAU__crt_multibyte_data@@QEAU__acrt_ptd@@QEAPEAU1@@Z@4HA 000000018004a5e4     libucrtd:mbctype.obj
 0002:000115e4       $unwind$?fin$0@?0???$?RV<lambda_450d765d439847d4c735a33c368b5fc0>@@AEAV<lambda_44731a7d0e6d81c3e6aa82d741081786>@@V<lambda_601a2a7da3b7a96e9554ac7215c4b07c>@@@?$__crt_seh_guarded_call@P6AXH@Z@@QEAAP6AXH@Z$$QEAV<lambda_450d765d439847d4c735a33c368b5fc0>@@AEAV<lambda_44731a7d0e6d81c3e6aa82d741081786>@@$$QEAV<lambda_601a2a7da3b7a96e9554ac7215c4b07c>@@@Z@4HA 000000018004a5e4     libucrtd:signal.obj
 0002:000115e4       $unwind$terminate$filt$0   000000018004a5e4     libucrtd:terminate.obj
 0002:000115e4       $unwind$?filt$0@?0???R<lambda_6e4b09c48022b2350581041d5f6b0c4c>@@QEBA@XZ@4HA 000000018004a5e4     libucrtd:exit.obj
 0002:000115e4       $unwind$?fin$0@?0???$?RV<lambda_d80eeec6fff315bfe5c115232f3240e3>@@AEAV<lambda_6e4b09c48022b2350581041d5f6b0c4c>@@V<lambda_2358e3775559c9db80273638284d5e45>@@@?$__crt_seh_guarded_call@X@@QEAAX$$QEAV<lambda_d80eeec6fff315bfe5c115232f3240e3>@@AEAV<lambda_6e4b09c48022b2350581041d5f6b0c4c>@@$$QEAV<lambda_2358e3775559c9db80273638284d5e45>@@@Z@4HA 000000018004a5e4     libucrtd:exit.obj
 0002:000115e4       $unwind$?dtor$0@?0???R<lambda_d121dba8a4adeaf3a9819e48611155df>@@QEBAHXZ@4HA 000000018004a5e4     libucrtd:onexit.obj
 0002:000115e4       $unwind$?fin$0@?0???$?RV<lambda_6a47f4c8fd0152770a780fc1d70204eb>@@AEAV<lambda_d121dba8a4adeaf3a9819e48611155df>@@V<lambda_6aaa2265f5b6a89667e7d7630012e97a>@@@?$__crt_seh_guarded_call@H@@QEAAH$$QEAV<lambda_6a47f4c8fd0152770a780fc1d70204eb>@@AEAV<lambda_d121dba8a4adeaf3a9819e48611155df>@@$$QEAV<lambda_6aaa2265f5b6a89667e7d7630012e97a>@@@Z@4HA 000000018004a5e4     libucrtd:onexit.obj
 0002:000115e4       $unwind$_fcloseall$fin$0   000000018004a5e4     libucrtd:closeall.obj
 0002:000115e4       $unwind$?fin$0@?0???$?RV<lambda_842d9ff0dc9ef11c61343bbaebe7f885>@@AEAV<lambda_c5860995281e5c4ce005b3de8f5874ee>@@V<lambda_d90129c13df834fdcbf8d2b88dafcf2d>@@@?$__crt_seh_guarded_call@X@@QEAAX$$QEAV<lambda_842d9ff0dc9ef11c61343bbaebe7f885>@@AEAV<lambda_c5860995281e5c4ce005b3de8f5874ee>@@$$QEAV<lambda_d90129c13df834fdcbf8d2b88dafcf2d>@@@Z@4HA 000000018004a5e4     libucrtd:fflush.obj
 0002:000115e4       $unwind$?fin$0@?0???$?RV<lambda_886d6c58226a84441f68b9f2b8217b83>@@AEAV<lambda_ab61a845afdef5b7c387490eaf3616ee>@@V<lambda_f7f22ab5edc0698d5f6905b0d3f44752>@@@?$__crt_seh_guarded_call@X@@QEAAX$$QEAV<lambda_886d6c58226a84441f68b9f2b8217b83>@@AEAV<lambda_ab61a845afdef5b7c387490eaf3616ee>@@$$QEAV<lambda_f7f22ab5edc0698d5f6905b0d3f44752>@@@Z@4HA 000000018004a5e4     libucrtd:fflush.obj
 0002:000115e4       $unwind$?dtor$0@?0??shortsort@@YAXPEAD0_KP6AHPEBX2@Z@Z@4HA 000000018004a5e4     libucrtd:qsort.obj
 0002:000115e4       $unwind$_ctrlfp$filt$0     000000018004a5e4     libucrtd:fpctrl.obj
 0002:000115e4       $unwind$?fin$0@?0??dllmain_crt_process_attach@@YAHQEAUHINSTANCE__@@QEAX@Z@4HA 000000018004a5e4     LIBCMTD:dll_dllmain.obj
 0002:000115e4       $unwind$?fin$0@?0??dllmain_crt_process_detach@@YAH_N@Z@4HA 000000018004a5e4     LIBCMTD:dll_dllmain.obj
 0002:000115e4       $unwind$?fin$1@?0??dllmain_crt_process_detach@@YAH_N@Z@4HA 000000018004a5e4     LIBCMTD:dll_dllmain.obj
 0002:000115e4       $unwind$_IsNonwritableInCurrentImage$filt$0 000000018004a5e4     LIBCMTD:pesect.obj
 0002:000115e4       $unwind$__scrt_is_nonwritable_in_current_image$filt$0 000000018004a5e4     LIBCMTD:utility.obj
 0002:000115e4       $unwind$__DestructExceptionObject$filt$0 000000018004a5e4     libvcruntimed:ehhelpers.obj
 0002:000115e4       $unwind$?filt$0@?0???$BuildCatchObjectHelperInternal@V__FrameHandler3@@@@YAHPEAUEHExceptionRecord@@PEAXPEBU_s_HandlerType@@PEBU_s_CatchableType@@@Z@4HA 000000018004a5e4     libvcruntimed:frame.obj
 0002:000115e4       $unwind$?filt$0@?0???$BuildCatchObjectInternal@V__FrameHandler3@@@@YAXPEAUEHExceptionRecord@@PEAXPEBU_s_HandlerType@@PEBU_s_CatchableType@@@Z@4HA 000000018004a5e4     libvcruntimed:frame.obj
 0002:000115e4       $unwind$?filt$0@?0??CxxCallCatchBlock@__FrameHandler3@@SAPEAXPEAU_EXCEPTION_RECORD@@@Z@4HA 000000018004a5e4     libvcruntimed:frame.obj
 0002:000115e4       $unwind$?filt$0@?0??FrameUnwindToState@__FrameHandler3@@SAXPEA_KPEAU_xDISPATCHER_CONTEXT@@PEBU_s_FuncInfo@@H@Z@4HA 000000018004a5e4     libvcruntimed:frame.obj
 0002:000115e4       $unwind$?fin$1@?0??CxxCallCatchBlock@__FrameHandler3@@SAPEAXPEAU_EXCEPTION_RECORD@@@Z@4HA 000000018004a5e4     libvcruntimed:frame.obj
 0002:000115e4       $unwind$?fin$1@?0??FrameUnwindToState@__FrameHandler3@@SAXPEA_KPEAU_xDISPATCHER_CONTEXT@@PEBU_s_FuncInfo@@H@Z@4HA 000000018004a5e4     libvcruntimed:frame.obj
 0002:000115ec       $unwind$?dllmain_crt_process_detach@@YAH_N@Z 000000018004a5ec     LIBCMTD:dll_dllmain.obj
 0002:0001161c       $unwind$__acrt_InitializeCriticalSectionEx 000000018004a61c     libucrtd:winapi_thunks.obj
 0002:0001161c       $unwind$?dllmain_crt_dispatch@@YAHQEAUHINSTANCE__@@KQEAX@Z 000000018004a61c     LIBCMTD:dll_dllmain.obj
 0002:0001161c       $unwind$?dllmain_raw@@YAHQEAUHINSTANCE__@@KQEAX@Z 000000018004a61c     LIBCMTD:dll_dllmain.obj
 0002:00011624       $unwind$?dllmain_dispatch@@YAHQEAUHINSTANCE__@@KQEAX@Z 000000018004a624     LIBCMTD:dll_dllmain.obj
 0002:00011644       $unwind$?fin$0@?0??validate_heap_if_required_nolock@@YAXXZ@4HA 000000018004a644     libucrtd:debug_heap.obj
 0002:00011644       $unwind$_CrtCheckMemory$fin$0 000000018004a644     libucrtd:debug_heap.obj
 0002:00011644       $unwind$_CrtMemDumpAllObjectsSince$fin$0 000000018004a644     libucrtd:debug_heap.obj
 0002:00011644       $unwind$_CrtSetDbgFlag$fin$0 000000018004a644     libucrtd:debug_heap.obj
 0002:00011644       $unwind$_msize_dbg$fin$0   000000018004a644     libucrtd:debug_heap.obj
 0002:00011644       $unwind$_realloc_dbg$fin$0 000000018004a644     libucrtd:debug_heap.obj
 0002:00011644       $unwind$__acrt_lowio_ensure_fh_exists$fin$0 000000018004a644     libucrtd:osfinfo.obj
 0002:00011644       $unwind$_write$fin$0       000000018004a644     libucrtd:write.obj
 0002:00011644       $unwind$raise$fin$0        000000018004a644     libucrtd:signal.obj
 0002:00011644       $unwind$fclose$fin$0       000000018004a644     libucrtd:fclose.obj
 0002:00011644       $unwind$common_control87$filt$0 000000018004a644     libucrtd:ieee.obj
 0002:00011644       $unwind$?filt$0@?0??dllmain_dispatch@@YAHQEAUHINSTANCE__@@KQEAX@Z@4HA 000000018004a644     LIBCMTD:dll_dllmain.obj
 0002:0001164c       $unwind$c32rtomb           000000018004a64c     libucrtd:c32rtomb.obj
 0002:0001164c       $unwind$_lseeki64_nolock   000000018004a64c     libucrtd:lseek.obj
 0002:0001164c       $unwind$?type_case_s_compute_narrow_string_length@?$output_processor@DV?$string_output_adapter@D@__crt_stdio_output@@V?$format_validation_base@DV?$string_output_adapter@D@__crt_stdio_output@@@2@@__crt_stdio_output@@AEBAHHD@Z 000000018004a64c     libucrtd:output.obj
 0002:0001164c       $unwind$_DllMainCRTStartup 000000018004a64c     LIBCMTD:dll_dllmain.obj
 0002:00011654       $unwind$?shift_bytes@@YAXQEAD_K0H@Z 000000018004a654     libucrtd:cvt.obj
 0002:00011654       $unwind$??$message_box@$$TAEBQEB_WAEBQEB_WK@?$__crt_char_traits@_W@@SAH$$QEA$$TAEBQEB_W1$$QEAK@Z 000000018004a654     libucrtd:crtmbox.obj
 0002:00011654       $unwind$??$message_box@PEAUHWND__@@AEBQEB_WAEBQEB_WAEBI@?$__crt_char_traits@_W@@SAH$$QEAPEAUHWND__@@AEBQEB_W1AEBI@Z 000000018004a654     libucrtd:crtmbox.obj
 0002:00011654       $unwind$_invoke_watson     000000018004a654     libucrtd:invalid_parameter.obj
 0002:00011654       $unwind$??$tcsncpy_s@AEAPEAD_KAEAPEADAEB_K@?$__crt_char_traits@D@@SAHAEAPEAD$$QEA_K0AEB_K@Z 000000018004a654     libucrtd:argv_wildcards.obj
 0002:00011654       $unwind$??$tcsncpy_s@PEADAEB_KAEBQEBDAEB_K@?$__crt_char_traits@D@@SAH$$QEAPEADAEB_KAEBQEBD1@Z 000000018004a654     libucrtd:argv_wildcards.obj
 0002:00011654       $unwind$??$tcsncpy_s@PEAD_KAEBQEBDAEB_K@?$__crt_char_traits@D@@SAH$$QEAPEAD$$QEA_KAEBQEBDAEB_K@Z 000000018004a654     libucrtd:argv_wildcards.obj
 0002:00011654       $unwind$??0?$output_adapter_data@DV?$string_output_adapter@D@__crt_stdio_output@@@__crt_stdio_output@@IEAA@AEBV?$string_output_adapter@D@1@_KQEBDQEAU__crt_locale_pointers@@QEAD@Z 000000018004a654     libucrtd:output.obj
 0002:00011654       $unwind$??0?$output_adapter_data@_WV?$string_output_adapter@_W@__crt_stdio_output@@@__crt_stdio_output@@IEAA@AEBV?$string_output_adapter@_W@1@_KQEB_WQEAU__crt_locale_pointers@@QEAD@Z 000000018004a654     libucrtd:output.obj
 0002:00011654       $unwind$strncpy_s          000000018004a654     libucrtd:strncpy_s.obj
 0002:00011654       $unwind$wcsncpy_s          000000018004a654     libucrtd:wcsncpy_s.obj
 0002:00011654       $unwind$__GSHandlerCheck   000000018004a654     LIBCMTD:gshandler.obj
 0002:00011654       $unwind$?BuildCatchObject@__FrameHandler3@@SAXPEAUEHExceptionRecord@@PEAXPEBU_s_HandlerType@@PEBU_s_CatchableType@@@Z 000000018004a654     libvcruntimed:frame.obj
 0002:00011660       $xdatasym                  000000018004a660     LIBCMTD:amdsecgs.obj
 0002:00011664       $unwind$?get@?$c_string_character_source@D@__crt_strtox@@QEAADXZ 000000018004a664     libucrtd:atox.obj
 0002:00011664       $unwind$?get@?$c_string_character_source@_W@__crt_strtox@@QEAA_WXZ 000000018004a664     libucrtd:atox.obj
 0002:00011664       $unwind$?has_surrogate@?A0xc60ee810@@YA_NPEAU_Mbstatet@@@Z 000000018004a664     libucrtd:c16rtomb.obj
 0002:00011664       $unwind$?is_first_surrogate@?A0xc60ee810@@YA_N_S@Z 000000018004a664     libucrtd:c16rtomb.obj
 0002:00011664       $unwind$?is_second_surrogate@?A0xc60ee810@@YA_N_S@Z 000000018004a664     libucrtd:c16rtomb.obj
 0002:00011664       $unwind$?is_zero@__crt_strtox@@YA_NAEBUbig_integer@1@@Z 000000018004a664     libucrtd:cfout.obj
 0002:00011664       $unwind$?__acrt_fp_classify@@YA?AW4__acrt_fp_class@@AEBN@Z 000000018004a664     libucrtd:cvt.obj
 0002:00011664       $unwind$?__acrt_fp_is_negative@@YA_NAEBN@Z 000000018004a664     libucrtd:cvt.obj
 0002:00011664       $unwind$_CrtSetDumpClient  000000018004a664     libucrtd:debug_heap.obj
 0002:00011664       $unwind$__acrt_get_locale_data_prefix 000000018004a664     libucrtd:debug_heap.obj
 0002:00011664       $unwind$?detach@?$__crt_unique_heap_ptr@U__acrt_ptd@@U__crt_internal_free_policy@@@@QEAAPEAU__acrt_ptd@@XZ 000000018004a664     libucrtd:per_thread_data.obj
 0002:00011664       $unwind$?is_valid@?$__crt_unique_heap_ptr@U__acrt_ptd@@U__crt_internal_free_policy@@@@QEBA_NXZ 000000018004a664     libucrtd:per_thread_data.obj
 0002:00011664       $unwind$_MallocaComputeSize 000000018004a664     libucrtd:getstringtypea.obj
 0002:00011664       $unwind$??B?$__crt_scoped_stack_ptr@_W@@QEBA_NXZ 000000018004a664     libucrtd:lcmapstringa.obj
 0002:00011664       $unwind$?detach@?$__crt_unique_heap_ptr@U__crt_lowio_handle_data@@U__crt_internal_free_policy@@@@QEAAPEAU__crt_lowio_handle_data@@XZ 000000018004a664     libucrtd:osfinfo.obj
 0002:00011664       $unwind$?is_valid@?$__crt_unique_heap_ptr@U__crt_lowio_handle_data@@U__crt_internal_free_policy@@@@QEBA_NXZ 000000018004a664     libucrtd:osfinfo.obj
 0002:00011664       $unwind$?detach@?$__crt_unique_heap_ptr@U__crt_multibyte_data@@U__crt_internal_free_policy@@@@QEAAPEAU__crt_multibyte_data@@XZ 000000018004a664     libucrtd:mbctype.obj
 0002:00011664       $unwind$?is_valid@?$__crt_unique_heap_ptr@U__crt_multibyte_data@@U__crt_internal_free_policy@@@@QEBA_NXZ 000000018004a664     libucrtd:mbctype.obj
 0002:00011664       $unwind$?setSBCS@@YAXPEAU__crt_multibyte_data@@@Z 000000018004a664     libucrtd:mbctype.obj
 0002:00011664       $unwind$__acrt_should_sync_with_global_locale 000000018004a664     libucrtd:mbctype.obj
 0002:00011664       $unwind$?detach@?$__crt_unique_heap_ptr@EU__crt_internal_free_policy@@@@QEAAPEAEXZ 000000018004a664     libucrtd:argv_parsing.obj
 0002:00011664       $unwind$?detach@?$__crt_unique_heap_ptr@PEADU__crt_internal_free_policy@@@@QEAAPEAPEADXZ 000000018004a664     libucrtd:argv_parsing.obj
 0002:00011664       $unwind$?is_valid@?$__crt_unique_heap_ptr@EU__crt_internal_free_policy@@@@QEBA_NXZ 000000018004a664     libucrtd:argv_parsing.obj
 0002:00011664       $unwind$?__crt_fast_encode_pointer@@YA?AU__crt_fast_encoded_nullptr_t@@$$T@Z 000000018004a664     libucrtd:exit.obj
 0002:00011664       $unwind$?__crt_interlocked_read_32@@YAHPEDH@Z 000000018004a664     libucrtd:exit.obj
 0002:00011664       $unwind$?detach@?$__crt_unique_heap_ptr@PEAU__crt_stdio_stream_data@@U__crt_internal_free_policy@@@@QEAAPEAPEAU__crt_stdio_stream_data@@XZ 000000018004a664     libucrtd:_file.obj
 0002:00011664       $unwind$??$read_va_arg@C@__crt_stdio_output@@YACAEAPEAD@Z 000000018004a664     libucrtd:output.obj
 0002:00011664       $unwind$??$read_va_arg@E@__crt_stdio_output@@YAEAEAPEAD@Z 000000018004a664     libucrtd:output.obj
 0002:00011664       $unwind$??$read_va_arg@F@__crt_stdio_output@@YAFAEAPEAD@Z 000000018004a664     libucrtd:output.obj
 0002:00011664       $unwind$??$read_va_arg@G@__crt_stdio_output@@YAGAEAPEAD@Z 000000018004a664     libucrtd:output.obj
 0002:00011664       $unwind$??$read_va_arg@H@__crt_stdio_output@@YAHAEAPEAD@Z 000000018004a664     libucrtd:output.obj
 0002:00011664       $unwind$??$read_va_arg@I@__crt_stdio_output@@YAIAEAPEAD@Z 000000018004a664     libucrtd:output.obj
 0002:00011664       $unwind$??$read_va_arg@PEAD@__crt_stdio_output@@YAPEADAEAPEAD@Z 000000018004a664     libucrtd:output.obj
 0002:00011664       $unwind$??$read_va_arg@PEAUansi_string@?1??type_case_Z@?$output_processor@DV?$string_output_adapter@D@__crt_stdio_output@@V?$format_validation_base@DV?$string_output_adapter@D@__crt_stdio_output@@@2@@__crt_stdio_output@@AEAA_NXZ@@__crt_stdio_output@@YAPEAUansi_string@?1??type_case_Z@?$output_processor@DV?$string_output_adapter@D@__crt_stdio_output@@V?$format_validation_base@DV?$string_output_adapter@D@__crt_stdio_output@@@2@@0@AEAA_NXZ@AEAPEAD@Z 000000018004a664     libucrtd:output.obj
 0002:00011664       $unwind$??$read_va_arg@PEAUansi_string@?1??type_case_Z@?$output_processor@_WV?$string_output_adapter@_W@__crt_stdio_output@@V?$format_validation_base@_WV?$string_output_adapter@_W@__crt_stdio_output@@@2@@__crt_stdio_output@@AEAA_NXZ@@__crt_stdio_output@@YAPEAUansi_string@?1??type_case_Z@?$output_processor@_WV?$string_output_adapter@_W@__crt_stdio_output@@V?$format_validation_base@_WV?$string_output_adapter@_W@__crt_stdio_output@@@2@@0@AEAA_NXZ@AEAPEAD@Z 000000018004a664     libucrtd:output.obj
 0002:00011664       $unwind$??$read_va_arg@PEAX@__crt_stdio_output@@YAPEAXAEAPEAD@Z 000000018004a664     libucrtd:output.obj
 0002:00011664       $unwind$??$read_va_arg@U_CRT_DOUBLE@@@__crt_stdio_output@@YA?AU_CRT_DOUBLE@@AEAPEAD@Z 000000018004a664     libucrtd:output.obj
 0002:00011664       $unwind$??$read_va_arg@_J@__crt_stdio_output@@YA_JAEAPEAD@Z 000000018004a664     libucrtd:output.obj
 0002:00011664       $unwind$??$read_va_arg@_K@__crt_stdio_output@@YA_KAEAPEAD@Z 000000018004a664     libucrtd:output.obj
 0002:00011664       $unwind$??$read_va_arg@_W@__crt_stdio_output@@YA_WAEAPEAD@Z 000000018004a664     libucrtd:output.obj
 0002:00011664       $unwind$?advance_to_next_pass@?$standard_base@DV?$string_output_adapter@D@__crt_stdio_output@@@__crt_stdio_output@@IEAA_NXZ 000000018004a664     libucrtd:output.obj
 0002:00011664       $unwind$?advance_to_next_pass@?$standard_base@_WV?$string_output_adapter@_W@__crt_stdio_output@@@__crt_stdio_output@@IEAA_NXZ 000000018004a664     libucrtd:output.obj
 0002:00011664       $unwind$?valid@__crt_stdio_stream@@QEBA_NXZ 000000018004a664     libucrtd:output.obj
 0002:00011664       $unwind$_handle_nan        000000018004a664     libucrtd:libm_error.obj
 0002:00011664       $unwind$ReadNoFence64      000000018004a664     LIBCMTD:guard_support.obj
 0002:00011664       $unwind$?isEHs@__FrameHandler3@@SA_NPEBU_s_FuncInfo@@@Z 000000018004a664     libvcruntimed:frame.obj
 0002:00011664       $unwind$?isNoExcept@__FrameHandler3@@SA_NPEBU_s_FuncInfo@@@Z 000000018004a664     libvcruntimed:frame.obj
 0002:00011664       $unwind$?what@exception@std@@UEBAPEBDXZ 000000018004a664     libvcruntimed:frame.obj
 0002:00011664       $unwind$?detach@?$__crt_unique_heap_ptr@U__vcrt_ptd@@U__crt_internal_free_policy@@@@QEAAPEAU__vcrt_ptd@@XZ 000000018004a664     libvcruntimed:per_thread_data.obj
 0002:00011664       $unwind$?is_valid@?$__crt_unique_heap_ptr@U__vcrt_ptd@@U__crt_internal_free_policy@@@@QEBA_NXZ 000000018004a664     libvcruntimed:per_thread_data.obj
 0002:00011664       $unwind$?detach@?$__crt_unique_heap_ptr@DU__crt_public_free_policy@@@@QEAAPEADXZ 000000018004a664     libvcruntimed:std_exception.obj
 0002:00011664       $unwind$?is_valid@?$__crt_unique_heap_ptr@DU__crt_public_free_policy@@@@QEBA_NXZ 000000018004a664     libvcruntimed:std_exception.obj
 0002:00011664       $unwind$?__crt_interlocked_read_64@@YA_JPED_J@Z 000000018004a664     libvcruntimed:std_type_info.obj
 0002:00011664       $unwind$?is_valid@?$__crt_unique_heap_ptr@DU__crt_internal_free_policy@@@@QEBA_NXZ 000000018004a664     libvcruntimed:std_type_info.obj
 0002:0001166c       $unwind$_putwch_nolock     000000018004a66c     libucrtd:putwch.obj
 0002:0001166c       $unwind$??0big_integer@__crt_strtox@@QEAA@XZ 000000018004a66c     libucrtd:cfout.obj
 0002:0001166c       $unwind$??0scoped_fp_state_reset@?A0x71ca7cfb@@QEAA@XZ 000000018004a66c     libucrtd:cfout.obj
 0002:0001166c       $unwind$??1scoped_fp_state_reset@?A0x71ca7cfb@@QEAA@XZ 000000018004a66c     libucrtd:cfout.obj
 0002:0001166c       $unwind$??1_LocaleUpdate@@QEAA@XZ 000000018004a66c     libucrtd:debug_heap.obj
 0002:0001166c       $unwind$_CrtIsValidHeapPointer 000000018004a66c     libucrtd:debug_heap.obj
 0002:0001166c       $unwind$malloc             000000018004a66c     libucrtd:malloc.obj
 0002:0001166c       $unwind$??$__crt_fast_decode_pointer@P6AH_K@Z@@YAP6AH_K@ZQ6AH0@Z@Z 000000018004a66c     libucrtd:new_handler.obj
 0002:0001166c       $unwind$?value@?$dual_state_global@P6AH_K@Z@__crt_state_management@@QEAAAEAP6AH_K@ZXZ 000000018004a66c     libucrtd:new_handler.obj
 0002:0001166c       $unwind$__acrt_initialize_new_handler 000000018004a66c     libucrtd:new_handler.obj
 0002:0001166c       $unwind$?value@?$dual_state_global@J@__crt_state_management@@QEAAAEAJXZ 000000018004a66c     libucrtd:new_mode.obj
 0002:0001166c       $unwind$?_deallocate@?$__crt_win32_buffer@DU__crt_win32_buffer_no_resizing@@@@AEAAXXZ 000000018004a66c     libucrtd:getmodulefilenamea.obj
 0002:0001166c       $unwind$?set_to_nullptr@?$__crt_win32_buffer@DU__crt_win32_buffer_no_resizing@@@@QEAAXXZ 000000018004a66c     libucrtd:getmodulefilenamea.obj
 0002:0001166c       $unwind$??$?BX@__crt_fast_encoded_nullptr_t@@QEBAPEAXXZ 000000018004a66c     libucrtd:initialization.obj
 0002:0001166c       $unwind$??$__crt_fast_encode_pointer@PEAX@@YAPEAXQEAX@Z 000000018004a66c     libucrtd:initialization.obj
 0002:0001166c       $unwind$??0__crt_scoped_get_last_error_reset@@QEAA@XZ 000000018004a66c     libucrtd:per_thread_data.obj
 0002:0001166c       $unwind$??1?$__crt_unique_heap_ptr@U__acrt_ptd@@U__crt_internal_free_policy@@@@QEAA@XZ 000000018004a66c     libucrtd:per_thread_data.obj
 0002:0001166c       $unwind$??1__crt_scoped_get_last_error_reset@@QEAA@XZ 000000018004a66c     libucrtd:per_thread_data.obj
 0002:0001166c       $unwind$??B?$__crt_unique_heap_ptr@U__acrt_ptd@@U__crt_internal_free_policy@@@@QEBA_NXZ 000000018004a66c     libucrtd:per_thread_data.obj
 0002:0001166c       $unwind$??R<lambda_04ddeca75b7c13fd67716e8dfcef87ee>@@QEBAXXZ 000000018004a66c     libucrtd:per_thread_data.obj
 0002:0001166c       $unwind$??R<lambda_0ae27a3a962d80f24befdcbee591983d>@@QEBAXXZ 000000018004a66c     libucrtd:per_thread_data.obj
 0002:0001166c       $unwind$??R<lambda_2d41944a1d46af3157314b8a01080d33>@@QEBAXXZ 000000018004a66c     libucrtd:per_thread_data.obj
 0002:0001166c       $unwind$??R<lambda_6992ecaafeb10aed2b74cb1fae11a551>@@QEBAXXZ 000000018004a66c     libucrtd:per_thread_data.obj
 0002:0001166c       $unwind$??R<lambda_74a0ef281e44d15e1136f792f539efb3>@@QEBAXXZ 000000018004a66c     libucrtd:per_thread_data.obj
 0002:0001166c       $unwind$??R<lambda_8f455de75cd7d7f24b4096f044d8b9e6>@@QEBAXXZ 000000018004a66c     libucrtd:per_thread_data.obj
 0002:0001166c       $unwind$??R<lambda_92619d2358a28f41a33ba319515a20b9>@@QEBAXXZ 000000018004a66c     libucrtd:per_thread_data.obj
 0002:0001166c       $unwind$??R<lambda_aa500f224e6afead328df44964fe2772>@@QEBAXXZ 000000018004a66c     libucrtd:per_thread_data.obj
 0002:0001166c       $unwind$??R<lambda_aa87e3671a710a21b5dc78c0bdf72e11>@@QEBAXXZ 000000018004a66c     libucrtd:per_thread_data.obj
 0002:0001166c       $unwind$??R<lambda_dc504788e8f1664fe9b84e20bfb512f2>@@QEBAXXZ 000000018004a66c     libucrtd:per_thread_data.obj
 0002:0001166c       $unwind$?destroy_fls@@YAXPEAX@Z 000000018004a66c     libucrtd:per_thread_data.obj
 0002:0001166c       $unwind$?value@?$dual_state_global@PEAU__crt_locale_data@@@__crt_state_management@@QEAAAEAPEAU__crt_locale_data@@XZ 000000018004a66c     libucrtd:per_thread_data.obj
 0002:0001166c       $unwind$?appmodel_get_policy@developer_information_policy_properties@?1??__acrt_get_developer_information_policy@@YA?AW4developer_information_policy@@XZ@SAJPEAW4AppPolicyShowDeveloperDiagnostic@@@Z 000000018004a66c     libucrtd:win_policies.obj
 0002:0001166c       $unwind$?appmodel_get_policy@process_end_policy_properties@?1??__acrt_get_process_end_policy@@YA?AW4process_end_policy@@XZ@SAJPEAW4AppPolicyProcessTerminationMethod@@@Z 000000018004a66c     libucrtd:win_policies.obj
 0002:0001166c       $unwind$?appmodel_get_policy@windowing_model_policy_properties@?1??__acrt_get_windowing_model_policy@@YA?AW4windowing_model_policy@@XZ@SAJPEAW4AppPolicyWindowingModel@@@Z 000000018004a66c     libucrtd:win_policies.obj
 0002:0001166c       $unwind$??$__crt_fast_decode_pointer@PEAX@@YAPEAXQEAX@Z 000000018004a66c     libucrtd:winapi_thunks.obj
 0002:0001166c       $unwind$??1?$__crt_scoped_stack_ptr@_W@@QEAA@XZ 000000018004a66c     libucrtd:getstringtypea.obj
 0002:0001166c       $unwind$__acrt_locale_free_monetary 000000018004a66c     libucrtd:initmon.obj
 0002:0001166c       $unwind$__acrt_locale_free_numeric 000000018004a66c     libucrtd:initnum.obj
 0002:0001166c       $unwind$??$free_crt_array@D$01@@YAXAEAY01PEAD@Z 000000018004a66c     libucrtd:inittime.obj
 0002:0001166c       $unwind$??$free_crt_array@D$06@@YAXAEAY06PEAD@Z 000000018004a66c     libucrtd:inittime.obj
 0002:0001166c       $unwind$??$free_crt_array@D$0M@@@YAXAEAY0M@PEAD@Z 000000018004a66c     libucrtd:inittime.obj
 0002:0001166c       $unwind$??$free_crt_array@_W$01@@YAXAEAY01PEA_W@Z 000000018004a66c     libucrtd:inittime.obj
 0002:0001166c       $unwind$??$free_crt_array@_W$06@@YAXAEAY06PEA_W@Z 000000018004a66c     libucrtd:inittime.obj
 0002:0001166c       $unwind$??$free_crt_array@_W$0M@@@YAXAEAY0M@PEA_W@Z 000000018004a66c     libucrtd:inittime.obj
 0002:0001166c       $unwind$__acrt_locale_free_time 000000018004a66c     libucrtd:inittime.obj
 0002:0001166c       $unwind$__acrt_locale_free_lc_time_if_unreferenced 000000018004a66c     libucrtd:locale_refcounting.obj
 0002:0001166c       $unwind$??R<lambda_38119f0e861e05405d8a144b9b982f0a>@@QEBAXXZ 000000018004a66c     libucrtd:wsetlocale.obj
 0002:0001166c       $unwind$??R<lambda_410d79af7f07d98d83a3f525b3859a53>@@QEBAXXZ 000000018004a66c     libucrtd:wsetlocale.obj
 0002:0001166c       $unwind$??R<lambda_53fc7fc888e23d815d7080162c0aeeb2>@@QEBAXXZ 000000018004a66c     libucrtd:close.obj
 0002:0001166c       $unwind$??R<lambda_8ddc48ad9d26c778cb15812d1d88fc8a>@@QEBAXXZ 000000018004a66c     libucrtd:close.obj
 0002:0001166c       $unwind$??R<lambda_47cffbaa968af5c721c38a4a6f8da44d>@@QEBAXXZ 000000018004a66c     libucrtd:commit.obj
 0002:0001166c       $unwind$??R<lambda_4e3dbe6921bc0b5a1a6bc6573fdc859e>@@QEBAXXZ 000000018004a66c     libucrtd:commit.obj
 0002:0001166c       $unwind$??1?$__crt_unique_heap_ptr@U__crt_lowio_handle_data@@U__crt_internal_free_policy@@@@QEAA@XZ 000000018004a66c     libucrtd:osfinfo.obj
 0002:0001166c       $unwind$??B?$__crt_unique_heap_ptr@U__crt_lowio_handle_data@@U__crt_internal_free_policy@@@@QEBA_NXZ 000000018004a66c     libucrtd:osfinfo.obj
 0002:0001166c       $unwind$??1?$__crt_unique_heap_ptr@U__crt_multibyte_data@@U__crt_internal_free_policy@@@@QEAA@XZ 000000018004a66c     libucrtd:mbctype.obj
 0002:0001166c       $unwind$??B?$__crt_unique_heap_ptr@U__crt_multibyte_data@@U__crt_internal_free_policy@@@@QEBA_NXZ 000000018004a66c     libucrtd:mbctype.obj
 0002:0001166c       $unwind$??R<lambda_728235dc0fc2b1f82d1fa5b3e7102d8f>@@QEBAXXZ 000000018004a66c     libucrtd:mbctype.obj
 0002:0001166c       $unwind$??R<lambda_efa02eb69bf647d2f7ff0dd6f1103f72>@@QEBAXXZ 000000018004a66c     libucrtd:mbctype.obj
 0002:0001166c       $unwind$?value@?$dual_state_global@PEAE@__crt_state_management@@QEAAAEAPEAEXZ 000000018004a66c     libucrtd:mbctype.obj
 0002:0001166c       $unwind$?value@?$dual_state_global@PEAU__crt_multibyte_data@@@__crt_state_management@@QEAAAEAPEAU__crt_multibyte_data@@XZ 000000018004a66c     libucrtd:mbctype.obj
 0002:0001166c       $unwind$??$output_debug_string@AEBQEB_W@?$__crt_char_traits@_W@@SAXAEBQEB_W@Z 000000018004a66c     libucrtd:crtmbox.obj
 0002:0001166c       $unwind$??$tcslen@AEAY0BAF@D@?$__crt_char_traits@D@@SA_KAEAY0BAF@D@Z 000000018004a66c     libucrtd:dbgrpt.obj
 0002:0001166c       $unwind$??$tcslen@AEAY0BAF@_W@?$__crt_char_traits@_W@@SA_KAEAY0BAF@_W@Z 000000018004a66c     libucrtd:dbgrpt.obj
 0002:0001166c       $unwind$??$tcslen@AEBQEBD@?$__crt_char_traits@D@@SA_KAEBQEBD@Z 000000018004a66c     libucrtd:dbgrpt.obj
 0002:0001166c       $unwind$??$tcslen@AEBQEB_W@?$__crt_char_traits@_W@@SA_KAEBQEB_W@Z 000000018004a66c     libucrtd:dbgrpt.obj
 0002:0001166c       $unwind$??$__crt_fast_decode_pointer@P6AXPEB_W00I_K@Z@@YAP6AXPEB_W00I_K@ZQ6AX000I1@Z@Z 000000018004a66c     libucrtd:invalid_parameter.obj
 0002:0001166c       $unwind$?value@?$dual_state_global@P6AXPEB_W00I_K@Z@__crt_state_management@@QEAAAEAP6AXPEB_W00I_K@ZXZ 000000018004a66c     libucrtd:invalid_parameter.obj
 0002:0001166c       $unwind$??$?B$$A6AXH@Z@__crt_fast_encoded_nullptr_t@@QEBAP6AXH@ZXZ 000000018004a66c     libucrtd:signal.obj
 0002:0001166c       $unwind$??$__crt_fast_decode_pointer@P6AXH@Z@@YAP6AXH@ZQ6AXH@Z@Z 000000018004a66c     libucrtd:signal.obj
 0002:0001166c       $unwind$??$__crt_fast_encode_pointer@P6AXH@Z@@YAP6AXH@ZQ6AXH@Z@Z 000000018004a66c     libucrtd:signal.obj
 0002:0001166c       $unwind$??R<lambda_44731a7d0e6d81c3e6aa82d741081786>@@QEBAP6AXH@ZXZ 000000018004a66c     libucrtd:signal.obj
 0002:0001166c       $unwind$??R<lambda_450d765d439847d4c735a33c368b5fc0>@@QEBAXXZ 000000018004a66c     libucrtd:signal.obj
 0002:0001166c       $unwind$??R<lambda_601a2a7da3b7a96e9554ac7215c4b07c>@@QEBAXXZ 000000018004a66c     libucrtd:signal.obj
 0002:0001166c       $unwind$?value@?$dual_state_global@P6AXH@Z@__crt_state_management@@QEAAAEAP6AXH@ZXZ 000000018004a66c     libucrtd:signal.obj
 0002:0001166c       $unwind$__acrt_initialize_signal_handlers 000000018004a66c     libucrtd:signal.obj
 0002:0001166c       $unwind$??$set_program_name@PEAD@?$__crt_char_traits@D@@SAX$$QEAPEAD@Z 000000018004a66c     libucrtd:argv_parsing.obj
 0002:0001166c       $unwind$??1?$__crt_unique_heap_ptr@EU__crt_internal_free_policy@@@@QEAA@XZ 000000018004a66c     libucrtd:argv_parsing.obj
 0002:0001166c       $unwind$??1?$__crt_unique_heap_ptr@PEADU__crt_internal_free_policy@@@@QEAA@XZ 000000018004a66c     libucrtd:argv_parsing.obj
 0002:0001166c       $unwind$??B?$__crt_unique_heap_ptr@EU__crt_internal_free_policy@@@@QEBA_NXZ 000000018004a66c     libucrtd:argv_parsing.obj
 0002:0001166c       $unwind$??1?$__crt_unique_handle_t@U__crt_findfile_traits@@@@QEAA@XZ 000000018004a66c     libucrtd:argv_wildcards.obj
 0002:0001166c       $unwind$?_deallocate@?$__crt_win32_buffer@DU__crt_win32_buffer_internal_dynamic_resizing@@@@AEAAXXZ 000000018004a66c     libucrtd:argv_wildcards.obj
 0002:0001166c       $unwind$?_deallocate@?$__crt_win32_buffer@_WU__crt_win32_buffer_internal_dynamic_resizing@@@@AEAAXXZ 000000018004a66c     libucrtd:argv_wildcards.obj
 0002:0001166c       $unwind$?close@?$__crt_unique_handle_t@U__crt_findfile_traits@@@@QEAAXXZ 000000018004a66c     libucrtd:argv_wildcards.obj
 0002:0001166c       $unwind$?set_to_nullptr@?$__crt_win32_buffer@DU__crt_win32_buffer_internal_dynamic_resizing@@@@QEAAXXZ 000000018004a66c     libucrtd:argv_wildcards.obj
 0002:0001166c       $unwind$?set_to_nullptr@?$__crt_win32_buffer@_WU__crt_win32_buffer_internal_dynamic_resizing@@@@QEAAXXZ 000000018004a66c     libucrtd:argv_wildcards.obj
 0002:0001166c       $unwind$??$?B$$A6AXPEAXK0@Z@__crt_fast_encoded_nullptr_t@@QEBAP6AXPEAXK0@ZXZ 000000018004a66c     libucrtd:exit.obj
 0002:0001166c       $unwind$??$__crt_fast_decode_pointer@P6AXPEAXK0@Z@@YAP6AXPEAXK0@ZQ6AX0K0@Z@Z 000000018004a66c     libucrtd:exit.obj
 0002:0001166c       $unwind$??$__crt_fast_encode_pointer@P6AXPEAXK0@Z@@YAP6AXPEAXK0@ZQ6AX0K0@Z@Z 000000018004a66c     libucrtd:exit.obj
 0002:0001166c       $unwind$??$__crt_interlocked_read@J@@YAJPEDJ@Z 000000018004a66c     libucrtd:exit.obj
 0002:0001166c       $unwind$??1?$__crt_unique_handle_t@U__crt_hmodule_traits@@@@QEAA@XZ 000000018004a66c     libucrtd:exit.obj
 0002:0001166c       $unwind$??R<lambda_2358e3775559c9db80273638284d5e45>@@QEBAXXZ 000000018004a66c     libucrtd:exit.obj
 0002:0001166c       $unwind$??R<lambda_d80eeec6fff315bfe5c115232f3240e3>@@QEBAXXZ 000000018004a66c     libucrtd:exit.obj
 0002:0001166c       $unwind$?close@?$__crt_unique_handle_t@U__crt_hmodule_traits@@@@QEAAXXZ 000000018004a66c     libucrtd:exit.obj
 0002:0001166c       $unwind$??$?B$$A6AXXZ@__crt_fast_encoded_nullptr_t@@QEBAP6AXXZXZ 000000018004a66c     libucrtd:onexit.obj
 0002:0001166c       $unwind$??$?BP6AXXZ@__crt_fast_encoded_nullptr_t@@QEBAPEAP6AXXZXZ 000000018004a66c     libucrtd:onexit.obj
 0002:0001166c       $unwind$??$__crt_fast_decode_pointer@P6AXXZ@@YAP6AXXZQ6AXXZ@Z 000000018004a66c     libucrtd:onexit.obj
 0002:0001166c       $unwind$??$__crt_fast_decode_pointer@PEAP6AXXZ@@YAPEAP6AXXZQEAP6AXXZ@Z 000000018004a66c     libucrtd:onexit.obj
 0002:0001166c       $unwind$??$__crt_fast_encode_pointer@P6AXXZ@@YAP6AXXZQ6AXXZ@Z 000000018004a66c     libucrtd:onexit.obj
 0002:0001166c       $unwind$??$__crt_fast_encode_pointer@PEAP6AXXZ@@YAPEAP6AXXZQEAP6AXXZ@Z 000000018004a66c     libucrtd:onexit.obj
 0002:0001166c       $unwind$??R<lambda_6a47f4c8fd0152770a780fc1d70204eb>@@QEBAXXZ 000000018004a66c     libucrtd:onexit.obj
 0002:0001166c       $unwind$??R<lambda_6aaa2265f5b6a89667e7d7630012e97a>@@QEBAXXZ 000000018004a66c     libucrtd:onexit.obj
 0002:0001166c       $unwind$??1?$__crt_unique_heap_ptr@PEAU__crt_stdio_stream_data@@U__crt_internal_free_policy@@@@QEAA@XZ 000000018004a66c     libucrtd:_file.obj
 0002:0001166c       $unwind$?has_crt_buffer@__crt_stdio_stream@@QEBA_NXZ 000000018004a66c     libucrtd:_freebuf.obj
 0002:0001166c       $unwind$??R<lambda_842d9ff0dc9ef11c61343bbaebe7f885>@@QEBAXXZ 000000018004a66c     libucrtd:fflush.obj
 0002:0001166c       $unwind$??R<lambda_886d6c58226a84441f68b9f2b8217b83>@@QEBAXXZ 000000018004a66c     libucrtd:fflush.obj
 0002:0001166c       $unwind$??R<lambda_c5860995281e5c4ce005b3de8f5874ee>@@QEBAXXZ 000000018004a66c     libucrtd:fflush.obj
 0002:0001166c       $unwind$??R<lambda_d90129c13df834fdcbf8d2b88dafcf2d>@@QEBAXXZ 000000018004a66c     libucrtd:fflush.obj
 0002:0001166c       $unwind$??R<lambda_f7f22ab5edc0698d5f6905b0d3f44752>@@QEBAXXZ 000000018004a66c     libucrtd:fflush.obj
 0002:0001166c       $unwind$?lowio_handle@__crt_stdio_stream@@QEBAHXZ 000000018004a66c     libucrtd:fileno.obj
 0002:0001166c       $unwind$??$count@D@formatting_buffer@__crt_stdio_output@@QEBA_KXZ 000000018004a66c     libucrtd:output.obj
 0002:0001166c       $unwind$??$count@_W@formatting_buffer@__crt_stdio_output@@QEBA_KXZ 000000018004a66c     libucrtd:output.obj
 0002:0001166c       $unwind$??$data@D@formatting_buffer@__crt_stdio_output@@QEAAPEADXZ 000000018004a66c     libucrtd:output.obj
 0002:0001166c       $unwind$??$data@_W@formatting_buffer@__crt_stdio_output@@QEAAPEA_WXZ 000000018004a66c     libucrtd:output.obj
 0002:0001166c       $unwind$??$scratch_count@D@formatting_buffer@__crt_stdio_output@@QEBA_KXZ 000000018004a66c     libucrtd:output.obj
 0002:0001166c       $unwind$??0?$common_data@D@__crt_stdio_output@@IEAA@XZ 000000018004a66c     libucrtd:output.obj
 0002:0001166c       $unwind$??0?$common_data@_W@__crt_stdio_output@@IEAA@XZ 000000018004a66c     libucrtd:output.obj
 0002:0001166c       $unwind$??0formatting_buffer@__crt_stdio_output@@QEAA@XZ 000000018004a66c     libucrtd:output.obj
 0002:0001166c       $unwind$??1?$common_data@D@__crt_stdio_output@@QEAA@XZ 000000018004a66c     libucrtd:output.obj
 0002:0001166c       $unwind$??1?$common_data@_W@__crt_stdio_output@@QEAA@XZ 000000018004a66c     libucrtd:output.obj
 0002:0001166c       $unwind$??1?$format_validation_base@DV?$string_output_adapter@D@__crt_stdio_output@@@__crt_stdio_output@@QEAA@XZ 000000018004a66c     libucrtd:output.obj
 0002:0001166c       $unwind$??1?$format_validation_base@_WV?$string_output_adapter@_W@__crt_stdio_output@@@__crt_stdio_output@@QEAA@XZ 000000018004a66c     libucrtd:output.obj
 0002:0001166c       $unwind$??1?$output_adapter_data@DV?$string_output_adapter@D@__crt_stdio_output@@@__crt_stdio_output@@QEAA@XZ 000000018004a66c     libucrtd:output.obj
 0002:0001166c       $unwind$??1?$output_adapter_data@_WV?$string_output_adapter@_W@__crt_stdio_output@@@__crt_stdio_output@@QEAA@XZ 000000018004a66c     libucrtd:output.obj
 0002:0001166c       $unwind$??1?$output_processor@DV?$string_output_adapter@D@__crt_stdio_output@@V?$format_validation_base@DV?$string_output_adapter@D@__crt_stdio_output@@@2@@__crt_stdio_output@@QEAA@XZ 000000018004a66c     libucrtd:output.obj
 0002:0001166c       $unwind$??1?$output_processor@_WV?$string_output_adapter@_W@__crt_stdio_output@@V?$format_validation_base@_WV?$string_output_adapter@_W@__crt_stdio_output@@@2@@__crt_stdio_output@@QEAA@XZ 000000018004a66c     libucrtd:output.obj
 0002:0001166c       $unwind$??1?$standard_base@DV?$string_output_adapter@D@__crt_stdio_output@@@__crt_stdio_output@@QEAA@XZ 000000018004a66c     libucrtd:output.obj
 0002:0001166c       $unwind$??1?$standard_base@_WV?$string_output_adapter@_W@__crt_stdio_output@@@__crt_stdio_output@@QEAA@XZ 000000018004a66c     libucrtd:output.obj
 0002:0001166c       $unwind$??1formatting_buffer@__crt_stdio_output@@QEAA@XZ 000000018004a66c     libucrtd:output.obj
 0002:0001166c       $unwind$?get@__crt_deferred_errno_cache@@QEAAAEAHXZ 000000018004a66c     libucrtd:output.obj
 0002:0001166c       $unwind$?get_flags@__crt_stdio_stream@@QEBAJXZ 000000018004a66c     libucrtd:output.obj
 0002:0001166c       $unwind$?state_case_normal_common@?$output_processor@DV?$string_output_adapter@D@__crt_stdio_output@@V?$format_validation_base@DV?$string_output_adapter@D@__crt_stdio_output@@@2@@__crt_stdio_output@@AEAA_NXZ 000000018004a66c     libucrtd:output.obj
 0002:0001166c       $unwind$?state_case_normal_common@?$output_processor@_WV?$string_output_adapter@_W@__crt_stdio_output@@V?$format_validation_base@_WV?$string_output_adapter@_W@__crt_stdio_output@@@2@@__crt_stdio_output@@AEAA_NXZ 000000018004a66c     libucrtd:output.obj
 0002:0001166c       $unwind$?state_case_precision@?$output_processor@DV?$string_output_adapter@D@__crt_stdio_output@@V?$format_validation_base@DV?$string_output_adapter@D@__crt_stdio_output@@@2@@__crt_stdio_output@@AEAA_NXZ 000000018004a66c     libucrtd:output.obj
 0002:0001166c       $unwind$?state_case_precision@?$output_processor@_WV?$string_output_adapter@_W@__crt_stdio_output@@V?$format_validation_base@_WV?$string_output_adapter@_W@__crt_stdio_output@@@2@@__crt_stdio_output@@AEAA_NXZ 000000018004a66c     libucrtd:output.obj
 0002:0001166c       $unwind$?state_case_width@?$output_processor@DV?$string_output_adapter@D@__crt_stdio_output@@V?$format_validation_base@DV?$string_output_adapter@D@__crt_stdio_output@@@2@@__crt_stdio_output@@AEAA_NXZ 000000018004a66c     libucrtd:output.obj
 0002:0001166c       $unwind$?state_case_width@?$output_processor@_WV?$string_output_adapter@_W@__crt_stdio_output@@V?$format_validation_base@_WV?$string_output_adapter@_W@__crt_stdio_output@@@2@@__crt_stdio_output@@AEAA_NXZ 000000018004a66c     libucrtd:output.obj
 0002:0001166c       $unwind$?tchar_string@?$common_data@D@__crt_stdio_output@@IEAAAEAPEADXZ 000000018004a66c     libucrtd:output.obj
 0002:0001166c       $unwind$?tchar_string@?$common_data@_W@__crt_stdio_output@@IEAAAEAPEA_WXZ 000000018004a66c     libucrtd:output.obj
 0002:0001166c       $unwind$?type_case_X@?$output_processor@DV?$string_output_adapter@D@__crt_stdio_output@@V?$format_validation_base@DV?$string_output_adapter@D@__crt_stdio_output@@@2@@__crt_stdio_output@@AEAA_NXZ 000000018004a66c     libucrtd:output.obj
 0002:0001166c       $unwind$?type_case_X@?$output_processor@_WV?$string_output_adapter@_W@__crt_stdio_output@@V?$format_validation_base@_WV?$string_output_adapter@_W@__crt_stdio_output@@@2@@__crt_stdio_output@@AEAA_NXZ 000000018004a66c     libucrtd:output.obj
 0002:0001166c       $unwind$?type_case_c@?$output_processor@DV?$string_output_adapter@D@__crt_stdio_output@@V?$format_validation_base@DV?$string_output_adapter@D@__crt_stdio_output@@@2@@__crt_stdio_output@@AEAA_NXZ 000000018004a66c     libucrtd:output.obj
 0002:0001166c       $unwind$?type_case_c@?$output_processor@_WV?$string_output_adapter@_W@__crt_stdio_output@@V?$format_validation_base@_WV?$string_output_adapter@_W@__crt_stdio_output@@@2@@__crt_stdio_output@@AEAA_NXZ 000000018004a66c     libucrtd:output.obj
 0002:0001166c       $unwind$?type_case_d@?$output_processor@DV?$string_output_adapter@D@__crt_stdio_output@@V?$format_validation_base@DV?$string_output_adapter@D@__crt_stdio_output@@@2@@__crt_stdio_output@@AEAA_NXZ 000000018004a66c     libucrtd:output.obj
 0002:0001166c       $unwind$?type_case_d@?$output_processor@_WV?$string_output_adapter@_W@__crt_stdio_output@@V?$format_validation_base@_WV?$string_output_adapter@_W@__crt_stdio_output@@@2@@__crt_stdio_output@@AEAA_NXZ 000000018004a66c     libucrtd:output.obj
 0002:0001166c       $unwind$?type_case_o@?$output_processor@DV?$string_output_adapter@D@__crt_stdio_output@@V?$format_validation_base@DV?$string_output_adapter@D@__crt_stdio_output@@@2@@__crt_stdio_output@@AEAA_NXZ 000000018004a66c     libucrtd:output.obj
 0002:0001166c       $unwind$?type_case_o@?$output_processor@_WV?$string_output_adapter@_W@__crt_stdio_output@@V?$format_validation_base@_WV?$string_output_adapter@_W@__crt_stdio_output@@@2@@__crt_stdio_output@@AEAA_NXZ 000000018004a66c     libucrtd:output.obj
 0002:0001166c       $unwind$?type_case_p@?$output_processor@DV?$string_output_adapter@D@__crt_stdio_output@@V?$format_validation_base@DV?$string_output_adapter@D@__crt_stdio_output@@@2@@__crt_stdio_output@@AEAA_NXZ 000000018004a66c     libucrtd:output.obj
 0002:0001166c       $unwind$?type_case_p@?$output_processor@_WV?$string_output_adapter@_W@__crt_stdio_output@@V?$format_validation_base@_WV?$string_output_adapter@_W@__crt_stdio_output@@@2@@__crt_stdio_output@@AEAA_NXZ 000000018004a66c     libucrtd:output.obj
 0002:0001166c       $unwind$?type_case_u@?$output_processor@DV?$string_output_adapter@D@__crt_stdio_output@@V?$format_validation_base@DV?$string_output_adapter@D@__crt_stdio_output@@@2@@__crt_stdio_output@@AEAA_NXZ 000000018004a66c     libucrtd:output.obj
 0002:0001166c       $unwind$?type_case_u@?$output_processor@_WV?$string_output_adapter@_W@__crt_stdio_output@@V?$format_validation_base@_WV?$string_output_adapter@_W@__crt_stdio_output@@@2@@__crt_stdio_output@@AEAA_NXZ 000000018004a66c     libucrtd:output.obj
 0002:0001166c       $unwind$?type_case_x@?$output_processor@DV?$string_output_adapter@D@__crt_stdio_output@@V?$format_validation_base@DV?$string_output_adapter@D@__crt_stdio_output@@@2@@__crt_stdio_output@@AEAA_NXZ 000000018004a66c     libucrtd:output.obj
 0002:0001166c       $unwind$?type_case_x@?$output_processor@_WV?$string_output_adapter@_W@__crt_stdio_output@@V?$format_validation_base@_WV?$string_output_adapter@_W@__crt_stdio_output@@@2@@__crt_stdio_output@@AEAA_NXZ 000000018004a66c     libucrtd:output.obj
 0002:0001166c       $unwind$?update_field_width@?$standard_base@DV?$string_output_adapter@D@__crt_stdio_output@@@__crt_stdio_output@@IEAA_NXZ 000000018004a66c     libucrtd:output.obj
 0002:0001166c       $unwind$?update_field_width@?$standard_base@_WV?$string_output_adapter@_W@__crt_stdio_output@@@__crt_stdio_output@@IEAA_NXZ 000000018004a66c     libucrtd:output.obj
 0002:0001166c       $unwind$?update_precision@?$standard_base@DV?$string_output_adapter@D@__crt_stdio_output@@@__crt_stdio_output@@IEAA_NXZ 000000018004a66c     libucrtd:output.obj
 0002:0001166c       $unwind$?update_precision@?$standard_base@_WV?$string_output_adapter@_W@__crt_stdio_output@@@__crt_stdio_output@@IEAA_NXZ 000000018004a66c     libucrtd:output.obj
 0002:0001166c       $unwind$?__acrt_stdio_free_stream@@YAXV__crt_stdio_stream@@@Z 000000018004a66c     libucrtd:stream.obj
 0002:0001166c       $unwind$wcslen             000000018004a66c     libucrtd:strnlen.obj
 0002:0001166c       $unwind$fegetenv           000000018004a66c     libucrtd:fegetenv.obj
 0002:0001166c       $unwind$??$__crt_fast_decode_pointer@P6AHPEAU_exception@@@Z@@YAP6AHPEAU_exception@@@ZQ6AH0@Z@Z 000000018004a66c     libucrtd:matherr.obj
 0002:0001166c       $unwind$?value@?$dual_state_global@P6AHPEAU_exception@@@Z@__crt_state_management@@QEAAAEAP6AHPEAU_exception@@@ZXZ 000000018004a66c     libucrtd:matherr.obj
 0002:0001166c       $unwind$__acrt_initialize_user_matherr 000000018004a66c     libucrtd:matherr.obj
 0002:0001166c       $unwind$??3@YAXPEAX@Z      000000018004a66c     LIBCMTD:delete_scalar.obj
 0002:0001166c       $unwind$__raise_securityfailure 000000018004a66c     LIBCMTD:gs_report.obj
 0002:0001166c       $unwind$ReadPointerNoFence 000000018004a66c     LIBCMTD:guard_support.obj
 0002:0001166c       $unwind$_ValidateImageBase 000000018004a66c     LIBCMTD:pesect.obj
 0002:0001166c       $unwind$?is_potentially_valid_image_base@@YA_NQEAX@Z 000000018004a66c     LIBCMTD:utility.obj
 0002:0001166c       $unwind$??0bad_exception@std@@QEAA@XZ 000000018004a66c     libvcruntimed:frame.obj
 0002:0001166c       $unwind$??1bad_exception@std@@UEAA@XZ 000000018004a66c     libvcruntimed:frame.obj
 0002:0001166c       $unwind$??1exception@std@@UEAA@XZ 000000018004a66c     libvcruntimed:frame.obj
 0002:0001166c       $unwind$?__RethrowException@@YAXPEAUEHExceptionRecord@@@Z 000000018004a66c     libvcruntimed:frame.obj
 0002:0001166c       $unwind$__vcrt_EncodePointer 000000018004a66c     libvcruntimed:frame.obj
 0002:0001166c       $unwind$??0scoped_get_last_error_reset@?A0x26810693@@QEAA@XZ 000000018004a66c     libvcruntimed:per_thread_data.obj
 0002:0001166c       $unwind$??1?$__crt_unique_heap_ptr@U__vcrt_ptd@@U__crt_internal_free_policy@@@@QEAA@XZ 000000018004a66c     libvcruntimed:per_thread_data.obj
 0002:0001166c       $unwind$??1scoped_get_last_error_reset@?A0x26810693@@QEAA@XZ 000000018004a66c     libvcruntimed:per_thread_data.obj
 0002:0001166c       $unwind$??B?$__crt_unique_heap_ptr@U__vcrt_ptd@@U__crt_internal_free_policy@@@@QEBA_NXZ 000000018004a66c     libvcruntimed:per_thread_data.obj
 0002:0001166c       $unwind$?store_and_initialize_ptd@@YA_NQEAU__vcrt_ptd@@@Z 000000018004a66c     libvcruntimed:per_thread_data.obj
 0002:0001166c       $unwind$__vcrt_freefls     000000018004a66c     libvcruntimed:per_thread_data.obj
 0002:0001166c       $unwind$_SetImageBase      000000018004a66c     libvcruntimed:risctrnsctrl.obj
 0002:0001166c       $unwind$_SetThrowImageBase 000000018004a66c     libvcruntimed:risctrnsctrl.obj
 0002:0001166c       $unwind$??1?$__crt_unique_heap_ptr@DU__crt_public_free_policy@@@@QEAA@XZ 000000018004a66c     libvcruntimed:std_exception.obj
 0002:0001166c       $unwind$??B?$__crt_unique_heap_ptr@DU__crt_public_free_policy@@@@QEBA_NXZ 000000018004a66c     libvcruntimed:std_exception.obj
 0002:0001166c       $unwind$__std_exception_destroy 000000018004a66c     libvcruntimed:std_exception.obj
 0002:0001166c       $unwind$??1?$__crt_unique_heap_ptr@DU__crt_internal_free_policy@@@@QEAA@XZ 000000018004a66c     libvcruntimed:std_type_info.obj
 0002:0001166c       $unwind$??B?$__crt_unique_heap_ptr@DU__crt_internal_free_policy@@@@QEBA_NXZ 000000018004a66c     libvcruntimed:std_type_info.obj
 0002:0001166c       $unwind$??$__crt_interlocked_read_pointer@UHINSTANCE__@@@@YAPEAUHINSTANCE__@@PEDSEAU0@@Z 000000018004a66c     libvcruntimed:winapi_downlevel.obj
 0002:0001166c       $unwind$??$__crt_interlocked_read_pointer@X@@YAPEAXPEDSEAX@Z 000000018004a66c     libvcruntimed:winapi_downlevel.obj
 0002:00011674       $unwind$__get_entropy      000000018004a674     LIBCMTD:gs_support.obj
 0002:0001167c       $unwind$__dcrt_terminate_console_output 000000018004a67c     libucrtd:initcon.obj
 0002:0001167c       $unwind$??$uninitialize_environment_internal@D@@YAXAEAPEAPEAD@Z 000000018004a67c     libucrtd:environment_initialization.obj
 0002:0001167c       $unwind$??$uninitialize_environment_internal@_W@@YAXAEAPEAPEA_W@Z 000000018004a67c     libucrtd:environment_initialization.obj
 0002:0001167c       $unwind$__dcrt_uninitialize_environments_nolock 000000018004a67c     libucrtd:environment_initialization.obj
 0002:0001167c       $unwind$__acrt_initialize_heap 000000018004a67c     libucrtd:heap_handle.obj
 0002:0001167c       $unwind$_query_new_mode    000000018004a67c     libucrtd:new_mode.obj
 0002:0001167c       $unwind$__acrt_initialize  000000018004a67c     libucrtd:initialization.obj
 0002:0001167c       $unwind$__acrt_thread_attach 000000018004a67c     libucrtd:initialization.obj
 0002:0001167c       $unwind$__acrt_thread_detach 000000018004a67c     libucrtd:initialization.obj
 0002:0001167c       $unwind$initialize_c       000000018004a67c     libucrtd:initialization.obj
 0002:0001167c       $unwind$initialize_global_variables 000000018004a67c     libucrtd:initialization.obj
 0002:0001167c       $unwind$__acrt_getptd_noexit 000000018004a67c     libucrtd:per_thread_data.obj
 0002:0001167c       $unwind$__acrt_initialize_ptd 000000018004a67c     libucrtd:per_thread_data.obj
 0002:0001167c       $unwind$__acrt_get_developer_information_policy 000000018004a67c     libucrtd:win_policies.obj
 0002:0001167c       $unwind$__acrt_get_process_end_policy 000000018004a67c     libucrtd:win_policies.obj
 0002:0001167c       $unwind$__acrt_get_windowing_model_policy 000000018004a67c     libucrtd:win_policies.obj
 0002:0001167c       $unwind$?try_get_AppPolicyGetProcessTerminationMethod@@YAP6AJPEAXPEAW4AppPolicyProcessTerminationMethod@@@ZXZ 000000018004a67c     libucrtd:winapi_thunks.obj
 0002:0001167c       $unwind$?try_get_AppPolicyGetShowDeveloperDiagnostic@@YAP6AJPEAXPEAW4AppPolicyShowDeveloperDiagnostic@@@ZXZ 000000018004a67c     libucrtd:winapi_thunks.obj
 0002:0001167c       $unwind$?try_get_AppPolicyGetWindowingModel@@YAP6AJPEAXPEAW4AppPolicyWindowingModel@@@ZXZ 000000018004a67c     libucrtd:winapi_thunks.obj
 0002:0001167c       $unwind$?try_get_AreFileApisANSI@@YAP6AHXZXZ 000000018004a67c     libucrtd:winapi_thunks.obj
 0002:0001167c       $unwind$?try_get_FlsAlloc@@YAP6AKP6AXPEAX@Z@ZXZ 000000018004a67c     libucrtd:winapi_thunks.obj
 0002:0001167c       $unwind$?try_get_FlsFree@@YAP6AHK@ZXZ 000000018004a67c     libucrtd:winapi_thunks.obj
 0002:0001167c       $unwind$?try_get_FlsGetValue@@YAP6APEAXK@ZXZ 000000018004a67c     libucrtd:winapi_thunks.obj
 0002:0001167c       $unwind$?try_get_FlsSetValue@@YAP6AHKPEAX@ZXZ 000000018004a67c     libucrtd:winapi_thunks.obj
 0002:0001167c       $unwind$?try_get_GetActiveWindow@@YAP6APEAUHWND__@@XZXZ 000000018004a67c     libucrtd:winapi_thunks.obj
 0002:0001167c       $unwind$?try_get_GetLastActivePopup@@YAP6APEAUHWND__@@PEAU1@@ZXZ 000000018004a67c     libucrtd:winapi_thunks.obj
 0002:0001167c       $unwind$?try_get_GetProcessWindowStation@@YAP6APEAUHWINSTA__@@XZXZ 000000018004a67c     libucrtd:winapi_thunks.obj
 0002:0001167c       $unwind$?try_get_GetUserObjectInformationW@@YAP6AHPEAXH0KPEAK@ZXZ 000000018004a67c     libucrtd:winapi_thunks.obj
 0002:0001167c       $unwind$?try_get_InitializeCriticalSectionEx@@YAP6AHPEAU_RTL_CRITICAL_SECTION@@KK@ZXZ 000000018004a67c     libucrtd:winapi_thunks.obj
 0002:0001167c       $unwind$?try_get_LCMapStringEx@@YAP6AHPEB_WK0HPEA_WHPEAU_nlsversioninfo@@PEAX_J@ZXZ 000000018004a67c     libucrtd:winapi_thunks.obj
 0002:0001167c       $unwind$?try_get_LocaleNameToLCID@@YAP6AKPEB_WK@ZXZ 000000018004a67c     libucrtd:winapi_thunks.obj
 0002:0001167c       $unwind$?try_get_MessageBoxA@@YAP6AHPEAUHWND__@@PEBD1I@ZXZ 000000018004a67c     libucrtd:winapi_thunks.obj
 0002:0001167c       $unwind$?try_get_MessageBoxW@@YAP6AHPEAUHWND__@@PEB_W1I@ZXZ 000000018004a67c     libucrtd:winapi_thunks.obj
 0002:0001167c       $unwind$__fpecode          000000018004a67c     libucrtd:signal.obj
 0002:0001167c       $unwind$__acrt_initialize_command_line 000000018004a67c     libucrtd:argv_data.obj
 0002:0001167c       $unwind$_cexit             000000018004a67c     libucrtd:exit.obj
 0002:0001167c       $unwind$_is_c_termination_complete 000000018004a67c     libucrtd:exit.obj
 0002:0001167c       $unwind$_flushall          000000018004a67c     libucrtd:fflush.obj
 0002:0001167c       $unwind$fegetround         000000018004a67c     libucrtd:fegetround.obj
 0002:0001167c       $unwind$__report_rangecheckfailure 000000018004a67c     LIBCMTD:gs_report.obj
 0002:0001167c       $unwind$?__scrt_initialize_type_info@@YAXXZ 000000018004a67c     LIBCMTD:tncleanup.obj
 0002:0001167c       $unwind$?__scrt_uninitialize_type_info@@YAXXZ 000000018004a67c     LIBCMTD:tncleanup.obj
 0002:0001167c       $unwind$?configure_argv@__scrt_narrow_argv_policy@@SAHXZ 000000018004a67c     LIBCMTD:utility.obj
 0002:0001167c       $unwind$?initialize_environment@__scrt_narrow_environment_policy@@SAHXZ 000000018004a67c     LIBCMTD:utility.obj
 0002:0001167c       $unwind$__scrt_dllmain_after_initialize_c 000000018004a67c     LIBCMTD:utility.obj
 0002:0001167c       $unwind$__scrt_dllmain_before_initialize_c 000000018004a67c     LIBCMTD:utility.obj
 0002:0001167c       $unwind$__scrt_dllmain_crt_thread_attach 000000018004a67c     LIBCMTD:utility.obj
 0002:0001167c       $unwind$__scrt_dllmain_crt_thread_detach 000000018004a67c     LIBCMTD:utility.obj
 0002:0001167c       $unwind$__scrt_dllmain_uninitialize_c 000000018004a67c     LIBCMTD:utility.obj
 0002:0001167c       $unwind$__scrt_dllmain_uninitialize_critical 000000018004a67c     LIBCMTD:utility.obj
 0002:0001167c       $unwind$__vcrt_initialize  000000018004a67c     libvcruntimed:initialization.obj
 0002:0001167c       $unwind$__vcrt_thread_attach 000000018004a67c     libvcruntimed:initialization.obj
 0002:0001167c       $unwind$__vcrt_thread_detach 000000018004a67c     libvcruntimed:initialization.obj
 0002:0001167c       $unwind$__vcrt_uninitialize_critical 000000018004a67c     libvcruntimed:initialization.obj
 0002:0001167c       $unwind$__vcrt_initialize_ptd 000000018004a67c     libvcruntimed:per_thread_data.obj
 0002:0001167c       $unwind$__vcrt_uninitialize_ptd 000000018004a67c     libvcruntimed:per_thread_data.obj
 0002:0001167c       $unwind$_GetImageBase      000000018004a67c     libvcruntimed:risctrnsctrl.obj
 0002:0001167c       $unwind$_GetThrowImageBase 000000018004a67c     libvcruntimed:risctrnsctrl.obj
 0002:0001167c       $unwind$?try_get_FlsAlloc@@YAP6AKP6AXPEAX@Z@ZXZ 000000018004a67c     libvcruntimed:winapi_downlevel.obj
 0002:0001167c       $unwind$?try_get_FlsFree@@YAP6AHK@ZXZ 000000018004a67c     libvcruntimed:winapi_downlevel.obj
 0002:0001167c       $unwind$?try_get_FlsGetValue@@YAP6APEAXK@ZXZ 000000018004a67c     libvcruntimed:winapi_downlevel.obj
 0002:0001167c       $unwind$?try_get_FlsSetValue@@YAP6AHKPEAX@ZXZ 000000018004a67c     libvcruntimed:winapi_downlevel.obj
 0002:0001167c       $unwind$?try_get_InitializeCriticalSectionEx@@YAP6AHPEAU_RTL_CRITICAL_SECTION@@KK@ZXZ 000000018004a67c     libvcruntimed:winapi_downlevel.obj
 0002:00011684       $unwind$__scrt_is_nonwritable_in_current_image 000000018004a684     LIBCMTD:utility.obj
 0002:000116a4       $unwind$?internal_getptd_noexit@@YAPEAU__acrt_ptd@@XZ 000000018004a6a4     libucrtd:per_thread_data.obj
 0002:000116a4       $unwind$?initialize_stdio_handles_nolock@@YAXXZ 000000018004a6a4     libucrtd:ioinit.obj
 0002:000116a4       $unwind$__scrt_acquire_startup_lock 000000018004a6a4     LIBCMTD:utility.obj
 0002:000116ac       $unwind$__ascii_towupper   000000018004a6ac     libucrtd:atox.obj
 0002:000116ac       $unwind$__acrt_uninitialize 000000018004a6ac     libucrtd:initialization.obj
 0002:000116ac       $unwind$__acrt_uninitialize_critical 000000018004a6ac     libucrtd:initialization.obj
 0002:000116ac       $unwind$report_memory_leaks 000000018004a6ac     libucrtd:initialization.obj
 0002:000116ac       $unwind$uninitialize_allocated_io_buffers 000000018004a6ac     libucrtd:initialization.obj
 0002:000116ac       $unwind$uninitialize_environment 000000018004a6ac     libucrtd:initialization.obj
 0002:000116ac       $unwind$uninitialize_vcruntime 000000018004a6ac     libucrtd:initialization.obj
 0002:000116ac       $unwind$__acrt_lock        000000018004a6ac     libucrtd:locks.obj
 0002:000116ac       $unwind$__acrt_unlock      000000018004a6ac     libucrtd:locks.obj
 0002:000116ac       $unwind$__acrt_uninitialize_ptd 000000018004a6ac     libucrtd:per_thread_data.obj
 0002:000116ac       $unwind$__ascii_towlower   000000018004a6ac     libucrtd:wsetlocale.obj
 0002:000116ac       $unwind$__acrt_lowio_lock_fh 000000018004a6ac     libucrtd:osfinfo.obj
 0002:000116ac       $unwind$__acrt_lowio_unlock_fh 000000018004a6ac     libucrtd:osfinfo.obj
 0002:000116ac       $unwind$?do_locale_initialization@@YAXD@Z 000000018004a6ac     libucrtd:argv_parsing.obj
 0002:000116ac       $unwind$_configure_narrow_argv 000000018004a6ac     libucrtd:argv_parsing.obj
 0002:000116ac       $unwind$?exit_or_terminate_process@@YAXI@Z 000000018004a6ac     libucrtd:exit.obj
 0002:000116ac       $unwind$_exit              000000018004a6ac     libucrtd:exit.obj
 0002:000116ac       $unwind$?is_stream_flushable_or_commitable@@YA_NJ@Z 000000018004a6ac     libucrtd:fflush.obj
 0002:000116ac       $unwind$??$to_abstract_status@W4__acrt_fenv_machine_sse_status@@@@YA?AW4__acrt_fenv_abstract_status@@W4__acrt_fenv_machine_sse_status@@@Z 000000018004a6ac     libucrtd:_fenvutils.obj
 0002:000116ac       $unwind$?__acrt_fenv_shift_abstract_sse_status@@YA?AW4__acrt_fenv_abstract_status@@W41@@Z 000000018004a6ac     libucrtd:_fenvutils.obj
 0002:000116ac       $unwind$?__acrt_fenv_unshift_abstract_sse_status@@YA?AW4__acrt_fenv_abstract_status@@W41@@Z 000000018004a6ac     libucrtd:_fenvutils.obj
 0002:000116ac       $unwind$?to_machine_sse_status@@YA?AW4__acrt_fenv_machine_sse_status@@W4__acrt_fenv_abstract_status@@@Z 000000018004a6ac     libucrtd:_fenvutils.obj
 0002:000116ac       $unwind$__acrt_fenv_get_common_round_control 000000018004a6ac     libucrtd:_fenvutils.obj
 0002:000116ac       $unwind$__acrt_fenv_set_control 000000018004a6ac     libucrtd:_fenvutils.obj
 0002:000116ac       $unwind$__acrt_fenv_set_status 000000018004a6ac     libucrtd:_fenvutils.obj
 0002:000116ac       $unwind$__report_securityfailure 000000018004a6ac     LIBCMTD:gs_report.obj
 0002:000116ac       $unwind$__scrt_initialize_crt 000000018004a6ac     LIBCMTD:utility.obj
 0002:000116ac       $unwind$__scrt_release_startup_lock 000000018004a6ac     LIBCMTD:utility.obj
 0002:000116ac       $unwind$__vcrt_uninitialize 000000018004a6ac     libvcruntimed:initialization.obj
 0002:000116b4       $unwind$??$is_overflow_condition@K@__crt_strtox@@YA_NIK@Z 000000018004a6b4     libucrtd:atox.obj
 0002:000116b4       $unwind$_control87         000000018004a6b4     libucrtd:ieee.obj
 0002:000116b4       $unwind$__scrt_uninitialize_crt 000000018004a6b4     LIBCMTD:utility.obj
 0002:000116bc       $unwind$__scrt_initialize_onexit_tables 000000018004a6bc     LIBCMTD:utility.obj
 0002:000116c8       $unwind$__acrt_MessageWindowA 000000018004a6c8     libucrtd:dbgrpt.obj
 0002:000116c8       $unwind$__acrt_MessageWindowW 000000018004a6c8     libucrtd:dbgrpt.obj
 0002:000116c8       $unwind$_invoke_watson_if_error 000000018004a6c8     libucrtd:dbgrpt.obj
 0002:000116c8       $unwind$??R<lambda_7c9dea7b4ca7285d2cdb541a38da6275>@@QEBAHIQEBDQEA_W_K@Z 000000018004a6c8     libucrtd:argv_wildcards.obj
 0002:000116c8       $unwind$??$write_multiple_characters@V?$string_output_adapter@D@__crt_stdio_output@@D@__crt_stdio_output@@YAXAEBV?$string_output_adapter@D@0@DHQEAH@Z 000000018004a6c8     libucrtd:output.obj
 0002:000116c8       $unwind$??$write_multiple_characters@V?$string_output_adapter@_W@__crt_stdio_output@@D@__crt_stdio_output@@YAXAEBV?$string_output_adapter@_W@0@DHQEAH@Z 000000018004a6c8     libucrtd:output.obj
 0002:000116c8       $unwind$__scrt_dllmain_exception_filter 000000018004a6c8     LIBCMTD:utility.obj
 0002:000116d0       $unwind$__scrt_fastfail    000000018004a6d0     LIBCMTD:utility_desktop.obj
 0002:000116dc       $unwind$??$common_initialize_environment_nolock@D@@YAHXZ 000000018004a6dc     libucrtd:environment_initialization.obj
 0002:000116dc       $unwind$_RTC_Initialize    000000018004a6dc     LIBCMTD:initsect.obj
 0002:000116dc       $unwind$_RTC_Terminate     000000018004a6dc     LIBCMTD:initsect.obj
 0002:000116e8       $unwind$?parse_digit@__crt_strtox@@YAI_W@Z 000000018004a6e8     libucrtd:atox.obj
 0002:000116e8       $unwind$?is_block_an_aligned_allocation@@YA_NQEBX@Z 000000018004a6e8     libucrtd:debug_heap.obj
 0002:000116e8       $unwind$free               000000018004a6e8     libucrtd:free.obj
 0002:000116e8       $unwind$_free_base         000000018004a6e8     libucrtd:free_base.obj
 0002:000116e8       $unwind$_callnewh          000000018004a6e8     libucrtd:new_handler.obj
 0002:000116e8       $unwind$??R<lambda_e157831efee4ea0afb0a2ace5dd5fd0d>@@QEBAXXZ 000000018004a6e8     libucrtd:per_thread_data.obj
 0002:000116e8       $unwind$?construct_ptd_array@@YAXQEAU__acrt_ptd@@@Z 000000018004a6e8     libucrtd:per_thread_data.obj
 0002:000116e8       $unwind$?destroy_ptd@@YAXQEAU__acrt_ptd@@@Z 000000018004a6e8     libucrtd:per_thread_data.obj
 0002:000116e8       $unwind$?destroy_ptd_array@@YAXQEAU__acrt_ptd@@@Z 000000018004a6e8     libucrtd:per_thread_data.obj
 0002:000116e8       $unwind$?release@?$__crt_unique_heap_ptr@U__acrt_ptd@@U__crt_internal_free_policy@@@@QEAAXXZ 000000018004a6e8     libucrtd:per_thread_data.obj
 0002:000116e8       $unwind$?try_load_library_from_system_directory@@YAPEAUHINSTANCE__@@QEB_W@Z 000000018004a6e8     libucrtd:winapi_thunks.obj
 0002:000116e8       $unwind$__acrt_AppPolicyGetProcessTerminationMethodInternal 000000018004a6e8     libucrtd:winapi_thunks.obj
 0002:000116e8       $unwind$__acrt_AppPolicyGetShowDeveloperDiagnosticInternal 000000018004a6e8     libucrtd:winapi_thunks.obj
 0002:000116e8       $unwind$__acrt_AppPolicyGetWindowingModelInternal 000000018004a6e8     libucrtd:winapi_thunks.obj
 0002:000116e8       $unwind$__acrt_FlsAlloc    000000018004a6e8     libucrtd:winapi_thunks.obj
 0002:000116e8       $unwind$__acrt_DownlevelLocaleNameToLCID 000000018004a6e8     libucrtd:lcidtoname_downlevel.obj
 0002:000116e8       $unwind$__acrt_add_locale_ref 000000018004a6e8     libucrtd:locale_refcounting.obj
 0002:000116e8       $unwind$__acrt_release_locale_ref 000000018004a6e8     libucrtd:locale_refcounting.obj
 0002:000116e8       $unwind$??R<lambda_4e7105787b7b0e0227fbf2b2d883fa65>@@QEBAHXZ 000000018004a6e8     libucrtd:close.obj
 0002:000116e8       $unwind$?release@?$__crt_unique_heap_ptr@U__crt_lowio_handle_data@@U__crt_internal_free_policy@@@@QEAAXXZ 000000018004a6e8     libucrtd:osfinfo.obj
 0002:000116e8       $unwind$??R<lambda_bd5a608237428601b7e45fbdc72b1ae8>@@QEBAXXZ 000000018004a6e8     libucrtd:mbctype.obj
 0002:000116e8       $unwind$?release@?$__crt_unique_heap_ptr@U__crt_multibyte_data@@U__crt_internal_free_policy@@@@QEAAXXZ 000000018004a6e8     libucrtd:mbctype.obj
 0002:000116e8       $unwind$__acrt_initialize_invalid_parameter_handler 000000018004a6e8     libucrtd:invalid_parameter.obj
 0002:000116e8       $unwind$??R<lambda_df1553121bfa390f1154bd84936f2730>@@QEBAHXZ 000000018004a6e8     libucrtd:argv_parsing.obj
 0002:000116e8       $unwind$?release@?$__crt_unique_heap_ptr@EU__crt_internal_free_policy@@@@QEAAXXZ 000000018004a6e8     libucrtd:argv_parsing.obj
 0002:000116e8       $unwind$?release@?$__crt_unique_heap_ptr@PEADU__crt_internal_free_policy@@@@QEAAXXZ 000000018004a6e8     libucrtd:argv_parsing.obj
 0002:000116e8       $unwind$??1?$argument_list@D@?A0x5f5c8891@@QEAA@XZ 000000018004a6e8     libucrtd:argv_wildcards.obj
 0002:000116e8       $unwind$?close@__crt_findfile_traits@@SA_NPEAX@Z 000000018004a6e8     libucrtd:argv_wildcards.obj
 0002:000116e8       $unwind$?close@__crt_hmodule_traits@@SA_NPEAUHINSTANCE__@@@Z 000000018004a6e8     libucrtd:exit.obj
 0002:000116e8       $unwind$_execute_onexit_table 000000018004a6e8     libucrtd:onexit.obj
 0002:000116e8       $unwind$_initialize_onexit_table 000000018004a6e8     libucrtd:onexit.obj
 0002:000116e8       $unwind$?release@?$__crt_unique_heap_ptr@PEAU__crt_stdio_stream_data@@U__crt_internal_free_policy@@@@QEAAXXZ 000000018004a6e8     libucrtd:_file.obj
 0002:000116e8       $unwind$_lock_file         000000018004a6e8     libucrtd:_file.obj
 0002:000116e8       $unwind$_unlock_file       000000018004a6e8     libucrtd:_file.obj
 0002:000116e8       $unwind$?is_in_use@__crt_stdio_stream@@QEBA_NXZ 000000018004a6e8     libucrtd:closeall.obj
 0002:000116e8       $unwind$?__acrt_stdio_reset_buffer@@YAXV__crt_stdio_stream@@@Z 000000018004a6e8     libucrtd:fflush.obj
 0002:000116e8       $unwind$_fflush_nolock     000000018004a6e8     libucrtd:fflush.obj
 0002:000116e8       $unwind$??$scratch_data@D@formatting_buffer@__crt_stdio_output@@QEAAPEADXZ 000000018004a6e8     libucrtd:output.obj
 0002:000116e8       $unwind$?is_string_backed@__crt_stdio_stream@@QEBA_NXZ 000000018004a6e8     libucrtd:output.obj
 0002:000116e8       $unwind$?state_case_flag@?$output_processor@DV?$string_output_adapter@D@__crt_stdio_output@@V?$format_validation_base@DV?$string_output_adapter@D@__crt_stdio_output@@@2@@__crt_stdio_output@@AEAA_NXZ 000000018004a6e8     libucrtd:output.obj
 0002:000116e8       $unwind$?state_case_flag@?$output_processor@_WV?$string_output_adapter@_W@__crt_stdio_output@@V?$format_validation_base@_WV?$string_output_adapter@_W@__crt_stdio_output@@@2@@__crt_stdio_output@@AEAA_NXZ 000000018004a6e8     libucrtd:output.obj
 0002:000116e8       $unwind$?type_case_Z@?$output_processor@DV?$string_output_adapter@D@__crt_stdio_output@@V?$format_validation_base@DV?$string_output_adapter@D@__crt_stdio_output@@@2@@__crt_stdio_output@@AEAA_NXZ 000000018004a6e8     libucrtd:output.obj
 0002:000116e8       $unwind$?type_case_Z@?$output_processor@_WV?$string_output_adapter@_W@__crt_stdio_output@@V?$format_validation_base@_WV?$string_output_adapter@_W@__crt_stdio_output@@@2@@__crt_stdio_output@@AEAA_NXZ 000000018004a6e8     libucrtd:output.obj
 0002:000116e8       $unwind$?type_case_s@?$output_processor@DV?$string_output_adapter@D@__crt_stdio_output@@V?$format_validation_base@DV?$string_output_adapter@D@__crt_stdio_output@@@2@@__crt_stdio_output@@AEAA_NXZ 000000018004a6e8     libucrtd:output.obj
 0002:000116e8       $unwind$?type_case_s@?$output_processor@_WV?$string_output_adapter@_W@__crt_stdio_output@@V?$format_validation_base@_WV?$string_output_adapter@_W@__crt_stdio_output@@@2@@__crt_stdio_output@@AEAA_NXZ 000000018004a6e8     libucrtd:output.obj
 0002:000116e8       $unwind$_set_statfp        000000018004a6e8     libucrtd:fpctrl.obj
 0002:000116e8       $unwind$??$translate_control_exception_mask@W4__acrt_fenv_abstract_control@@W4__acrt_fenv_machine_sse_control@@@@YA?AW4__acrt_fenv_abstract_control@@W4__acrt_fenv_machine_sse_control@@@Z 000000018004a6e8     libucrtd:_fenvutils.obj
 0002:000116e8       $unwind$??$translate_control_rounding_control@W4__acrt_fenv_abstract_control@@W4__acrt_fenv_machine_sse_control@@@@YA?AW4__acrt_fenv_abstract_control@@W4__acrt_fenv_machine_sse_control@@@Z 000000018004a6e8     libucrtd:_fenvutils.obj
 0002:000116e8       $unwind$?set_machine_sse_control@@YAXW4__acrt_fenv_machine_sse_control@@@Z 000000018004a6e8     libucrtd:_fenvutils.obj
 0002:000116e8       $unwind$?to_abstract_control@@YA?AW4__acrt_fenv_abstract_control@@W4__acrt_fenv_machine_sse_control@@@Z 000000018004a6e8     libucrtd:_fenvutils.obj
 0002:000116e8       $unwind$?translate_control_denormal_control_from_sse@@YA?AW4__acrt_fenv_abstract_control@@W4__acrt_fenv_machine_sse_control@@@Z 000000018004a6e8     libucrtd:_fenvutils.obj
 0002:000116e8       $unwind$feholdexcept       000000018004a6e8     libucrtd:feholdexcept.obj
 0002:000116e8       $unwind$__acrt_invoke_user_matherr 000000018004a6e8     libucrtd:matherr.obj
 0002:000116e8       $unwind$__report_gsfailure 000000018004a6e8     LIBCMTD:gs_report.obj
 0002:000116e8       $unwind$_IsExceptionObjectToBeDestroyed 000000018004a6e8     libvcruntimed:ehhelpers.obj
 0002:000116e8       $unwind$?getESTypes@__FrameHandler3@@SAPEBU_s_ESTypeList@@PEBU_s_FuncInfo@@@Z 000000018004a6e8     libvcruntimed:frame.obj
 0002:000116e8       $unwind$__except_validate_context_record 000000018004a6e8     libvcruntimed:jbcxrval.obj
 0002:000116e8       $unwind$?release@?$__crt_unique_heap_ptr@U__vcrt_ptd@@U__crt_internal_free_policy@@@@QEAAXXZ 000000018004a6e8     libvcruntimed:per_thread_data.obj
 0002:000116e8       $unwind$__vcrt_freeptd     000000018004a6e8     libvcruntimed:per_thread_data.obj
 0002:000116e8       $unwind$_FindAndUnlinkFrame 000000018004a6e8     libvcruntimed:risctrnsctrl.obj
 0002:000116e8       $unwind$?release@?$__crt_unique_heap_ptr@DU__crt_public_free_policy@@@@QEAAXXZ 000000018004a6e8     libvcruntimed:std_exception.obj
 0002:000116e8       $unwind$?release@?$__crt_unique_heap_ptr@DU__crt_internal_free_policy@@@@QEAAXXZ 000000018004a6e8     libvcruntimed:std_type_info.obj
 0002:000116e8       $unwind$__std_type_info_destroy_list 000000018004a6e8     libvcruntimed:std_type_info.obj
 0002:000116e8       $unwind$?try_load_library_from_system_directory@@YAPEAUHINSTANCE__@@QEB_W@Z 000000018004a6e8     libvcruntimed:winapi_downlevel.obj
 0002:000116f0       $unwind$?capture_current_context@@YAXQEAU_CONTEXT@@@Z 000000018004a6f0     libucrtd:invalid_parameter.obj
 0002:000116f0       $unwind$capture_current_context 000000018004a6f0     LIBCMTD:gs_report.obj
 0002:000116f0       $unwind$capture_previous_context 000000018004a6f0     LIBCMTD:gs_report.obj
 0002:000116f8       $xdatasym                  000000018004a6f8     LIBCMTD:guard_dispatch.obj
 0002:00011700       $xdatasym                  000000018004a700     LIBCMTD:guard_xfg_dispatch.obj
 0002:00011704       $unwind$__isa_available_init 000000018004a704     LIBCMTD:cpu_disp.obj
 0002:00011714       $unwind$__acrt_locale_changed 000000018004a714     libucrtd:debug_heap.obj
 0002:00011714       $unwind$_get_printf_count_output 000000018004a714     libucrtd:printf_count_output.obj
 0002:00011714       $unwind$?get_zero_pack@?$__crt_simd_pack_traits@$0A@@@SA?AT__m128i@@XZ 000000018004a714     libucrtd:strnlen.obj
 0002:00011714       $unwind$__scrt_is_ucrt_dll_in_use 000000018004a714     LIBCMTD:ucrt_detection.obj
 0002:0001171c       $unwind$??$parse_integer@KV?$c_string_character_source@D@__crt_strtox@@@__crt_strtox@@YAKQEAU__crt_locale_pointers@@V?$c_string_character_source@D@0@H_N@Z 000000018004a71c     libucrtd:atox.obj
 0002:0001171c       $unwind$??$parse_integer@KV?$c_string_character_source@_W@__crt_strtox@@@__crt_strtox@@YAKQEAU__crt_locale_pointers@@V?$c_string_character_source@_W@0@H_N@Z 000000018004a71c     libucrtd:atox.obj
 0002:0001171c       $unwind$?fp_format_e@@YAHQEBNQEAD_K12H_NIQEAU__crt_locale_pointers@@W4__acrt_rounding_mode@@@Z 000000018004a71c     libucrtd:cvt.obj
 0002:0001171c       $unwind$_wcstombs_s_l      000000018004a71c     libucrtd:wcstombs.obj
 0002:0001171c       $unwind$??$__InternalCxxFrameHandler@V__FrameHandler3@@@@YA?AW4_EXCEPTION_DISPOSITION@@PEAUEHExceptionRecord@@PEA_KPEAU_CONTEXT@@PEAU_xDISPATCHER_CONTEXT@@PEBU_s_FuncInfo@@H1E@Z 000000018004a71c     libvcruntimed:frame.obj
 0002:0001171c       $unwind$__C_specific_handler 000000018004a71c     libvcruntimed:riscchandler.obj
 0002:00011724       $unwind$??R<lambda_af27fe6ede5d83bbdbd622796c194e9c>@@QEBAXAEAPEAU__crt_multibyte_data@@@Z 000000018004a724     libucrtd:initialization.obj
 0002:00011724       $unwind$??$?RU__acrt_ptd@@@__crt_internal_free_policy@@QEBAXQEBU__acrt_ptd@@@Z 000000018004a724     libucrtd:per_thread_data.obj
 0002:00011724       $unwind$?replace_current_thread_locale_nolock@@YAXQEAU__acrt_ptd@@QEAU__crt_locale_data@@@Z 000000018004a724     libucrtd:per_thread_data.obj
 0002:00011724       $unwind$__acrt_update_locale_info 000000018004a724     libucrtd:locale_update.obj
 0002:00011724       $unwind$__acrt_update_multibyte_info 000000018004a724     libucrtd:locale_update.obj
 0002:00011724       $unwind$??R<lambda_363eea9039da1e8169e2d060c7fe5cbc>@@QEBAXAEAPEAU__crt_locale_data@@@Z 000000018004a724     libucrtd:wsetlocale.obj
 0002:00011724       $unwind$??$?RU__crt_lowio_handle_data@@@__crt_internal_free_policy@@QEBAXQEBU__crt_lowio_handle_data@@@Z 000000018004a724     libucrtd:osfinfo.obj
 0002:00011724       $unwind$??$?RU__crt_multibyte_data@@@__crt_internal_free_policy@@QEBAXQEBU__crt_multibyte_data@@@Z 000000018004a724     libucrtd:mbctype.obj
 0002:00011724       $unwind$??$?RE@__crt_internal_free_policy@@QEBAXQEBE@Z 000000018004a724     libucrtd:argv_parsing.obj
 0002:00011724       $unwind$??$?RPEAD@__crt_internal_free_policy@@QEBAXQEBQEAD@Z 000000018004a724     libucrtd:argv_parsing.obj
 0002:00011724       $unwind$?expand_argv_wildcards@@YAHQEAPEADQEAPEAPEAD@Z 000000018004a724     libucrtd:argv_parsing.obj
 0002:00011724       $unwind$?<lambda_invoker_cdecl>@<lambda_a1ce4c8ae42411fd470c77163914f50e>@@CAHPEBX0@Z 000000018004a724     libucrtd:argv_wildcards.obj
 0002:00011724       $unwind$??$tcspbrk@AEAPEADAEAY02$$CBD@?$__crt_char_traits@D@@SAPEADAEAPEADAEAY02$$CBD@Z 000000018004a724     libucrtd:argv_wildcards.obj
 0002:00011724       $unwind$?deallocate@__crt_win32_buffer_internal_dynamic_resizing@@SAXQEAXAEBV__crt_win32_buffer_empty_debug_info@@@Z 000000018004a724     libucrtd:argv_wildcards.obj
 0002:00011724       $unwind$?previous_character@@YAPEADQEAD0@Z 000000018004a724     libucrtd:argv_wildcards.obj
 0002:00011724       $unwind$?strpbrk@@YAPEADQEADQEBD@Z 000000018004a724     libucrtd:argv_wildcards.obj
 0002:00011724       $unwind$__acrt_expand_narrow_argv_wildcards 000000018004a724     libucrtd:argv_wildcards.obj
 0002:00011724       $unwind$??$__crt_get_proc_address@P6AXI@Z@@YAP6AXI@ZQEAUHINSTANCE__@@QEBD@Z 000000018004a724     libucrtd:exit.obj
 0002:00011724       $unwind$??$?RPEAU__crt_stdio_stream_data@@@__crt_internal_free_policy@@QEBAXQEBQEAU__crt_stdio_stream_data@@@Z 000000018004a724     libucrtd:_file.obj
 0002:00011724       $unwind$??$extract_argument_from_va_list@C_J@?$standard_base@DV?$string_output_adapter@D@__crt_stdio_output@@@__crt_stdio_output@@IEAA_NAEA_J@Z 000000018004a724     libucrtd:output.obj
 0002:00011724       $unwind$??$extract_argument_from_va_list@C_J@?$standard_base@_WV?$string_output_adapter@_W@__crt_stdio_output@@@__crt_stdio_output@@IEAA_NAEA_J@Z 000000018004a724     libucrtd:output.obj
 0002:00011724       $unwind$??$extract_argument_from_va_list@E_J@?$standard_base@DV?$string_output_adapter@D@__crt_stdio_output@@@__crt_stdio_output@@IEAA_NAEA_J@Z 000000018004a724     libucrtd:output.obj
 0002:00011724       $unwind$??$extract_argument_from_va_list@E_J@?$standard_base@_WV?$string_output_adapter@_W@__crt_stdio_output@@@__crt_stdio_output@@IEAA_NAEA_J@Z 000000018004a724     libucrtd:output.obj
 0002:00011724       $unwind$??$extract_argument_from_va_list@F_J@?$standard_base@DV?$string_output_adapter@D@__crt_stdio_output@@@__crt_stdio_output@@IEAA_NAEA_J@Z 000000018004a724     libucrtd:output.obj
 0002:00011724       $unwind$??$extract_argument_from_va_list@F_J@?$standard_base@_WV?$string_output_adapter@_W@__crt_stdio_output@@@__crt_stdio_output@@IEAA_NAEA_J@Z 000000018004a724     libucrtd:output.obj
 0002:00011724       $unwind$??$extract_argument_from_va_list@GD@?$standard_base@DV?$string_output_adapter@D@__crt_stdio_output@@@__crt_stdio_output@@IEAA_NAEAD@Z 000000018004a724     libucrtd:output.obj
 0002:00011724       $unwind$??$extract_argument_from_va_list@G_J@?$standard_base@DV?$string_output_adapter@D@__crt_stdio_output@@@__crt_stdio_output@@IEAA_NAEA_J@Z 000000018004a724     libucrtd:output.obj
 0002:00011724       $unwind$??$extract_argument_from_va_list@G_J@?$standard_base@_WV?$string_output_adapter@_W@__crt_stdio_output@@@__crt_stdio_output@@IEAA_NAEA_J@Z 000000018004a724     libucrtd:output.obj
 0002:00011724       $unwind$??$extract_argument_from_va_list@H_J@?$standard_base@DV?$string_output_adapter@D@__crt_stdio_output@@@__crt_stdio_output@@IEAA_NAEA_J@Z 000000018004a724     libucrtd:output.obj
 0002:00011724       $unwind$??$extract_argument_from_va_list@H_J@?$standard_base@_WV?$string_output_adapter@_W@__crt_stdio_output@@@__crt_stdio_output@@IEAA_NAEA_J@Z 000000018004a724     libucrtd:output.obj
 0002:00011724       $unwind$??$extract_argument_from_va_list@I_J@?$standard_base@DV?$string_output_adapter@D@__crt_stdio_output@@@__crt_stdio_output@@IEAA_NAEA_J@Z 000000018004a724     libucrtd:output.obj
 0002:00011724       $unwind$??$extract_argument_from_va_list@I_J@?$standard_base@_WV?$string_output_adapter@_W@__crt_stdio_output@@@__crt_stdio_output@@IEAA_NAEA_J@Z 000000018004a724     libucrtd:output.obj
 0002:00011724       $unwind$??$extract_argument_from_va_list@PEADPEAD@?$standard_base@DV?$string_output_adapter@D@__crt_stdio_output@@@__crt_stdio_output@@IEAA_NAEAPEAD@Z 000000018004a724     libucrtd:output.obj
 0002:00011724       $unwind$??$extract_argument_from_va_list@PEADPEAD@?$standard_base@_WV?$string_output_adapter@_W@__crt_stdio_output@@@__crt_stdio_output@@IEAA_NAEAPEAD@Z 000000018004a724     libucrtd:output.obj
 0002:00011724       $unwind$??$extract_argument_from_va_list@PEAUansi_string@?1??type_case_Z@?$output_processor@DV?$string_output_adapter@D@__crt_stdio_output@@V?$format_validation_base@DV?$string_output_adapter@D@__crt_stdio_output@@@2@@__crt_stdio_output@@AEAA_NXZ@PEAU1?1??234@AEAA_NXZ@@?$standard_base@DV?$string_output_adapter@D@__crt_stdio_output@@@__crt_stdio_output@@IEAA_NAEAPEAUansi_string@?1??type_case_Z@?$output_processor@DV?$string_output_adapter@D@__crt_stdio_output@@V?$format_validation_base@DV?$string_output_adapter@D@__crt_stdio_output@@@2@@1@AEAA_NXZ@@Z 000000018004a724     libucrtd:output.obj
 0002:00011724       $unwind$??$extract_argument_from_va_list@PEAUansi_string@?1??type_case_Z@?$output_processor@_WV?$string_output_adapter@_W@__crt_stdio_output@@V?$format_validation_base@_WV?$string_output_adapter@_W@__crt_stdio_output@@@2@@__crt_stdio_output@@AEAA_NXZ@PEAU1?1??234@AEAA_NXZ@@?$standard_base@_WV?$string_output_adapter@_W@__crt_stdio_output@@@__crt_stdio_output@@IEAA_NAEAPEAUansi_string@?1??type_case_Z@?$output_processor@_WV?$string_output_adapter@_W@__crt_stdio_output@@V?$format_validation_base@_WV?$string_output_adapter@_W@__crt_stdio_output@@@2@@1@AEAA_NXZ@@Z 000000018004a724     libucrtd:output.obj
 0002:00011724       $unwind$??$extract_argument_from_va_list@PEAXPEAX@?$standard_base@DV?$string_output_adapter@D@__crt_stdio_output@@@__crt_stdio_output@@IEAA_NAEAPEAX@Z 000000018004a724     libucrtd:output.obj
 0002:00011724       $unwind$??$extract_argument_from_va_list@PEAXPEAX@?$standard_base@_WV?$string_output_adapter@_W@__crt_stdio_output@@@__crt_stdio_output@@IEAA_NAEAPEAX@Z 000000018004a724     libucrtd:output.obj
 0002:00011724       $unwind$??$extract_argument_from_va_list@_J_J@?$standard_base@DV?$string_output_adapter@D@__crt_stdio_output@@@__crt_stdio_output@@IEAA_NAEA_J@Z 000000018004a724     libucrtd:output.obj
 0002:00011724       $unwind$??$extract_argument_from_va_list@_J_J@?$standard_base@_WV?$string_output_adapter@_W@__crt_stdio_output@@@__crt_stdio_output@@IEAA_NAEA_J@Z 000000018004a724     libucrtd:output.obj
 0002:00011724       $unwind$??$extract_argument_from_va_list@_K_J@?$standard_base@DV?$string_output_adapter@D@__crt_stdio_output@@@__crt_stdio_output@@IEAA_NAEA_J@Z 000000018004a724     libucrtd:output.obj
 0002:00011724       $unwind$??$extract_argument_from_va_list@_K_J@?$standard_base@_WV?$string_output_adapter@_W@__crt_stdio_output@@@__crt_stdio_output@@IEAA_NAEA_J@Z 000000018004a724     libucrtd:output.obj
 0002:00011724       $unwind$??$extract_argument_from_va_list@_W_W@?$standard_base@DV?$string_output_adapter@D@__crt_stdio_output@@@__crt_stdio_output@@IEAA_NAEA_W@Z 000000018004a724     libucrtd:output.obj
 0002:00011724       $unwind$??$extract_argument_from_va_list@_W_W@?$standard_base@_WV?$string_output_adapter@_W@__crt_stdio_output@@@__crt_stdio_output@@IEAA_NAEA_W@Z 000000018004a724     libucrtd:output.obj
 0002:00011724       $unwind$??4?$__crt_unique_heap_ptr@DU__crt_internal_free_policy@@@@QEAAAEAV0@$$QEAV0@@Z 000000018004a724     libucrtd:output.obj
 0002:00011724       $unwind$?crop_zeroes@__crt_stdio_output@@YAXPEADQEAU__crt_locale_pointers@@@Z 000000018004a724     libucrtd:output.obj
 0002:00011724       $unwind$??$common_strnlen@$00G@@YA_KQEBG_K@Z 000000018004a724     libucrtd:strnlen.obj
 0002:00011724       $unwind$??$common_strnlen@$0A@E@@YA_KQEBE_K@Z 000000018004a724     libucrtd:strnlen.obj
 0002:00011724       $unwind$??$common_strnlen@$0A@G@@YA_KQEBG_K@Z 000000018004a724     libucrtd:strnlen.obj
 0002:00011724       $unwind$strnlen            000000018004a724     libucrtd:strnlen.obj
 0002:00011724       $unwind$wcsnlen            000000018004a724     libucrtd:strnlen.obj
 0002:00011724       $unwind$??3@YAXPEAX_K@Z    000000018004a724     LIBCMTD:delete_scalar_size.obj
 0002:00011724       $unwind$_FindPESection     000000018004a724     LIBCMTD:pesect.obj
 0002:00011724       $unwind$??0bad_exception@std@@QEAA@AEBV01@@Z 000000018004a724     libvcruntimed:frame.obj
 0002:00011724       $unwind$?begin@HandlerMap@__FrameHandler3@@QEAA?AViterator@12@XZ 000000018004a724     libvcruntimed:frame.obj
 0002:00011724       $unwind$?end@HandlerMap@__FrameHandler3@@QEAA?AViterator@12@XZ 000000018004a724     libvcruntimed:frame.obj
 0002:00011724       $unwind$??$?RU__vcrt_ptd@@@__crt_internal_free_policy@@QEBAXQEBU__vcrt_ptd@@@Z 000000018004a724     libvcruntimed:per_thread_data.obj
 0002:00011724       $unwind$??$?RD@__crt_public_free_policy@@QEBAXQEBD@Z 000000018004a724     libvcruntimed:std_exception.obj
 0002:00011724       $unwind$??$?RD@__crt_internal_free_policy@@QEBAXQEBD@Z 000000018004a724     libvcruntimed:std_type_info.obj
 0002:00011724       $unwind$__std_type_info_compare 000000018004a724     libvcruntimed:std_type_info.obj
 0002:0001172c       $unwind$?store_first_surrogate@?A0xc60ee810@@YAX_SPEAU_Mbstatet@@@Z 000000018004a72c     libucrtd:c16rtomb.obj
 0002:0001172c       $unwind$??8__crt_strtox@@YA_NAEBUbig_integer@0@0@Z 000000018004a72c     libucrtd:cfout.obj
 0002:0001172c       $unwind$?wcsncnt@@YA_KPEB_W_K@Z 000000018004a72c     libucrtd:wcstombs.obj
 0002:0001172c       $unwind$?initialize@?$dual_state_global@P6AH_K@Z@__crt_state_management@@QEAAXQ6AH_K@Z@Z 000000018004a72c     libucrtd:new_handler.obj
 0002:0001172c       $unwind$?initialize@?$dual_state_global@PEAU__crt_locale_data@@@__crt_state_management@@QEAAXQEAU__crt_locale_data@@@Z 000000018004a72c     libucrtd:initialization.obj
 0002:0001172c       $unwind$?initialize@?$dual_state_global@PEAU__crt_multibyte_data@@@__crt_state_management@@QEAAXQEAU__crt_multibyte_data@@@Z 000000018004a72c     libucrtd:mbctype.obj
 0002:0001172c       $unwind$?initialize@?$dual_state_global@P6AXH@Z@__crt_state_management@@QEAAXQ6AXH@Z@Z 000000018004a72c     libucrtd:signal.obj
 0002:0001172c       $unwind$__strncnt          000000018004a72c     libucrtd:strncnt.obj
 0002:0001172c       $unwind$??$last_reached@$0A@@@YA_NQEBX0@Z 000000018004a72c     libucrtd:strnlen.obj
 0002:0001172c       $unwind$?compare_equals@?$__crt_simd_traits@$0A@E@@SA?AT__m128i@@T2@0@Z 000000018004a72c     libucrtd:strnlen.obj
 0002:0001172c       $unwind$?compare_equals@?$__crt_simd_traits@$0A@G@@SA?AT__m128i@@T2@0@Z 000000018004a72c     libucrtd:strnlen.obj
 0002:0001172c       $unwind$?initialize@?$dual_state_global@P6AHPEAU_exception@@@Z@__crt_state_management@@QEAAXQ6AHPEAU_exception@@@Z@Z 000000018004a72c     libucrtd:matherr.obj
 0002:0001172c       $unwind$__AdjustPointer    000000018004a72c     libvcruntimed:ehhelpers.obj
 0002:0001172c       $unwind$??8iterator@HandlerMap@__FrameHandler3@@QEBA_NAEBV012@@Z 000000018004a72c     libvcruntimed:frame.obj
 0002:0001172c       $unwind$??Miterator@TryBlockMap@__FrameHandler3@@QEBA_NAEBV012@@Z 000000018004a72c     libvcruntimed:frame.obj
 0002:00011734       $unwind$?validate@?$c_string_character_source@D@__crt_strtox@@QEBA_NXZ 000000018004a734     libucrtd:atox.obj
 0002:00011734       $unwind$?validate@?$c_string_character_source@_W@__crt_strtox@@QEBA_NXZ 000000018004a734     libucrtd:atox.obj
 0002:00011734       $unwind$?is_contraction_possible@@YA_N_K@Z 000000018004a734     libucrtd:expand.obj
 0002:00011734       $unwind$_malloc_base       000000018004a734     libucrtd:malloc_base.obj
 0002:00011734       $unwind$?issue_debug_notification@@YA_NQEB_W@Z 000000018004a734     libucrtd:report_runtime_error.obj
 0002:00011734       $unwind$_freea_crt         000000018004a734     libucrtd:getstringtypea.obj
 0002:00011734       $unwind$?GetTableIndexFromLocaleName@@YAHPEB_W@Z 000000018004a734     libucrtd:lcidtoname_downlevel.obj
 0002:00011734       $unwind$__acrt_free_locale 000000018004a734     libucrtd:locale_refcounting.obj
 0002:00011734       $unwind$??R<lambda_5533cddd4bda0037814beee657757329>@@QEBAHXZ 000000018004a734     libucrtd:commit.obj
 0002:00011734       $unwind$__acrt_lowio_destroy_handle_array 000000018004a734     libucrtd:osfinfo.obj
 0002:00011734       $unwind$__acrt_stdio_free_buffer_nolock 000000018004a734     libucrtd:_freebuf.obj
 0002:00011734       $unwind$__acrt_stdio_flush_nolock 000000018004a734     libucrtd:fflush.obj
 0002:00011734       $unwind$_fileno            000000018004a734     libucrtd:fileno.obj
 0002:00011734       $unwind$?state_case_normal@?$output_processor@DV?$string_output_adapter@D@__crt_stdio_output@@V?$format_validation_base@DV?$string_output_adapter@D@__crt_stdio_output@@@2@@__crt_stdio_output@@AEAA_NXZ 000000018004a734     libucrtd:output.obj
 0002:00011734       $unwind$?state_case_normal@?$output_processor@_WV?$string_output_adapter@_W@__crt_stdio_output@@V?$format_validation_base@_WV?$string_output_adapter@_W@__crt_stdio_output@@@2@@__crt_stdio_output@@AEAA_NXZ 000000018004a734     libucrtd:output.obj
 0002:00011734       $unwind$?validate@?$string_output_adapter@D@__crt_stdio_output@@QEBA_NXZ 000000018004a734     libucrtd:output.obj
 0002:00011734       $unwind$?validate@?$string_output_adapter@_W@__crt_stdio_output@@QEBA_NXZ 000000018004a734     libucrtd:output.obj
 0002:00011734       $unwind$?validate_and_update_state_at_end_of_format_string@?$format_validation_base@DV?$string_output_adapter@D@__crt_stdio_output@@@__crt_stdio_output@@IEBA_NXZ 000000018004a734     libucrtd:output.obj
 0002:00011734       $unwind$?validate_and_update_state_at_end_of_format_string@?$format_validation_base@_WV?$string_output_adapter@_W@__crt_stdio_output@@@__crt_stdio_output@@IEBA_NXZ 000000018004a734     libucrtd:output.obj
 0002:00011734       $unwind$__FrameUnwindFilter 000000018004a734     libvcruntimed:ehhelpers.obj
 0002:00011734       $unwind$?Is_bad_exception_allowed@@YAEPEBU_s_ESTypeList@@@Z 000000018004a734     libvcruntimed:frame.obj
 0002:00011734       $unwind$__vcrt_FlsAlloc    000000018004a734     libvcruntimed:winapi_downlevel.obj
 0002:0001173c       $unwind$__DestructExceptionObject 000000018004a73c     libvcruntimed:ehhelpers.obj
 0002:00011760       $xdatasym                  000000018004a760     libvcruntimed:notify.obj
 0002:0001176c       $unwind$memcpy_s           000000018004a76c     libucrtd:cfout.obj
 0002:0001176c       $unwind$??$parse_integer_from_string@JDPEAPEAD@__crt_strtox@@YAJQEBDQEAPEADHQEAU__crt_locale_pointers@@@Z 000000018004a76c     libucrtd:strtox.obj
 0002:0001176c       $unwind$??$parse_integer_from_string@J_WPEAPEA_W@__crt_strtox@@YAJQEB_WQEAPEA_WHQEAU__crt_locale_pointers@@@Z 000000018004a76c     libucrtd:strtox.obj
 0002:0001176c       $unwind$__acrt_MessageBoxW 000000018004a76c     libucrtd:winapi_thunks.obj
 0002:0001176c       $unwind$memcpy_s           000000018004a76c     libucrtd:mbctype.obj
 0002:0001176c       $unwind$_snwprintf_s       000000018004a76c     libucrtd:dbgrpt.obj
 0002:0001176c       $unwind$_snprintf_s        000000018004a76c     libucrtd:dbgrptt.obj
 0002:0001176c       $unwind$??$parse_command_line@D@@YAXPEADPEAPEAD0PEA_K2@Z 000000018004a76c     libucrtd:argv_parsing.obj
 0002:0001176c       $unwind$?write_string@?$string_output_adapter@D@__crt_stdio_output@@QEBAXQEBDHQEAHAEAV__crt_deferred_errno_cache@@@Z 000000018004a76c     libucrtd:output.obj
 0002:0001176c       $unwind$?write_string@?$string_output_adapter@_W@__crt_stdio_output@@QEBAXQEB_WHQEAHAEAV__crt_deferred_errno_cache@@@Z 000000018004a76c     libucrtd:output.obj
 0002:0001176c       $unwind$__stdio_common_vsnprintf_s 000000018004a76c     libucrtd:output.obj
 0002:0001176c       $unwind$__stdio_common_vsnwprintf_s 000000018004a76c     libucrtd:output.obj
 0002:0001176c       $unwind$_raise_exc         000000018004a76c     libucrtd:fpexcept.obj
 0002:0001176c       $unwind$__GSHandlerCheck_EH 000000018004a76c     LIBCMTD:gshandlereh.obj
 0002:0001176c       $unwind$__GSHandlerCheck_SEH 000000018004a76c     LIBCMTD:gshandlerseh.obj
 0002:0001176c       $unwind$_vsprintf_s_l      000000018004a76c     libvcruntimed:undname.obj
 0002:0001176c       $unwind$sprintf_s          000000018004a76c     libvcruntimed:undname.obj
 0002:00011774       $unwind$__vcrt_getptd_noexit 000000018004a774     libvcruntimed:per_thread_data.obj
 0002:00011780       $xdatasym                  000000018004a780     libvcruntimed:memcpy.obj
 0002:00011790       $unwind$??$common_show_message_box@_W@@YAHQEB_W0I@Z 000000018004a790     libucrtd:crtmbox.obj
 0002:00011790       $unwind$?find_next_state@?$output_processor@_WV?$string_output_adapter@_W@__crt_stdio_output@@V?$format_validation_base@_WV?$string_output_adapter@_W@__crt_stdio_output@@@2@@__crt_stdio_output@@AEBA?AW4state@2@_WW432@@Z 000000018004a790     libucrtd:output.obj
 0002:00011790       $unwind$?FrameUnwindToEmptyState@__FrameHandler3@@SAXPEA_KPEAU_xDISPATCHER_CONTEXT@@PEBU_s_FuncInfo@@@Z 000000018004a790     libvcruntimed:risctrnsctrl.obj
 0002:00011798       $unwind$_recalloc_dbg      000000018004a798     libucrtd:debug_heap.obj
 0002:00011798       $unwind$??$__acrt_convert_wcs_mbs_cp@_WDV<lambda_f788ae46380686e8b737efdd8c720d07>@@U__crt_win32_buffer_no_resizing@@@@YAHQEB_WAEAV?$__crt_win32_buffer@DU__crt_win32_buffer_no_resizing@@@@AEBV<lambda_f788ae46380686e8b737efdd8c720d07>@@I@Z 000000018004a798     libucrtd:getmodulefilenamea.obj
 0002:00011798       $unwind$_vsnwprintf_s_l    000000018004a798     libucrtd:dbgrpt.obj
 0002:00011798       $unwind$_vsnprintf_s_l     000000018004a798     libucrtd:dbgrptt.obj
 0002:00011798       $unwind$_invalid_parameter 000000018004a798     libucrtd:invalid_parameter.obj
 0002:00011798       $unwind$??$__acrt_convert_wcs_mbs_cp@D_WV<lambda_7c9dea7b4ca7285d2cdb541a38da6275>@@U__crt_win32_buffer_internal_dynamic_resizing@@@@YAHQEBDAEAV?$__crt_win32_buffer@_WU__crt_win32_buffer_internal_dynamic_resizing@@@@AEBV<lambda_7c9dea7b4ca7285d2cdb541a38da6275>@@I@Z 000000018004a798     libucrtd:argv_wildcards.obj
 0002:00011798       $unwind$??$__acrt_convert_wcs_mbs_cp@_WDV<lambda_d8593a27d1aa8c02be35c86a17d324c4>@@U__crt_win32_buffer_internal_dynamic_resizing@@@@YAHQEB_WAEAV?$__crt_win32_buffer@DU__crt_win32_buffer_internal_dynamic_resizing@@@@AEBV<lambda_d8593a27d1aa8c02be35c86a17d324c4>@@I@Z 000000018004a798     libucrtd:argv_wildcards.obj
 0002:00011798       $unwind$??$type_case_integer_parse_into_buffer@_K@?$output_processor@DV?$string_output_adapter@D@__crt_stdio_output@@V?$format_validation_base@DV?$string_output_adapter@D@__crt_stdio_output@@@2@@__crt_stdio_output@@AEAAX_KI_N@Z 000000018004a798     libucrtd:output.obj
 0002:00011798       $unwind$??$type_case_integer_parse_into_buffer@_K@?$output_processor@_WV?$string_output_adapter@_W@__crt_stdio_output@@V?$format_validation_base@_WV?$string_output_adapter@_W@__crt_stdio_output@@@2@@__crt_stdio_output@@AEAAX_KI_N@Z 000000018004a798     libucrtd:output.obj
 0002:00011798       $unwind$_raise_exc_ex      000000018004a798     libucrtd:fpexcept.obj
 0002:00011798       $unwind$??$SehTransFilter@V__FrameHandler3@@@@YAHPEAU_EXCEPTION_POINTERS@@PEAUEHExceptionRecord@@PEA_KPEAU_CONTEXT@@PEAU_xDISPATCHER_CONTEXT@@PEBU_s_FuncInfo@@HPEAH@Z 000000018004a798     libvcruntimed:risctrnsctrl.obj
 0002:00011798       $unwind$?GetEstablisherFrame@__FrameHandler3@@SAPEA_KPEA_KPEAU_xDISPATCHER_CONTEXT@@PEBU_s_FuncInfo@@0@Z 000000018004a798     libvcruntimed:risctrnsctrl.obj
 0002:000117a0       $unwind$?UnwindNestedFrames@__FrameHandler3@@SAXPEA_KPEAUEHExceptionRecord@@PEAU_CONTEXT@@0PEAXPEBU_s_FuncInfo@@HHPEBU_s_HandlerType@@PEAU_xDISPATCHER_CONTEXT@@E@Z 000000018004a7a0     libvcruntimed:risctrnsctrl.obj
 0002:000117b4       $unwind$__acrt_fp_strflt_to_string 000000018004a7b4     libucrtd:_fptostr.obj
 0002:000117b4       $unwind$?fp_format_f_internal@@YAHQEAD_KHQEAU_strflt@@_NQEAU__crt_locale_pointers@@@Z 000000018004a7b4     libucrtd:cvt.obj
 0002:000117b4       $unwind$??$copy_and_add_argument_to_buffer@D@@YAHQEBD0_KAEAV?$argument_list@D@?A0x5f5c8891@@@Z 000000018004a7b4     libucrtd:argv_wildcards.obj
 0002:000117b4       $unwind$??$common_vsprintf_s@D@@YAH_KQEAD0QEBDQEAU__crt_locale_pointers@@1@Z 000000018004a7b4     libucrtd:output.obj
 0002:000117b4       $unwind$?GetRangeOfTrysToCheck@__FrameHandler3@@SA?AU?$pair@Viterator@TryBlockMap@__FrameHandler3@@V123@@std@@AEAVTryBlockMap@1@HPEAU_xDISPATCHER_CONTEXT@@PEBU_s_FuncInfo@@H@Z 000000018004a7b4     libvcruntimed:risctrnsctrl.obj
 0002:000117b4       $unwind$__CxxFrameHandler3 000000018004a7b4     libvcruntimed:risctrnsctrl.obj
 0002:000117bc       $unwind$??$_CallSETranslator@V__FrameHandler3@@@@YAHPEAUEHExceptionRecord@@PEA_KPEAU_CONTEXT@@PEAU_xDISPATCHER_CONTEXT@@PEBU_s_FuncInfo@@K1H@Z 000000018004a7bc     libvcruntimed:risctrnsctrl.obj
 0002:000117dc       $unwind$?fin$0@?0??heap_alloc_dbg_internal@@YAPEAX_KHQEBDH@Z@4HA 000000018004a7dc     libucrtd:debug_heap.obj
 0002:000117dc       $unwind$_CrtMemCheckpoint$fin$0 000000018004a7dc     libucrtd:debug_heap.obj
 0002:000117dc       $unwind$_VCrtDbgReportA$fin$0 000000018004a7dc     libucrtd:dbgrptt.obj
 0002:000117dc       $unwind$_VCrtDbgReportA$fin$1 000000018004a7dc     libucrtd:dbgrptt.obj
 0002:000117dc       $unwind$_VCrtDbgReportW$fin$0 000000018004a7dc     libucrtd:dbgrptt.obj
 0002:000117dc       $unwind$_VCrtDbgReportW$fin$1 000000018004a7dc     libucrtd:dbgrptt.obj
 0002:000117dc       $unwind$?filt$0@?0???$_CallSETranslator@V__FrameHandler3@@@@YAHPEAUEHExceptionRecord@@PEA_KPEAU_CONTEXT@@PEAU_xDISPATCHER_CONTEXT@@PEBU_s_FuncInfo@@K1H@Z@4HA 000000018004a7dc     libvcruntimed:risctrnsctrl.obj
 0002:000117e4       $unwind$??$?0AEAViterator@TryBlockMap@__FrameHandler3@@AEAV012@$0A@@?$pair@Viterator@TryBlockMap@__FrameHandler3@@V123@@std@@QEAA@AEAViterator@TryBlockMap@__FrameHandler3@@0@Z 000000018004a7e4     libvcruntimed:risctrnsctrl.obj
 0002:000117f0       $unwind$?unget@?$c_string_character_source@D@__crt_strtox@@QEAAXD@Z 000000018004a7f0     libucrtd:atox.obj
 0002:000117f0       $unwind$??$__acrt_lock_and_call@V<lambda_8d0ee55de4b1038c4002e0adecdf1839>@@@@YAXW4__acrt_lock_id@@$$QEAV<lambda_8d0ee55de4b1038c4002e0adecdf1839>@@@Z 000000018004a7f0     libucrtd:per_thread_data.obj
 0002:000117f0       $unwind$??$__acrt_lock_and_call@V<lambda_8f455de75cd7d7f24b4096f044d8b9e6>@@@@YAXW4__acrt_lock_id@@$$QEAV<lambda_8f455de75cd7d7f24b4096f044d8b9e6>@@@Z 000000018004a7f0     libucrtd:per_thread_data.obj
 0002:000117f0       $unwind$??$__acrt_lock_and_call@V<lambda_92619d2358a28f41a33ba319515a20b9>@@@@YAXW4__acrt_lock_id@@$$QEAV<lambda_92619d2358a28f41a33ba319515a20b9>@@@Z 000000018004a7f0     libucrtd:per_thread_data.obj
 0002:000117f0       $unwind$??$__acrt_lock_and_call@V<lambda_e157831efee4ea0afb0a2ace5dd5fd0d>@@@@YAXW4__acrt_lock_id@@$$QEAV<lambda_e157831efee4ea0afb0a2ace5dd5fd0d>@@@Z 000000018004a7f0     libucrtd:per_thread_data.obj
 0002:000117f0       $unwind$??$__acrt_lock_and_call@V<lambda_3e16ef9562a7dcce91392c22ab16ea36>@@@@YAXW4__acrt_lock_id@@$$QEAV<lambda_3e16ef9562a7dcce91392c22ab16ea36>@@@Z 000000018004a7f0     libucrtd:wsetlocale.obj
 0002:000117f0       $unwind$??$__acrt_lowio_lock_fh_and_call@V<lambda_4e7105787b7b0e0227fbf2b2d883fa65>@@@@YAHH$$QEAV<lambda_4e7105787b7b0e0227fbf2b2d883fa65>@@@Z 000000018004a7f0     libucrtd:close.obj
 0002:000117f0       $unwind$??$__acrt_lowio_lock_fh_and_call@V<lambda_5533cddd4bda0037814beee657757329>@@@@YAHH$$QEAV<lambda_5533cddd4bda0037814beee657757329>@@@Z 000000018004a7f0     libucrtd:commit.obj
 0002:000117f0       $unwind$??$__acrt_lock_and_call@V<lambda_bd5a608237428601b7e45fbdc72b1ae8>@@@@YAXW4__acrt_lock_id@@$$QEAV<lambda_bd5a608237428601b7e45fbdc72b1ae8>@@@Z 000000018004a7f0     libucrtd:mbctype.obj
 0002:000117f0       $unwind$??$__acrt_lock_and_call@V<lambda_44731a7d0e6d81c3e6aa82d741081786>@@@@YAP6AXH@ZW4__acrt_lock_id@@$$QEAV<lambda_44731a7d0e6d81c3e6aa82d741081786>@@@Z 000000018004a7f0     libucrtd:signal.obj
 0002:000117f0       $unwind$??$__acrt_lock_and_call@V<lambda_6e4b09c48022b2350581041d5f6b0c4c>@@@@YAXW4__acrt_lock_id@@$$QEAV<lambda_6e4b09c48022b2350581041d5f6b0c4c>@@@Z 000000018004a7f0     libucrtd:exit.obj
 0002:000117f0       $unwind$??$__acrt_lock_and_call@V<lambda_d121dba8a4adeaf3a9819e48611155df>@@@@YAHW4__acrt_lock_id@@$$QEAV<lambda_d121dba8a4adeaf3a9819e48611155df>@@@Z 000000018004a7f0     libucrtd:onexit.obj
 0002:000117f0       $unwind$??$__acrt_lock_and_call@V<lambda_ab61a845afdef5b7c387490eaf3616ee>@@@@YAXW4__acrt_lock_id@@$$QEAV<lambda_ab61a845afdef5b7c387490eaf3616ee>@@@Z 000000018004a7f0     libucrtd:fflush.obj
 0002:000117f0       $unwind$?state_case_normal_tchar@?$output_processor@DV?$string_output_adapter@D@__crt_stdio_output@@V?$format_validation_base@DV?$string_output_adapter@D@__crt_stdio_output@@@2@@__crt_stdio_output@@AEAA_ND@Z 000000018004a7f0     libucrtd:output.obj
 0002:000117f0       $unwind$?type_case_c_tchar@?$output_processor@DV?$string_output_adapter@D@__crt_stdio_output@@V?$format_validation_base@DV?$string_output_adapter@D@__crt_stdio_output@@@2@@__crt_stdio_output@@AEAA_ND@Z 000000018004a7f0     libucrtd:output.obj
 0002:000117f0       $unwind$__vcrt_FlsSetValue 000000018004a7f0     libvcruntimed:winapi_downlevel.obj
 0002:000117f8       $unwind$??$common_lseek_nolock@_J@@YA_JH_JH@Z 000000018004a7f8     libucrtd:lseek.obj
 0002:000117f8       $unwind$?find_next_state@?$output_processor@DV?$string_output_adapter@D@__crt_stdio_output@@V?$format_validation_base@DV?$string_output_adapter@D@__crt_stdio_output@@@2@@__crt_stdio_output@@AEBA?AW4state@2@DW432@@Z 000000018004a7f8     libucrtd:output.obj
 0002:000117f8       $unwind$_controlfp_s       000000018004a7f8     libucrtd:contrlfp.obj
 0002:000117f8       $unwind$__vcrt_InitializeCriticalSectionEx 000000018004a7f8     libvcruntimed:winapi_downlevel.obj
 0002:00011800       $unwind$?try_get_module@@YAPEAUHINSTANCE__@@W4module_id@?A0x391cf84c@@@Z 000000018004a800     libucrtd:winapi_thunks.obj
 0002:00011800       $unwind$_close             000000018004a800     libucrtd:close.obj
 0002:00011800       $unwind$_commit            000000018004a800     libucrtd:commit.obj
 0002:00011800       $unwind$?common_flush_all@@YAH_N@Z 000000018004a800     libucrtd:fflush.obj
 0002:00011800       $unwind$?try_get_module@@YAPEAUHINSTANCE__@@W4module_id@?A0x61a31dd3@@@Z 000000018004a800     libvcruntimed:winapi_downlevel.obj
 0002:00011808       $unwind$?try_get_proc_address_from_first_available_module@@YAPEAXQEBDQEBW4module_id@?A0x391cf84c@@1@Z 000000018004a808     libucrtd:winapi_thunks.obj
 0002:00011808       $unwind$?common_lseek_do_seek_nolock@@YA_JQEAX_JH@Z 000000018004a808     libucrtd:lseek.obj
 0002:00011808       $unwind$?allocate@__crt_win32_buffer_internal_dynamic_resizing@@SAHQEAPEAX_KAEBV__crt_win32_buffer_empty_debug_info@@@Z 000000018004a808     libucrtd:argv_wildcards.obj
 0002:00011808       $unwind$?type_case_s_compute_narrow_string_length@?$output_processor@_WV?$string_output_adapter@_W@__crt_stdio_output@@V?$format_validation_base@_WV?$string_output_adapter@_W@__crt_stdio_output@@@2@@__crt_stdio_output@@AEBAHH_W@Z 000000018004a808     libucrtd:output.obj
 0002:00011808       $unwind$?GetUnwindTryBlock@__FrameHandler3@@SAHPEA_KPEAU_xDISPATCHER_CONTEXT@@PEBU_s_FuncInfo@@@Z 000000018004a808     libvcruntimed:ehstate.obj
 0002:00011808       $unwind$?StateFromIp@__FrameHandler3@@SAHPEBU_s_FuncInfo@@PEAU_xDISPATCHER_CONTEXT@@_K@Z 000000018004a808     libvcruntimed:ehstate.obj
 0002:00011808       $unwind$?ExFilterRethrow@@YAHPEAU_EXCEPTION_POINTERS@@PEAUEHExceptionRecord@@PEAH@Z 000000018004a808     libvcruntimed:frame.obj
 0002:00011808       $unwind$?GetHandlerSearchState@__FrameHandler3@@SAHPEA_KPEAU_xDISPATCHER_CONTEXT@@PEBU_s_FuncInfo@@@Z 000000018004a808     libvcruntimed:frame.obj
 0002:00011808       $unwind$?_CallMemberFunction1@@YAXQEAX00@Z 000000018004a808     libvcruntimed:frame.obj
 0002:00011808       $unwind$?try_get_proc_address_from_first_available_module@@YAPEAXQEBDQEBW4module_id@?A0x61a31dd3@@1@Z 000000018004a808     libvcruntimed:winapi_downlevel.obj
 0002:00011810       $unwind$?try_get_function@@YAPEAXW4function_id@?A0x391cf84c@@QEBDQEBW4module_id@2@2@Z 000000018004a810     libucrtd:winapi_thunks.obj
 0002:00011810       $unwind$_CrtDbgReport      000000018004a810     libucrtd:dbgrpt.obj
 0002:00011810       $unwind$_CrtDbgReportW     000000018004a810     libucrtd:dbgrpt.obj
 0002:00011810       $unwind$_call_matherr      000000018004a810     libucrtd:libm_error.obj
 0002:00011810       $unwind$?try_get_function@@YAPEAXW4function_id@?A0x61a31dd3@@QEBDQEBW4module_id@2@2@Z 000000018004a810     libvcruntimed:winapi_downlevel.obj
 0002:00011818       $unwind$mbtowc             000000018004a818     libucrtd:mbtowc.obj
 0002:00011818       $unwind$??$make_c_string_character_source@DPEAPEAD@__crt_strtox@@YA?AV?$c_string_character_source@D@0@QEBDQEAPEAD@Z 000000018004a818     libucrtd:strtox.obj
 0002:00011818       $unwind$??$make_c_string_character_source@_WPEAPEA_W@__crt_strtox@@YA?AV?$c_string_character_source@_W@0@QEB_WQEAPEA_W@Z 000000018004a818     libucrtd:strtox.obj
 0002:00011818       $unwind$strtol             000000018004a818     libucrtd:strtox.obj
 0002:00011818       $unwind$wcstol             000000018004a818     libucrtd:strtox.obj
 0002:00011818       $unwind$?allocate@__crt_win32_buffer_no_resizing@@SAHQEAPEAX_KAEBV__crt_win32_buffer_empty_debug_info@@@Z 000000018004a818     libucrtd:getmodulefilenamea.obj
 0002:00011818       $unwind$__acrt_show_wide_message_box 000000018004a818     libucrtd:crtmbox.obj
 0002:00011818       $unwind$??$get_module_file_name@AEAPEAUHINSTANCE__@@AEAY0BAF@DK@?$__crt_char_traits@D@@SAKAEAPEAUHINSTANCE__@@AEAY0BAF@D$$QEAK@Z 000000018004a818     libucrtd:dbgrpt.obj
 0002:00011818       $unwind$??$get_module_file_name@AEAPEAUHINSTANCE__@@AEAY0BAF@_WK@?$__crt_char_traits@_W@@SAKAEAPEAUHINSTANCE__@@AEAY0BAF@_W$$QEAK@Z 000000018004a818     libucrtd:dbgrpt.obj
 0002:00011818       $unwind$??$tcscpy_s@AEAY0BAF@D_KPEBD@?$__crt_char_traits@D@@SAHAEAY0BAF@D$$QEA_K$$QEAPEBD@Z 000000018004a818     libucrtd:dbgrpt.obj
 0002:00011818       $unwind$??$tcscpy_s@AEAY0BAF@_W_KPEB_W@?$__crt_char_traits@_W@@SAHAEAY0BAF@_W$$QEA_K$$QEAPEB_W@Z 000000018004a818     libucrtd:dbgrpt.obj
 0002:00011818       $unwind$??$get_module_file_name@$$TAEAY0BAF@DH@?$__crt_char_traits@D@@SAK$$QEA$$TAEAY0BAF@D$$QEAH@Z 000000018004a818     libucrtd:argv_parsing.obj
 0002:00011818       $unwind$??$tcstol@PEBDPEAPEADH@?$__crt_char_traits@D@@SAJ$$QEAPEBD$$QEAPEAPEAD$$QEAH@Z 000000018004a818     libucrtd:output.obj
 0002:00011818       $unwind$??$tcstol@PEB_WPEAPEA_WH@?$__crt_char_traits@_W@@SAJ$$QEAPEB_W$$QEAPEAPEA_W$$QEAH@Z 000000018004a818     libucrtd:output.obj
 0002:00011818       $unwind$strcat_s           000000018004a818     libucrtd:strcat_s.obj
 0002:00011818       $unwind$strcpy_s           000000018004a818     libucrtd:strcpy_s.obj
 0002:00011818       $unwind$wcscat_s           000000018004a818     libucrtd:wcscat_s.obj
 0002:00011818       $unwind$wcscpy_s           000000018004a818     libucrtd:wcscpy_s.obj
 0002:00011818       $unwind$?GetCurrentState@__FrameHandler3@@SAHPEA_KPEAU_xDISPATCHER_CONTEXT@@PEBU_s_FuncInfo@@@Z 000000018004a818     libvcruntimed:ehstate.obj
 0002:00011818       $unwind$?TypeMatch@__FrameHandler3@@SAHPEBU_s_HandlerType@@PEBU_s_CatchableType@@PEBU_s_ThrowInfo@@@Z 000000018004a818     libvcruntimed:frame.obj
 0002:00011818       $unwind$__TypeMatch        000000018004a818     libvcruntimed:frame.obj
 0002:00011820       $unwind$?__mbrtowc_utf8@__crt_mbstring@@YA_KPEA_WPEBD_KPEAU_Mbstatet@@@Z 000000018004a820     libucrtd:mbrtowc.obj
 0002:00011820       $unwind$mbstowcs_s         000000018004a820     libucrtd:mbstowcs.obj
 0002:00011820       $unwind$wcstombs_s         000000018004a820     libucrtd:wcstombs.obj
 0002:00011820       $unwind$_calloc_dbg        000000018004a820     libucrtd:debug_heap.obj
 0002:00011820       $unwind$_vsnprintf_s       000000018004a820     libucrtd:dbgrptt.obj
 0002:00011820       $unwind$??$?0AEBV?$string_output_adapter@D@__crt_stdio_output@@AEB_KAEBQEBDAEBQEAU__crt_locale_pointers@@AEBQEAD@?$format_validation_base@DV?$string_output_adapter@D@__crt_stdio_output@@@__crt_stdio_output@@IEAA@AEBV?$string_output_adapter@D@1@AEB_KAEBQEBDAEBQEAU__crt_locale_pointers@@AEBQEAD@Z 000000018004a820     libucrtd:output.obj
 0002:00011820       $unwind$??$?0AEBV?$string_output_adapter@D@__crt_stdio_output@@AEB_KAEBQEBDAEBQEAU__crt_locale_pointers@@AEBQEAD@?$standard_base@DV?$string_output_adapter@D@__crt_stdio_output@@@__crt_stdio_output@@IEAA@AEBV?$string_output_adapter@D@1@AEB_KAEBQEBDAEBQEAU__crt_locale_pointers@@AEBQEAD@Z 000000018004a820     libucrtd:output.obj
 0002:00011820       $unwind$??$?0AEBV?$string_output_adapter@_W@__crt_stdio_output@@AEB_KAEBQEB_WAEBQEAU__crt_locale_pointers@@AEBQEAD@?$format_validation_base@_WV?$string_output_adapter@_W@__crt_stdio_output@@@__crt_stdio_output@@IEAA@AEBV?$string_output_adapter@_W@1@AEB_KAEBQEB_WAEBQEAU__crt_locale_pointers@@AEBQEAD@Z 000000018004a820     libucrtd:output.obj
 0002:00011820       $unwind$??$?0AEBV?$string_output_adapter@_W@__crt_stdio_output@@AEB_KAEBQEB_WAEBQEAU__crt_locale_pointers@@AEBQEAD@?$standard_base@_WV?$string_output_adapter@_W@__crt_stdio_output@@@__crt_stdio_output@@IEAA@AEBV?$string_output_adapter@_W@1@AEB_KAEBQEB_WAEBQEAU__crt_locale_pointers@@AEBQEAD@Z 000000018004a820     libucrtd:output.obj
 0002:00011820       $unwind$??0?$output_processor@DV?$string_output_adapter@D@__crt_stdio_output@@V?$format_validation_base@DV?$string_output_adapter@D@__crt_stdio_output@@@2@@__crt_stdio_output@@QEAA@AEBV?$string_output_adapter@D@1@_KQEBDQEAU__crt_locale_pointers@@QEAD@Z 000000018004a820     libucrtd:output.obj
 0002:00011820       $unwind$??0?$output_processor@_WV?$string_output_adapter@_W@__crt_stdio_output@@V?$format_validation_base@_WV?$string_output_adapter@_W@__crt_stdio_output@@@2@@__crt_stdio_output@@QEAA@AEBV?$string_output_adapter@_W@1@_KQEB_WQEAU__crt_locale_pointers@@QEAD@Z 000000018004a820     libucrtd:output.obj
 0002:00011820       $unwind$__stdio_common_vsprintf_s 000000018004a820     libucrtd:output.obj
