 main

 Timestamp is 615a007d (Sun Oct  3 22:11:57 2021)

 Preferred load address is 0000000140000000

 Start         Length     Name                   Class
 0001:00000000 00038e10H .text$mn                CODE
 0001:00038e10 00000040H .text$mn$00             CODE
 0001:00038e50 0000067dH .text$x                 CODE
 0002:00000000 00000360H .idata$5                DATA
 0002:00000360 00000028H .00cfg                  DATA
 0002:00000388 00000008H .CRT$XCA                DATA
 0002:00000390 00000008H .CRT$XCAA               DATA
 0002:00000398 00000008H .CRT$XCZ                DATA
 0002:000003a0 00000008H .CRT$XIA                DATA
 0002:000003a8 00000008H .CRT$XIAA               DATA
 0002:000003b0 00000008H .CRT$XIAC               DATA
 0002:000003b8 00000020H .CRT$XIC                DATA
 0002:000003d8 00000008H .CRT$XIZ                DATA
 0002:000003e0 00000008H .CRT$XPA                DATA
 0002:000003e8 00000010H .CRT$XPX                DATA
 0002:000003f8 00000008H .CRT$XPXA               DATA
 0002:00000400 00000008H .CRT$XPZ                DATA
 0002:00000408 00000008H .CRT$XTA                DATA
 0002:00000410 00000010H .CRT$XTZ                DATA
 0002:00000418 00000000H .gehcont$y              DATA
 0002:00000418 00000000H .gfids$y                DATA
 0002:00000420 00010b60H .rdata                  DATA
 0002:00010f80 00000000H .rdata$CastGuardVftablesA DATA
 0002:00010f80 00000000H .rdata$CastGuardVftablesC DATA
 0002:00010f80 0000016cH .rdata$r                DATA
 0002:000110ec 000000dcH .rdata$voltmd           DATA
 0002:000111c8 00000340H .rdata$zzzdbg           DATA
 0002:00011508 00000008H .rtc$IAA                DATA
 0002:00011510 00000008H .rtc$IZZ                DATA
 0002:00011518 00000008H .rtc$TAA                DATA
 0002:00011520 00000010H .rtc$TZZ                DATA
 0002:00011530 00001100H .xdata                  DATA
 0002:00012630 00000084H .xdata$x                DATA
 0002:000126b4 00000000H .edata                  DATA
 0002:000126b4 00000050H .idata$2                DATA
 0002:00012704 00000014H .idata$3                DATA
 0002:00012718 00000360H .idata$4                DATA
 0002:00012a78 00000796H .idata$6                DATA
 0003:00000000 00000a60H .data                   DATA
 0003:00000a60 00000050H .data$r                 DATA
 0003:00000ab0 00000020H .data$rs                DATA
 0003:00000ad0 00001880H .bss                    DATA
 0004:00000000 00002ed4H .pdata                  DATA
 0005:00000000 000000f4H _RDATA                  DATA

  Address         Publics by Value              Rva+Base               Lib:Object

 0000:00000000       __x64_code_ranges_to_entry_points_count 0000000000000000     <absolute>
 0000:00000000       __arm64x_redirection_metadata 0000000000000000     <absolute>
 0000:00000000       __guard_iat_table          0000000000000000     <absolute>
 0000:00000000       __guard_iat_count          0000000000000000     <absolute>
 0000:00000000       __guard_longjmp_count      0000000000000000     <absolute>
 0000:00000000       __guard_longjmp_table      0000000000000000     <absolute>
 0000:00000000       __x64_code_ranges_to_entry_points 0000000000000000     <absolute>
 0000:00000000       __dynamic_value_reloc_table 0000000000000000     <absolute>
 0000:00000000       __hybrid_auxiliary_iat     0000000000000000     <absolute>
 0000:00000000       __hybrid_auxiliary_iat_copy 0000000000000000     <absolute>
 0000:00000000       __guard_fids_count         0000000000000000     <absolute>
 0000:00000000       ___safe_se_handler_table   0000000000000000     <absolute>
 0000:00000000       __arm64x_extra_rfe_table   0000000000000000     <absolute>
 0000:00000000       __AbsoluteZero             0000000000000000     <absolute>
 0000:00000000       __hybrid_code_map          0000000000000000     <absolute>
 0000:00000000       __arm64x_extra_rfe_table_size 0000000000000000     <absolute>
 0000:00000000       ___safe_se_handler_count   0000000000000000     <absolute>
 0000:00000000       __guard_check_icall_a64n_fptr 0000000000000000     <absolute>
 0000:00000000       __guard_fids_table         0000000000000000     <absolute>
 0000:00000000       __guard_eh_cont_count      0000000000000000     <absolute>
 0000:00000000       __arm64x_redirection_metadata_count 0000000000000000     <absolute>
 0000:00000000       __enclave_config           0000000000000000     <absolute>
 0000:00000000       __guard_eh_cont_table      0000000000000000     <absolute>
 0000:00000000       __arm64x_native_entrypoint 0000000000000000     <absolute>
 0000:00000000       __hybrid_code_map_count    0000000000000000     <absolute>
 0000:00000100       __guard_flags              0000000000000100     <absolute>
 0000:00000000       __ImageBase                0000000140000000     <linker-defined>
 0001:00000000       WinMain                    0000000140001000 f   win32_platform.obj
 0001:000001c0       ?UpdateAndRenderStub@@YAXAEAUhy3d_engine@@PEAUengine_memory@@@Z 00000001400011c0 f   win32_platform.obj
 0001:000001e0       ?DEBUGFreeFileMemory@@YAXPEAX@Z 00000001400011e0 f   win32_platform.obj
 0001:00000210       ?DEBUGReadFile@@YA?AUdebug_read_file_result@@PEAD@Z 0000000140001210 f   win32_platform.obj
 0001:00000380       ?DEBUGWriteFile@@YA_NPEADIPEAX@Z 0000000140001380 f   win32_platform.obj
 0001:00001750       ??$?0_J$0A@@?$duration@_JU?$ratio@$00$0DLJKMKAA@@std@@@chrono@std@@QEAA@AEB_J@Z 0000000140002750 f i win32_platform.obj
 0001:00001770       ??0?$time_point@Usteady_clock@chrono@std@@V?$duration@_JU?$ratio@$00$0DLJKMKAA@@std@@@23@@chrono@std@@QEAA@XZ 0000000140002770 f i win32_platform.obj
 0001:00001790       ??0win32_window@@QEAA@XZ   0000000140002790 f i win32_platform.obj
 0001:000017b0       ?Clear@keyboard@@QEAAXXZ   00000001400027b0 f i win32_platform.obj
 0001:000017f0       ?SetPos@mouse@@QEAAXFF@Z   00000001400027f0 f i win32_platform.obj
 0001:00001820       ?SetWheelDelta@mouse@@QEAAXH@Z 0000000140002820 f i win32_platform.obj
 0001:00001840       ?ToggleKey@keyboard@@QEAAXW4KEYBOARD_BUTTON@@@Z 0000000140002840 f i win32_platform.obj
 0001:00001890       ?WheelDelta@mouse@@QEAAHXZ 0000000140002890 f i win32_platform.obj
 0001:000018c0       ?zero@?$duration@_JU?$ratio@$00$0DLJKMKAA@@std@@@chrono@std@@SA?AV123@XZ 00000001400028c0 f i win32_platform.obj
 0001:000018f0       ?get_current_state_index@__crt_state_management@@YA_KXZ 00000001400028f0 f i libucrtd:matherr.obj
 0001:000018f0       ?get_invalid_value@__crt_hmodule_traits@@SAPEAUHINSTANCE__@@XZ 00000001400028f0 f i libucrtd:exit.obj
 0001:000018f0       _get_startup_thread_locale_mode 00000001400028f0 f i LIBCMTD:thread_locale.obj
 0001:000018f0       __scrt_exe_initialize_mta  00000001400028f0 f i LIBCMTD:utility_desktop.obj
 0001:000018f0       __scrt_stub_for_initialize_mta 00000001400028f0 f i LIBCMTD:utility_desktop.obj
 0001:000018f0       _get_startup_new_mode      00000001400028f0 f i LIBCMTD:new_mode.obj
 0001:000018f0       _get_startup_commit_mode   00000001400028f0 f i LIBCMTD:commit_mode.obj
 0001:000018f0       __scrt_initialize_winrt    00000001400028f0 f i LIBCMTD:utility_desktop.obj
 0001:000018f0       ?zero@?$duration_values@_J@chrono@std@@SA_JXZ 00000001400028f0 f i win32_platform.obj
 0001:000018f3       vkEnumerateInstanceExtensionProperties 00000001400028f3 f   vulkan-1:vulkan-1.dll
 0001:00001bb0       ?configure_argv@__scrt_narrow_argv_policy@@SAHXZ 0000000140002bb0 f i LIBCMTD:exe_winmain.obj
 0001:00001bd0       ?initialize_environment@__scrt_narrow_environment_policy@@SAHXZ 0000000140002bd0 f i LIBCMTD:exe_winmain.obj
 0001:00001c20       ?set_app_type@__scrt_winmain_policy@@SAXXZ 0000000140002c20 f i LIBCMTD:exe_winmain.obj
 0001:00001c40       ?set_commode@__scrt_file_policy@@SAXXZ 0000000140002c40 f i LIBCMTD:exe_winmain.obj
 0001:00001c60       ?set_fmode@__scrt_file_policy@@SAXXZ 0000000140002c60 f i LIBCMTD:exe_winmain.obj
 0001:00001c80       WinMainCRTStartup          0000000140002c80 f   LIBCMTD:exe_winmain.obj
 0001:00001e00       NtCurrentTeb               0000000140002e00 f i LIBCMTD:utility.obj
 0001:00001e10       __scrt_acquire_startup_lock 0000000140002e10 f   LIBCMTD:utility.obj
 0001:00001e80       __scrt_initialize_crt      0000000140002e80 f   LIBCMTD:utility.obj
 0001:00001ed0       __scrt_initialize_onexit_tables 0000000140002ed0 f   LIBCMTD:utility.obj
 0001:00001fe0       __scrt_is_nonwritable_in_current_image 0000000140002fe0 f   LIBCMTD:utility.obj
 0001:00002070       __scrt_release_startup_lock 0000000140003070 f   LIBCMTD:utility.obj
 0001:000020a0       __scrt_uninitialize_crt    00000001400030a0 f   LIBCMTD:utility.obj
 0001:000020e0       _onexit                    00000001400030e0 f   LIBCMTD:utility.obj
 0001:00002160       atexit                     0000000140003160 f   LIBCMTD:utility.obj
 0001:00002260       __security_init_cookie     0000000140003260 f   LIBCMTD:gs_support.obj
 0001:000022e0       _matherr                   00000001400032e0 f   LIBCMTD:matherr.obj
 0001:000022e0       ?get_current_state_index@__crt_state_management@@YA_KAEBV__crt_scoped_get_last_error_reset@@@Z 00000001400032e0 f   libucrtd:per_thread_data.obj
 0001:000022f0       _get_startup_argv_mode     00000001400032f0 f   LIBCMTD:argv_mode.obj
 0001:00002300       _get_startup_file_mode     0000000140003300 f   LIBCMTD:file_mode.obj
 0001:00002310       ?__scrt_initialize_type_info@@YAXXZ 0000000140003310 f   LIBCMTD:tncleanup.obj
 0001:00002330       _should_initialize_environment 0000000140003330 f   LIBCMTD:env_mode.obj
 0001:00002340       _initialize_invalid_parameter_handler 0000000140003340 f   LIBCMTD:invalid_parameter_handler.obj
 0001:00002340       _initialize_denormal_control 0000000140003340 f   LIBCMTD:denormal_control.obj
 0001:00002350       __local_stdio_printf_options 0000000140003350 f i LIBCMTD:default_local_stdio_options.obj
 0001:00002360       __local_stdio_scanf_options 0000000140003360 f i LIBCMTD:default_local_stdio_options.obj
 0001:00002370       __scrt_initialize_default_local_stdio_options 0000000140003370 f   LIBCMTD:default_local_stdio_options.obj
 0001:000023c0       __scrt_is_user_matherr_present 00000001400033c0 f   LIBCMTD:matherr_detection.obj
 0001:000023f0       __scrt_get_dyn_tls_init_callback 00000001400033f0 f   LIBCMTD:dyn_tls_init.obj
 0001:00002400       __scrt_get_dyn_tls_dtor_callback 0000000140003400 f   LIBCMTD:dyn_tls_dtor.obj
 0001:00002410       __crt_debugger_hook        0000000140003410 f   LIBCMTD:utility_desktop.obj
 0001:00002420       __scrt_fastfail            0000000140003420 f   LIBCMTD:utility_desktop.obj
 0001:000025c0       __scrt_get_show_window_mode 00000001400035c0 f   LIBCMTD:utility_desktop.obj
 0001:00002620       __scrt_initialize_mta      0000000140003620 f   LIBCMTD:utility_desktop.obj
 0001:00002630       __scrt_is_managed_app      0000000140003630 f   LIBCMTD:utility_desktop.obj
 0001:000026e0       __scrt_set_unhandled_exception_filter 00000001400036e0 f   LIBCMTD:utility_desktop.obj
 0001:00002700       __scrt_unhandled_exception_filter 0000000140003700 f   LIBCMTD:utility_desktop.obj
 0001:000027a0       _RTC_Initialize            00000001400037a0 f   LIBCMTD:initsect.obj
 0001:000027f0       _RTC_Terminate             00000001400037f0 f   LIBCMTD:initsect.obj
 0001:00002840       _guard_check_icall_nop     0000000140003840 f i LIBCMTD:guard_support.obj
 0001:00002840       ??1scoped_global_state_reset@__crt_state_management@@QEAA@XZ 0000000140003840 f i libucrtd:onexit.obj
 0001:00002840       ??1?$__crt_simd_cleanup_guard@$0A@@@QEAA@XZ 0000000140003840 f i libucrtd:strnlen.obj
 0001:00002850       ReadNoFence64              0000000140003850 f i LIBCMTD:guard_support.obj
 0001:00002870       ReadPointerNoFence         0000000140003870 f i LIBCMTD:guard_support.obj
 0001:00002890       _guard_icall_checks_enforced 0000000140003890 f i LIBCMTD:guard_support.obj
 0001:000028d0       __isa_available_init       00000001400038d0 f   LIBCMTD:cpu_disp.obj
 0001:00002c70       __scrt_is_ucrt_dll_in_use  0000000140003c70 f   LIBCMTD:ucrt_detection.obj
 0001:00002ca0       __GSHandlerCheck           0000000140003ca0 f   LIBCMTD:gshandler.obj
 0001:00002ce0       __GSHandlerCheckCommon     0000000140003ce0 f   LIBCMTD:gshandler.obj
 0001:00002df0       __security_check_cookie    0000000140003df0 f   LIBCMTD:amdsecgs.obj
 0001:00002e10       __raise_securityfailure    0000000140003e10 f   LIBCMTD:gs_report.obj
 0001:00002e50       __report_gsfailure         0000000140003e50 f   LIBCMTD:gs_report.obj
 0001:00002f30       __report_rangecheckfailure 0000000140003f30 f   LIBCMTD:gs_report.obj
 0001:00002f50       __report_securityfailure   0000000140003f50 f   LIBCMTD:gs_report.obj
 0001:00003150       __C_specific_handler       0000000140004150 f   libvcruntimed:riscchandler.obj
 0001:000035c0       __vcrt_initialize          00000001400045c0 f   libvcruntimed:initialization.obj
 0001:00003600       __vcrt_uninitialize        0000000140004600 f   libvcruntimed:initialization.obj
 0001:00003620       ??$?RU__crt_lowio_handle_data@@@__crt_internal_free_policy@@QEBAXQEBU__crt_lowio_handle_data@@@Z 0000000140004620 f i libucrtd:osfinfo.obj
 0001:00003620       ??$?RD@__crt_internal_free_policy@@QEBAXQEBD@Z 0000000140004620 f i libvcruntimed:std_type_info.obj
 0001:00003620       ??$?RP6AXXZ@__crt_internal_free_policy@@QEBAXQEBQ6AXXZ@Z 0000000140004620 f i libucrtd:onexit.obj
 0001:00003620       ??$?RU__crt_multibyte_data@@@__crt_internal_free_policy@@QEBAXQEBU__crt_multibyte_data@@@Z 0000000140004620 f i libucrtd:wsetlocale.obj
 0001:00003620       ??$?RE@__crt_internal_free_policy@@QEBAXQEBE@Z 0000000140004620 f i libucrtd:argv_parsing.obj
 0001:00003620       ??$?RPEAU__crt_stdio_stream_data@@@__crt_internal_free_policy@@QEBAXQEBQEAU__crt_stdio_stream_data@@@Z 0000000140004620 f i libucrtd:_file.obj
 0001:00003620       ??$?RPEAD@__crt_internal_free_policy@@QEBAXQEBQEAD@Z 0000000140004620 f i libucrtd:argv_parsing.obj
 0001:00003620       ??$?RU__acrt_ptd@@@__crt_internal_free_policy@@QEBAXQEBU__acrt_ptd@@@Z 0000000140004620 f i libucrtd:per_thread_data.obj
 0001:00003620       ??$?RU__vcrt_ptd@@@__crt_internal_free_policy@@QEBAXQEBU__vcrt_ptd@@@Z 0000000140004620 f i libvcruntimed:per_thread_data.obj
 0001:00003650       ??0?$__crt_unique_handle_t@U__crt_findfile_traits@@@@QEAA@QEAX@Z 0000000140004650 f i libucrtd:argv_wildcards.obj
 0001:00003650       ??0?$__crt_scoped_stack_ptr_tag@_W@@QEAA@QEA_W@Z 0000000140004650 f i libucrtd:getstringtypea.obj
 0001:00003650       ??0?$__crt_unique_handle_t@U__crt_hmodule_traits@@@@QEAA@QEAUHINSTANCE__@@@Z 0000000140004650 f i libucrtd:exit.obj
 0001:00003650       ??0?$__crt_unique_heap_ptr@U__crt_multibyte_data@@U__crt_internal_free_policy@@@@QEAA@QEAU__crt_multibyte_data@@@Z 0000000140004650 f i libucrtd:wsetlocale.obj
 0001:00003650       ??0?$__crt_unique_heap_ptr@U__vcrt_ptd@@U__crt_internal_free_policy@@@@QEAA@QEAU__vcrt_ptd@@@Z 0000000140004650 f i libvcruntimed:per_thread_data.obj
 0001:00003650       ??0?$__crt_unique_heap_ptr@DU__crt_public_free_policy@@@@QEAA@QEAD@Z 0000000140004650 f i libvcruntimed:std_exception.obj
 0001:00003650       ??0__crt_stdio_stream@@QEAA@QEAU__crt_stdio_stream_data@@@Z 0000000140004650 f i libucrtd:fflush.obj
 0001:00003650       ??0?$__crt_unique_heap_ptr@PEAU__crt_stdio_stream_data@@U__crt_internal_free_policy@@@@QEAA@QEAPEAU__crt_stdio_stream_data@@@Z 0000000140004650 f i libucrtd:_file.obj
 0001:00003650       ??0?$__crt_unique_heap_ptr@U__crt_lowio_handle_data@@U__crt_internal_free_policy@@@@QEAA@QEAU__crt_lowio_handle_data@@@Z 0000000140004650 f i libucrtd:osfinfo.obj
 0001:00003650       ??0?$string_output_adapter@_W@__crt_stdio_output@@QEAA@QEAU?$string_output_adapter_context@_W@1@@Z 0000000140004650 f i libucrtd:output.obj
 0001:00003650       ??0?$__crt_unique_heap_ptr@EU__crt_internal_free_policy@@@@QEAA@QEAE@Z 0000000140004650 f i libucrtd:argv_parsing.obj
 0001:00003650       ??0?$__crt_unique_heap_ptr@PEADU__crt_internal_free_policy@@@@QEAA@QEAPEAD@Z 0000000140004650 f i libucrtd:argv_parsing.obj
 0001:00003650       ??0?$__crt_unique_heap_ptr@P6AXXZU__crt_internal_free_policy@@@@QEAA@QEAP6AXXZ@Z 0000000140004650 f i libucrtd:onexit.obj
 0001:00003650       ??0?$__crt_unique_heap_ptr@DU__crt_internal_free_policy@@@@QEAA@QEAD@Z 0000000140004650 f i libvcruntimed:std_type_info.obj
 0001:00003650       ??0?$__crt_scoped_stack_ptr@_W@@QEAA@U?$__crt_scoped_stack_ptr_tag@_W@@@Z 0000000140004650 f i libucrtd:getstringtypea.obj
 0001:00003650       ??0?$__crt_unique_heap_ptr@U__acrt_ptd@@U__crt_internal_free_policy@@@@QEAA@QEAU__acrt_ptd@@@Z 0000000140004650 f i libucrtd:per_thread_data.obj
 0001:00003650       ??0__crt_stdio_stream@@QEAA@QEAU_iobuf@@@Z 0000000140004650 f i libucrtd:output.obj
 0001:00003650       ??0?$string_output_adapter@D@__crt_stdio_output@@QEAA@QEAU?$string_output_adapter_context@D@1@@Z 0000000140004650 f i libucrtd:output.obj
 0001:00003670       ??1?$__crt_unique_heap_ptr@U__vcrt_ptd@@U__crt_internal_free_policy@@@@QEAA@XZ 0000000140004670 f i libvcruntimed:per_thread_data.obj
 0001:00003670       ??1?$__crt_unique_heap_ptr@U__crt_multibyte_data@@U__crt_internal_free_policy@@@@QEAA@XZ 0000000140004670 f i libucrtd:wsetlocale.obj
 0001:00003670       ??1?$__crt_unique_heap_ptr@PEAU__crt_stdio_stream_data@@U__crt_internal_free_policy@@@@QEAA@XZ 0000000140004670 f i libucrtd:_file.obj
 0001:00003670       ??1?$__crt_unique_heap_ptr@DU__crt_internal_free_policy@@@@QEAA@XZ 0000000140004670 f i libvcruntimed:std_type_info.obj
 0001:00003670       ??1?$__crt_unique_heap_ptr@P6AXXZU__crt_internal_free_policy@@@@QEAA@XZ 0000000140004670 f i libucrtd:onexit.obj
 0001:00003670       ??1?$__crt_unique_heap_ptr@EU__crt_internal_free_policy@@@@QEAA@XZ 0000000140004670 f i libucrtd:argv_parsing.obj
 0001:00003670       ??1?$__crt_unique_heap_ptr@U__crt_lowio_handle_data@@U__crt_internal_free_policy@@@@QEAA@XZ 0000000140004670 f i libucrtd:osfinfo.obj
 0001:00003670       ??1?$__crt_unique_heap_ptr@PEADU__crt_internal_free_policy@@@@QEAA@XZ 0000000140004670 f i libucrtd:argv_parsing.obj
 0001:00003670       ??1?$__crt_unique_heap_ptr@U__acrt_ptd@@U__crt_internal_free_policy@@@@QEAA@XZ 0000000140004670 f i libucrtd:per_thread_data.obj
 0001:00003690       ??B?$__crt_unique_heap_ptr@U__crt_multibyte_data@@U__crt_internal_free_policy@@@@QEBA_NXZ 0000000140004690 f i libucrtd:wsetlocale.obj
 0001:00003690       ??B?$__crt_unique_heap_ptr@DU__crt_internal_free_policy@@@@QEBA_NXZ 0000000140004690 f i libvcruntimed:std_type_info.obj
 0001:00003690       ??B?$__crt_unique_heap_ptr@EU__crt_internal_free_policy@@@@QEBA_NXZ 0000000140004690 f i libucrtd:argv_parsing.obj
 0001:00003690       ??B?$__crt_unique_heap_ptr@DU__crt_public_free_policy@@@@QEBA_NXZ 0000000140004690 f i libvcruntimed:std_exception.obj
 0001:00003690       ??B?$__crt_unique_heap_ptr@U__acrt_ptd@@U__crt_internal_free_policy@@@@QEBA_NXZ 0000000140004690 f i libucrtd:per_thread_data.obj
 0001:00003690       ??B?$__crt_unique_heap_ptr@U__vcrt_ptd@@U__crt_internal_free_policy@@@@QEBA_NXZ 0000000140004690 f i libvcruntimed:per_thread_data.obj
 0001:00003690       ??B?$__crt_unique_heap_ptr@U__crt_lowio_handle_data@@U__crt_internal_free_policy@@@@QEBA_NXZ 0000000140004690 f i libucrtd:osfinfo.obj
 0001:000036b0       ?__crt_interlocked_read_64@@YA_JPED_J@Z 00000001400046b0 f i libvcruntimed:std_type_info.obj
 0001:000036d0       ?get@?$__crt_unique_heap_ptr@EU__crt_internal_free_policy@@@@QEBAPEAEXZ 00000001400046d0 f i libucrtd:argv_parsing.obj
 0001:000036d0       ?get@?$__crt_unique_heap_ptr@PEADU__crt_internal_free_policy@@@@QEBAPEAPEADXZ 00000001400046d0 f i libucrtd:argv_parsing.obj
 0001:000036d0       ?get@?$__crt_unique_heap_ptr@DU__crt_internal_free_policy@@@@QEBAPEADXZ 00000001400046d0 f i libvcruntimed:std_type_info.obj
 0001:000036d0       ?get@?$__crt_unique_heap_ptr@U__crt_lowio_handle_data@@U__crt_internal_free_policy@@@@QEBAPEAU__crt_lowio_handle_data@@XZ 00000001400046d0 f i libucrtd:osfinfo.obj
 0001:000036d0       ?get@?$__crt_unique_handle_t@U__crt_hmodule_traits@@@@QEBAPEAUHINSTANCE__@@XZ 00000001400046d0 f i libucrtd:exit.obj
 0001:000036d0       ?save_state@?$c_string_character_source@D@__crt_strtox@@QEBAPEBDXZ 00000001400046d0 f i libucrtd:atox.obj
 0001:000036d0       ?public_stream@__crt_stdio_stream@@QEBAPEAU_iobuf@@XZ 00000001400046d0 f i libucrtd:output.obj
 0001:000036d0       ?get@?$__crt_unique_heap_ptr@U__crt_multibyte_data@@U__crt_internal_free_policy@@@@QEBAPEAU__crt_multibyte_data@@XZ 00000001400046d0 f i libucrtd:wsetlocale.obj
 0001:000036d0       ?get@?$__crt_unique_handle_t@U__crt_findfile_traits@@@@QEBAPEAXXZ 00000001400046d0 f i libucrtd:argv_wildcards.obj
 0001:000036d0       ?save_state@?$c_string_character_source@_W@__crt_strtox@@QEBAPEB_WXZ 00000001400046d0 f i libucrtd:atox.obj
 0001:000036d0       ??C__crt_stdio_stream@@QEBAPEAU__crt_stdio_stream_data@@XZ 00000001400046d0 f i libucrtd:output.obj
 0001:000036d0       ?get@?$__crt_scoped_stack_ptr@_W@@QEBAPEA_WXZ 00000001400046d0 f i libucrtd:getstringtypea.obj
 0001:000036d0       ?get@?$__crt_unique_heap_ptr@DU__crt_public_free_policy@@@@QEBAPEADXZ 00000001400046d0 f i libvcruntimed:std_exception.obj
 0001:000036d0       ?get@?$__crt_unique_heap_ptr@U__vcrt_ptd@@U__crt_internal_free_policy@@@@QEBAPEAU__vcrt_ptd@@XZ 00000001400046d0 f i libvcruntimed:per_thread_data.obj
 0001:000036d0       ?get@?$__crt_unique_heap_ptr@U__acrt_ptd@@U__crt_internal_free_policy@@@@QEBAPEAU__acrt_ptd@@XZ 00000001400046d0 f i libucrtd:per_thread_data.obj
 0001:000036e0       ?is_valid@?$__crt_unique_heap_ptr@DU__crt_internal_free_policy@@@@QEBA_NXZ 00000001400046e0 f i libvcruntimed:std_type_info.obj
 0001:000036e0       ?is_valid@?$__crt_unique_heap_ptr@EU__crt_internal_free_policy@@@@QEBA_NXZ 00000001400046e0 f i libucrtd:argv_parsing.obj
 0001:000036e0       ?is_valid@?$__crt_unique_heap_ptr@U__crt_lowio_handle_data@@U__crt_internal_free_policy@@@@QEBA_NXZ 00000001400046e0 f i libucrtd:osfinfo.obj
 0001:000036e0       ?is_valid@?$__crt_unique_heap_ptr@U__vcrt_ptd@@U__crt_internal_free_policy@@@@QEBA_NXZ 00000001400046e0 f i libvcruntimed:per_thread_data.obj
 0001:000036e0       ?is_valid@?$__crt_unique_heap_ptr@U__crt_multibyte_data@@U__crt_internal_free_policy@@@@QEBA_NXZ 00000001400046e0 f i libucrtd:wsetlocale.obj
 0001:000036e0       ??B?$__crt_scoped_stack_ptr@_W@@QEBA_NXZ 00000001400046e0 f i libucrtd:lcmapstringa.obj
 0001:000036e0       ?is_valid@?$__crt_unique_heap_ptr@U__acrt_ptd@@U__crt_internal_free_policy@@@@QEBA_NXZ 00000001400046e0 f i libucrtd:per_thread_data.obj
 0001:000036e0       ?valid@__crt_stdio_stream@@QEBA_NXZ 00000001400046e0 f i libucrtd:output.obj
 0001:000036e0       ?is_valid@?$__crt_unique_heap_ptr@DU__crt_public_free_policy@@@@QEBA_NXZ 00000001400046e0 f i libvcruntimed:std_exception.obj
 0001:00003710       ?release@?$__crt_unique_heap_ptr@DU__crt_internal_free_policy@@@@QEAAXXZ 0000000140004710 f i libvcruntimed:std_type_info.obj
 0001:00003710       ?release@?$__crt_unique_heap_ptr@EU__crt_internal_free_policy@@@@QEAAXXZ 0000000140004710 f i libucrtd:argv_parsing.obj
 0001:00003710       ?release@?$__crt_unique_heap_ptr@U__acrt_ptd@@U__crt_internal_free_policy@@@@QEAAXXZ 0000000140004710 f i libucrtd:per_thread_data.obj
 0001:00003710       ?release@?$__crt_unique_heap_ptr@U__vcrt_ptd@@U__crt_internal_free_policy@@@@QEAAXXZ 0000000140004710 f i libvcruntimed:per_thread_data.obj
 0001:00003710       ?release@?$__crt_unique_heap_ptr@U__crt_multibyte_data@@U__crt_internal_free_policy@@@@QEAAXXZ 0000000140004710 f i libucrtd:wsetlocale.obj
 0001:00003710       ?release@?$__crt_unique_heap_ptr@P6AXXZU__crt_internal_free_policy@@@@QEAAXXZ 0000000140004710 f i libucrtd:onexit.obj
 0001:00003710       ?release@?$__crt_unique_heap_ptr@U__crt_lowio_handle_data@@U__crt_internal_free_policy@@@@QEAAXXZ 0000000140004710 f i libucrtd:osfinfo.obj
 0001:00003710       ?release@?$__crt_unique_heap_ptr@PEADU__crt_internal_free_policy@@@@QEAAXXZ 0000000140004710 f i libucrtd:argv_parsing.obj
 0001:00003710       ?release@?$__crt_unique_heap_ptr@PEAU__crt_stdio_stream_data@@U__crt_internal_free_policy@@@@QEAAXXZ 0000000140004710 f i libucrtd:_file.obj
 0001:00003740       __std_type_info_compare    0000000140004740 f   libvcruntimed:std_type_info.obj
 0001:00003780       __DestructExceptionObject  0000000140004780 f   libvcruntimed:ehhelpers.obj
 0001:00003880       ?_CallMemberFunction0@@YAXQEAX0@Z 0000000140004880 f i libvcruntimed:ehhelpers.obj
 0001:00003950       _IsExceptionObjectToBeDestroyed 0000000140004950 f   libvcruntimed:ehhelpers.obj
 0001:000039a0       __AdjustPointer            00000001400049a0 f   libvcruntimed:ehhelpers.obj
 0001:00003a20       __FrameUnwindFilter        0000000140004a20 f   libvcruntimed:ehhelpers.obj
 0001:00003ad0       __current_exception        0000000140004ad0 f   libvcruntimed:ehhelpers.obj
 0001:00003af0       __current_exception_context 0000000140004af0 f   libvcruntimed:ehhelpers.obj
 0001:00003b20       _NLG_Notify                0000000140004b20 f   libvcruntimed:notify.obj
 0001:00003b40       __NLG_Dispatch2            0000000140004b40 f   libvcruntimed:notify.obj
 0001:00003b50       __NLG_Return2              0000000140004b50 f   libvcruntimed:notify.obj
 0001:00003b60       __except_validate_context_record 0000000140004b60 f   libvcruntimed:jbcxrval.obj
 0001:00003c00       ?detach@?$__crt_unique_heap_ptr@EU__crt_internal_free_policy@@@@QEAAPEAEXZ 0000000140004c00 f i libucrtd:argv_parsing.obj
 0001:00003c00       ?detach@?$__crt_unique_heap_ptr@PEAU__crt_stdio_stream_data@@U__crt_internal_free_policy@@@@QEAAPEAPEAU__crt_stdio_stream_data@@XZ 0000000140004c00 f i libucrtd:_file.obj
 0001:00003c00       ?detach@?$__crt_unique_heap_ptr@U__crt_lowio_handle_data@@U__crt_internal_free_policy@@@@QEAAPEAU__crt_lowio_handle_data@@XZ 0000000140004c00 f i libucrtd:osfinfo.obj
 0001:00003c00       ?detach@?$__crt_unique_heap_ptr@PEADU__crt_internal_free_policy@@@@QEAAPEAPEADXZ 0000000140004c00 f i libucrtd:argv_parsing.obj
 0001:00003c00       ?detach@?$__crt_unique_heap_ptr@U__vcrt_ptd@@U__crt_internal_free_policy@@@@QEAAPEAU__vcrt_ptd@@XZ 0000000140004c00 f i libvcruntimed:per_thread_data.obj
 0001:00003c00       ?detach@?$__crt_unique_heap_ptr@P6AXXZU__crt_internal_free_policy@@@@QEAAPEAP6AXXZXZ 0000000140004c00 f i libucrtd:onexit.obj
 0001:00003c00       ?detach@?$__crt_unique_heap_ptr@U__acrt_ptd@@U__crt_internal_free_policy@@@@QEAAPEAU__acrt_ptd@@XZ 0000000140004c00 f i libucrtd:per_thread_data.obj
 0001:00003c00       ?detach@?$__crt_unique_heap_ptr@U__crt_multibyte_data@@U__crt_internal_free_policy@@@@QEAAPEAU__crt_multibyte_data@@XZ 0000000140004c00 f i libucrtd:wsetlocale.obj
 0001:00003c00       ?detach@?$__crt_unique_heap_ptr@DU__crt_public_free_policy@@@@QEAAPEADXZ 0000000140004c00 f i libvcruntimed:std_exception.obj
 0001:00003c70       __vcrt_freefls             0000000140004c70 f   libvcruntimed:per_thread_data.obj
 0001:00003cb0       __vcrt_getptd              0000000140004cb0 f   libvcruntimed:per_thread_data.obj
 0001:00003ce0       __vcrt_getptd_noexit       0000000140004ce0 f   libvcruntimed:per_thread_data.obj
 0001:00003e80       __vcrt_initialize_ptd      0000000140004e80 f   libvcruntimed:per_thread_data.obj
 0001:00003ed0       __vcrt_uninitialize_ptd    0000000140004ed0 f   libvcruntimed:per_thread_data.obj
 0001:00003f00       __vcrt_initialize_locks    0000000140004f00 f   libvcruntimed:locks.obj
 0001:00003f70       __vcrt_uninitialize_locks  0000000140004f70 f   libvcruntimed:locks.obj
 0001:00003fd0       _vsprintf_s_l              0000000140004fd0 f i libvcruntimed:undname.obj
 0001:00004040       sprintf_s                  0000000140005040 f i libvcruntimed:undname.obj
 0001:000040a0       ??$__crt_interlocked_exchange_pointer@XPEAX@@YAPEAXPEDSEAXQEAX@Z 00000001400050a0 f i libvcruntimed:winapi_downlevel.obj
 0001:000040a0       ??$__crt_interlocked_exchange_pointer@UHINSTANCE__@@PEAU1@@@YAPEAUHINSTANCE__@@PEDSEAU0@QEAU0@@Z 00000001400050a0 f i libvcruntimed:winapi_downlevel.obj
 0001:000040a0       ??$__crt_interlocked_exchange_pointer@UHINSTANCE__@@PEAX@@YAPEAUHINSTANCE__@@PEDSEAU0@QEAX@Z 00000001400050a0 f i libvcruntimed:winapi_downlevel.obj
 0001:000040c0       ??$__crt_interlocked_read_pointer@X@@YAPEAXPEDSEAX@Z 00000001400050c0 f i libvcruntimed:winapi_downlevel.obj
 0001:000040c0       ??$__crt_interlocked_read_pointer@UHINSTANCE__@@@@YAPEAUHINSTANCE__@@PEDSEAU0@@Z 00000001400050c0 f i libvcruntimed:winapi_downlevel.obj
 0001:000040e0       ?get_invalid_value@__crt_findfile_traits@@SAPEAXXZ 00000001400050e0 f   libucrtd:argv_wildcards.obj
 0001:000045d0       __vcrt_FlsAlloc            00000001400055d0 f   libvcruntimed:winapi_downlevel.obj
 0001:00004620       __vcrt_FlsFree             0000000140005620 f   libvcruntimed:winapi_downlevel.obj
 0001:00004670       __vcrt_FlsGetValue         0000000140005670 f   libvcruntimed:winapi_downlevel.obj
 0001:000046c0       __vcrt_FlsSetValue         00000001400056c0 f   libvcruntimed:winapi_downlevel.obj
 0001:00004720       __vcrt_InitializeCriticalSectionEx 0000000140005720 f   libvcruntimed:winapi_downlevel.obj
 0001:000047a0       memcpy_repmovs             00000001400057a0 f   libvcruntimed:memcpy.obj
 0001:000047c0       memmove                    00000001400057c0 f   libvcruntimed:memcpy.obj
 0001:000047c0       memcpy                     00000001400057c0 f   libvcruntimed:memcpy.obj
 0001:00004e40       ??$?0AEAViterator@TryBlockMap@__FrameHandler3@@AEAV012@$0A@@?$pair@Viterator@TryBlockMap@__FrameHandler3@@V123@@std@@QEAA@AEAViterator@TryBlockMap@__FrameHandler3@@0@Z 0000000140005e40 f i libvcruntimed:risctrnsctrl.obj
 0001:00004f50       ??$_CallSETranslator@V__FrameHandler3@@@@YAHPEAUEHExceptionRecord@@PEA_KPEAU_CONTEXT@@PEAU_xDISPATCHER_CONTEXT@@PEBU_s_FuncInfo@@K1H@Z 0000000140005f50 f i libvcruntimed:risctrnsctrl.obj
 0001:00004fe0       ?get_address_of@?$__crt_unique_heap_ptr@PEADU__crt_internal_free_policy@@@@QEAAPEAPEAPEADXZ 0000000140005fe0 f i libucrtd:argv_parsing.obj
 0001:00004fe0       ?debug_info@?$__crt_win32_buffer@_WU__crt_win32_buffer_internal_dynamic_resizing@@@@QEBAAEBV__crt_win32_buffer_empty_debug_info@@XZ 0000000140005fe0 f i libucrtd:argv_wildcards.obj
 0001:00004fe0       ?dangerous_get_state_array@?$dual_state_global@P6AXPEB_W00I_K@Z@__crt_state_management@@QEAAPEAP6AXPEB_W00I_K@ZXZ 0000000140005fe0 f i libucrtd:invalid_parameter.obj
 0001:00004fe0       ??$forward@AEAViterator@TryBlockMap@__FrameHandler3@@@std@@YAAEAViterator@TryBlockMap@__FrameHandler3@@AEAV123@@Z 0000000140005fe0 f i libvcruntimed:risctrnsctrl.obj
 0001:00004fe0       ?dangerous_get_state_array@?$dual_state_global@PEAE@__crt_state_management@@QEAAPEAPEAEXZ 0000000140005fe0 f i libucrtd:mbctype.obj
 0001:00004fe0       ?debug_info@?$__crt_win32_buffer@DU__crt_win32_buffer_no_resizing@@@@QEBAAEBV__crt_win32_buffer_empty_debug_info@@XZ 0000000140005fe0 f i libucrtd:getmodulefilenamea.obj
 0001:00004fe0       ?debug_info@?$__crt_win32_buffer@DU__crt_win32_buffer_internal_dynamic_resizing@@@@QEBAAEBV__crt_win32_buffer_empty_debug_info@@XZ 0000000140005fe0 f i libucrtd:argv_wildcards.obj
 0001:00004fe0       ?dangerous_get_state_array@?$dual_state_global@H@__crt_state_management@@QEAAPEAHXZ 0000000140005fe0 f i libucrtd:txtmode.obj
 0001:00004fe0       ?dangerous_get_state_array@?$dual_state_global@PEAU__crt_multibyte_data@@@__crt_state_management@@QEAAPEAPEAU__crt_multibyte_data@@XZ 0000000140005fe0 f i libucrtd:mbctype.obj
 0001:00004fe0       ?dangerous_get_state_array@?$dual_state_global@PEAU__crt_locale_data@@@__crt_state_management@@QEAAPEAPEAU__crt_locale_data@@XZ 0000000140005fe0 f i libucrtd:per_thread_data.obj
 0001:00004fe0       ?get_address_of@?$__crt_unique_handle_t@U__crt_hmodule_traits@@@@QEAAPEAPEAUHINSTANCE__@@XZ 0000000140005fe0 f i libucrtd:exit.obj
 0001:00004ff0       ??0iterator@HandlerMap@__FrameHandler3@@QEAA@AEAV12@I@Z 0000000140005ff0 f i libvcruntimed:frame.obj
 0001:00004ff0       ??0iterator@TryBlockMap@__FrameHandler3@@QEAA@AEAV12@I@Z 0000000140005ff0 f i libvcruntimed:risctrnsctrl.obj
 0001:00005020       ?CatchTryBlock@__FrameHandler3@@SAPEBU_s_TryBlockMapEntry@@PEBU_s_FuncInfo@@H@Z 0000000140006020 f   libvcruntimed:risctrnsctrl.obj
 0001:000050b0       ?ExecutionInCatch@__FrameHandler3@@SA_NPEAU_xDISPATCHER_CONTEXT@@PEBU_s_FuncInfo@@@Z 00000001400060b0 f   libvcruntimed:risctrnsctrl.obj
 0001:00005100       ?FrameUnwindToEmptyState@__FrameHandler3@@SAXPEA_KPEAU_xDISPATCHER_CONTEXT@@PEBU_s_FuncInfo@@@Z 0000000140006100 f   libvcruntimed:risctrnsctrl.obj
 0001:000051a0       ?GetEstablisherFrame@__FrameHandler3@@SAPEA_KPEA_KPEAU_xDISPATCHER_CONTEXT@@PEBU_s_FuncInfo@@0@Z 00000001400061a0 f   libvcruntimed:risctrnsctrl.obj
 0001:00005310       ?GetRangeOfTrysToCheck@__FrameHandler3@@SA?AU?$pair@Viterator@TryBlockMap@__FrameHandler3@@V123@@std@@AEAVTryBlockMap@1@HPEAU_xDISPATCHER_CONTEXT@@PEBU_s_FuncInfo@@H@Z 0000000140006310 f   libvcruntimed:risctrnsctrl.obj
 0001:00005550       ?UnwindNestedFrames@__FrameHandler3@@SAXPEA_KPEAUEHExceptionRecord@@PEAU_CONTEXT@@0PEAXPEBU_s_FuncInfo@@HHPEBU_s_HandlerType@@PEAU_xDISPATCHER_CONTEXT@@E@Z 0000000140006550 f   libvcruntimed:risctrnsctrl.obj
 0001:000056c0       _CreateFrameInfo           00000001400066c0 f   libvcruntimed:risctrnsctrl.obj
 0001:00005730       _FindAndUnlinkFrame        0000000140006730 f   libvcruntimed:risctrnsctrl.obj
 0001:000057b0       _GetImageBase              00000001400067b0 f   libvcruntimed:risctrnsctrl.obj
 0001:000057d0       _GetThrowImageBase         00000001400067d0 f   libvcruntimed:risctrnsctrl.obj
 0001:000057f0       _SetImageBase              00000001400067f0 f   libvcruntimed:risctrnsctrl.obj
 0001:00005810       _SetThrowImageBase         0000000140006810 f   libvcruntimed:risctrnsctrl.obj
 0001:00005830       __CxxFrameHandler3         0000000140006830 f   libvcruntimed:risctrnsctrl.obj
 0001:00005910       ?GetCurrentState@__FrameHandler3@@SAHPEA_KPEAU_xDISPATCHER_CONTEXT@@PEBU_s_FuncInfo@@@Z 0000000140006910 f   libvcruntimed:ehstate.obj
 0001:00005970       ?GetUnwindTryBlock@__FrameHandler3@@SAHPEA_KPEAU_xDISPATCHER_CONTEXT@@PEBU_s_FuncInfo@@@Z 0000000140006970 f   libvcruntimed:ehstate.obj
 0001:000059c0       ?SetState@__FrameHandler3@@SAXPEA_KPEBU_s_FuncInfo@@H@Z 00000001400069c0 f   libvcruntimed:ehstate.obj
 0001:000059f0       ?SetUnwindTryBlock@__FrameHandler3@@SAXPEA_KPEAU_xDISPATCHER_CONTEXT@@PEBU_s_FuncInfo@@H@Z 00000001400069f0 f   libvcruntimed:ehstate.obj
 0001:00005a60       ?StateFromControlPc@__FrameHandler3@@SAHPEBU_s_FuncInfo@@PEAU_xDISPATCHER_CONTEXT@@@Z 0000000140006a60 f   libvcruntimed:ehstate.obj
 0001:00005aa0       ?StateFromIp@__FrameHandler3@@SAHPEBU_s_FuncInfo@@PEAU_xDISPATCHER_CONTEXT@@_K@Z 0000000140006aa0 f   libvcruntimed:ehstate.obj
 0001:00005b90       ?__RVAtoRealOffset@@YA_KPEAU_xDISPATCHER_CONTEXT@@H@Z 0000000140006b90 f i libvcruntimed:ehstate.obj
 0001:00006d60       ??$TypeMatchHelper@V__FrameHandler3@@@@YAHPEBU_s_HandlerType@@PEBU_s_CatchableType@@PEBU_s_ThrowInfo@@@Z 0000000140007d60 f i libvcruntimed:frame.obj
 0001:00006f60       ??$__InternalCxxFrameHandler@V__FrameHandler3@@@@YA?AW4_EXCEPTION_DISPOSITION@@PEAUEHExceptionRecord@@PEA_KPEAU_CONTEXT@@PEAU_xDISPATCHER_CONTEXT@@PEBU_s_FuncInfo@@H1E@Z 0000000140007f60 f i libvcruntimed:frame.obj
 0001:000073d0       ??0HandlerMap@__FrameHandler3@@QEAA@PEBU_s_TryBlockMapEntry@@_KI@Z 00000001400083d0 f i libvcruntimed:frame.obj
 0001:00007420       ??0TryBlockMap@__FrameHandler3@@QEAA@PEBU_s_FuncInfo@@_K@Z 0000000140008420 f i libvcruntimed:frame.obj
 0001:00007450       ??0bad_exception@std@@QEAA@AEBV01@@Z 0000000140008450 f i libvcruntimed:frame.obj
 0001:00007490       ??0bad_exception@std@@QEAA@XZ 0000000140008490 f i libvcruntimed:frame.obj
 0001:000074d0       ??0exception@std@@QEAA@AEBV01@@Z 00000001400084d0 f i libvcruntimed:frame.obj
 0001:00007530       ??0exception@std@@QEAA@QEBDH@Z 0000000140008530 f i libvcruntimed:frame.obj
 0001:00007580       ??1bad_exception@std@@UEAA@XZ 0000000140008580 f i libvcruntimed:frame.obj
 0001:000075a0       ??1exception@std@@UEAA@XZ  00000001400085a0 f i libvcruntimed:frame.obj
 0001:000075d0       ??8iterator@HandlerMap@__FrameHandler3@@QEBA_NAEBV012@@Z 00000001400085d0 f i libvcruntimed:frame.obj
 0001:00007610       ??8type_info@@QEBA_NAEBV0@@Z 0000000140008610 f i libvcruntimed:frame.obj
 0001:00007660       ??9iterator@HandlerMap@__FrameHandler3@@QEBA_NAEBV012@@Z 0000000140008660 f i libvcruntimed:frame.obj
 0001:000076a0       ??Diterator@HandlerMap@__FrameHandler3@@QEAA?BU_s_HandlerType@@XZ 00000001400086a0 f i libvcruntimed:frame.obj
 0001:000076e0       ??Diterator@TryBlockMap@__FrameHandler3@@QEAA?BU_s_TryBlockMapEntry@@XZ 00000001400086e0 f i libvcruntimed:frame.obj
 0001:00007730       ??Eiterator@TryBlockMap@__FrameHandler3@@QEAAAEAV012@XZ 0000000140008730 f i libvcruntimed:frame.obj
 0001:00007730       ??Eiterator@HandlerMap@__FrameHandler3@@QEAAAEAV012@XZ 0000000140008730 f i libvcruntimed:frame.obj
 0001:00007750       ??Miterator@TryBlockMap@__FrameHandler3@@QEBA_NAEBV012@@Z 0000000140008750 f i libvcruntimed:frame.obj
 0001:00007790       ??_Ebad_exception@std@@UEAAPEAXI@Z 0000000140008790 f i libvcruntimed:frame.obj
 0001:00007790       ??_Gbad_exception@std@@UEAAPEAXI@Z 0000000140008790 f i libvcruntimed:frame.obj
 0001:000077d0       ??_Eexception@std@@UEAAPEAXI@Z 00000001400087d0 f i libvcruntimed:frame.obj
 0001:000077d0       ??_Gexception@std@@UEAAPEAXI@Z 00000001400087d0 f i libvcruntimed:frame.obj
 0001:00007810       ?BuildCatchObject@__FrameHandler3@@SAXPEAUEHExceptionRecord@@PEAXPEBU_s_HandlerType@@PEBU_s_CatchableType@@@Z 0000000140008810 f   libvcruntimed:frame.obj
 0001:00007850       ?CxxCallCatchBlock@__FrameHandler3@@SAPEAXPEAU_EXCEPTION_RECORD@@@Z 0000000140008850 f   libvcruntimed:frame.obj
 0001:00007bb0       ?FrameUnwindToState@__FrameHandler3@@SAXPEA_KPEAU_xDISPATCHER_CONTEXT@@PEBU_s_FuncInfo@@H@Z 0000000140008bb0 f   libvcruntimed:frame.obj
 0001:00007e00       ?GetHandlerSearchState@__FrameHandler3@@SAHPEA_KPEAU_xDISPATCHER_CONTEXT@@PEBU_s_FuncInfo@@@Z 0000000140008e00 f i libvcruntimed:frame.obj
 0001:00007eb0       ?GetMaxState@__FrameHandler3@@SAHPEAU_xDISPATCHER_CONTEXT@@PEBU_s_FuncInfo@@@Z 0000000140008eb0 f i libvcruntimed:frame.obj
 0001:000080b0       ?TypeMatch@__FrameHandler3@@SAHPEBU_s_HandlerType@@PEBU_s_CatchableType@@PEBU_s_ThrowInfo@@@Z 00000001400090b0 f   libvcruntimed:frame.obj
 0001:000080b0       __TypeMatch                00000001400090b0 f   libvcruntimed:frame.obj
 0001:000080e0       ?_CallMemberFunction1@@YAXQEAX00@Z 00000001400090e0 f i libvcruntimed:frame.obj
 0001:00008120       ?_CallMemberFunction2@@YAXQEAX00H@Z 0000000140009120 f i libvcruntimed:frame.obj
 0001:000081b0       ?begin@HandlerMap@__FrameHandler3@@QEAA?AViterator@12@XZ 00000001400091b0 f i libvcruntimed:frame.obj
 0001:000081e0       ?end@HandlerMap@__FrameHandler3@@QEAA?AViterator@12@XZ 00000001400091e0 f i libvcruntimed:frame.obj
 0001:00008210       ?getESTypes@__FrameHandler3@@SAPEBU_s_ESTypeList@@PEBU_s_FuncInfo@@@Z 0000000140009210 f i libvcruntimed:frame.obj
 0001:00008250       ?getLastEntry@HandlerMap@__FrameHandler3@@QEAAPEBU_s_HandlerType@@XZ 0000000140009250 f i libvcruntimed:frame.obj
 0001:00008270       ?getMagicNum@__FrameHandler3@@SAIPEBU_s_FuncInfo@@@Z 0000000140009270 f i libvcruntimed:frame.obj
 0001:00008290       ?getNumTryBlocks@TryBlockMap@__FrameHandler3@@QEAAIXZ 0000000140009290 f i libvcruntimed:frame.obj
 0001:000082b0       ?isEHs@__FrameHandler3@@SA_NPEBU_s_FuncInfo@@@Z 00000001400092b0 f i libvcruntimed:frame.obj
 0001:000082f0       ?isNoExcept@__FrameHandler3@@SA_NPEBU_s_FuncInfo@@@Z 00000001400092f0 f i libvcruntimed:frame.obj
 0001:00008330       ?what@exception@std@@UEBAPEBDXZ 0000000140009330 f i libvcruntimed:frame.obj
 0001:00008370       __vcrt_EncodePointer       0000000140009370 f i libvcruntimed:frame.obj
 0001:000083a0       memset_repmovs             00000001400093a0 f   libvcruntimed:memset.obj
 0001:000083c0       memset                     00000001400093c0 f   libvcruntimed:memset.obj
 0001:00008560       _CallSettingFrame          0000000140009560 f   libvcruntimed:handlers.obj
 0001:000085b0       _CallSettingFrame_LookupContinuationIndex 00000001400095b0 f   libvcruntimed:handlers.obj
 0001:000085e0       _CallSettingFrame_NotifyContinuationAddr 00000001400095e0 f   libvcruntimed:handlers.obj
 0001:00008610       _CallSettingFrameEncoded   0000000140009610 f   libvcruntimed:handlers.obj
 0001:00008660       ??$?RD@__crt_public_free_policy@@QEBAXQEBD@Z 0000000140009660 f i libvcruntimed:std_exception.obj
 0001:00008680       ??1?$__crt_unique_heap_ptr@DU__crt_public_free_policy@@@@QEAA@XZ 0000000140009680 f i libvcruntimed:std_exception.obj
 0001:000086a0       ?release@?$__crt_unique_heap_ptr@DU__crt_public_free_policy@@@@QEAAXXZ 00000001400096a0 f i libvcruntimed:std_exception.obj
 0001:000086d0       __std_exception_copy       00000001400096d0 f   libvcruntimed:std_exception.obj
 0001:00008810       __std_exception_destroy    0000000140009810 f   libvcruntimed:std_exception.obj
 0001:00008850       _CxxThrowException         0000000140009850 f   libvcruntimed:throw.obj
 0001:000089f0       _seh_filter_exe            00000001400099f0 f   libucrtd:exception_filter.obj
 0001:00008e60       __acrt_report_runtime_error 0000000140009e60 f   libucrtd:report_runtime_error.obj
 0001:000090e0       _invoke_watson_if_error    000000014000a0e0 f i libucrtd:report_runtime_error.obj
 0001:00009130       _query_app_type            000000014000a130 f   libucrtd:report_runtime_error.obj
 0001:00009140       _set_app_type              000000014000a140 f   libucrtd:report_runtime_error.obj
 0001:00009150       ??$__crt_fast_decode_pointer@P6AXPEB_W00I_K@Z@@YAP6AXPEB_W00I_K@ZQ6AX000I1@Z@Z 000000014000a150 f i libucrtd:invalid_parameter.obj
 0001:00009150       ??$__crt_fast_decode_pointer@P6AXXZ@@YAP6AXXZQ6AXXZ@Z 000000014000a150 f i libucrtd:onexit.obj
 0001:00009150       ??$__crt_fast_decode_pointer@PEAX@@YAPEAXQEAX@Z 000000014000a150 f i libucrtd:winapi_thunks.obj
 0001:00009150       ??$__crt_fast_decode_pointer@P6AH_K@Z@@YAP6AH_K@ZQ6AH0@Z@Z 000000014000a150 f i libucrtd:new_handler.obj
 0001:00009150       ??$__crt_fast_decode_pointer@P6AXH@Z@@YAP6AXH@ZQ6AXH@Z@Z 000000014000a150 f i libucrtd:signal.obj
 0001:00009150       ??$__crt_fast_decode_pointer@P6AHPEAU_exception@@@Z@@YAP6AHPEAU_exception@@@ZQ6AH0@Z@Z 000000014000a150 f i libucrtd:matherr.obj
 0001:00009150       ??$__crt_fast_decode_pointer@PEAP6AXXZ@@YAPEAP6AXXZQEAP6AXXZ@Z 000000014000a150 f i libucrtd:onexit.obj
 0001:00009150       ??$__crt_fast_decode_pointer@P6AXPEAXK0@Z@@YAP6AXPEAXK0@ZQ6AX0K0@Z@Z 000000014000a150 f i libucrtd:exit.obj
 0001:00009190       ??$__crt_fast_encode_pointer@PEAX@@YAPEAXQEAX@Z 000000014000a190 f i libucrtd:initialization.obj
 0001:00009190       ??$__crt_fast_encode_pointer@P6AHXZ@@YAP6AHXZQ6AHXZ@Z 000000014000a190 f i libucrtd:onexit.obj
 0001:00009190       ??$__crt_fast_encode_pointer@P6AXH@Z@@YAP6AXH@ZQ6AXH@Z@Z 000000014000a190 f i libucrtd:signal.obj
 0001:00009190       ??$__crt_fast_encode_pointer@P6AHPEAU_exception@@@Z@@YAP6AHPEAU_exception@@@ZQ6AH0@Z@Z 000000014000a190 f i libucrtd:matherr.obj
 0001:00009190       ??$__crt_fast_encode_pointer@PEAP6AXXZ@@YAPEAP6AXXZQEAP6AXXZ@Z 000000014000a190 f i libucrtd:onexit.obj
 0001:00009190       ??$__crt_fast_encode_pointer@P6AXXZ@@YAP6AXXZQ6AXXZ@Z 000000014000a190 f i libucrtd:onexit.obj
 0001:00009190       ??$__crt_fast_encode_pointer@P6AXPEAXK0@Z@@YAP6AXPEAXK0@ZQ6AX0K0@Z@Z 000000014000a190 f i libucrtd:exit.obj
 0001:000091d0       ?__crt_rotate_pointer_value@@YA_K_KH@Z 000000014000a1d0 f i libucrtd:matherr.obj
 0001:000091f0       ?initialize@?$dual_state_global@PEAU__crt_locale_data@@@__crt_state_management@@QEAAXQEAU__crt_locale_data@@@Z 000000014000a1f0 f i libucrtd:initialization.obj
 0001:000091f0       ?initialize@?$dual_state_global@PEAU__crt_multibyte_data@@@__crt_state_management@@QEAAXQEAU__crt_multibyte_data@@@Z 000000014000a1f0 f i libucrtd:mbctype.obj
 0001:000091f0       ?initialize@?$dual_state_global@P6AH_K@Z@__crt_state_management@@QEAAXQ6AH_K@Z@Z 000000014000a1f0 f i libucrtd:new_handler.obj
 0001:000091f0       ?initialize@?$dual_state_global@P6AHPEAU_exception@@@Z@__crt_state_management@@QEAAXQ6AHPEAU_exception@@@Z@Z 000000014000a1f0 f i libucrtd:matherr.obj
 0001:000091f0       ?initialize@?$dual_state_global@P6AXH@Z@__crt_state_management@@QEAAXQ6AXH@Z@Z 000000014000a1f0 f i libucrtd:signal.obj
 0001:00009240       ?value@?$dual_state_global@PEAU__crt_locale_data@@@__crt_state_management@@QEAAAEAPEAU__crt_locale_data@@XZ 000000014000a240 f i libucrtd:wsetlocale.obj
 0001:00009240       ?value@?$dual_state_global@PEAU__crt_multibyte_data@@@__crt_state_management@@QEAAAEAPEAU__crt_multibyte_data@@XZ 000000014000a240 f i libucrtd:mbctype.obj
 0001:00009240       ?value@?$dual_state_global@PEAE@__crt_state_management@@QEAAAEAPEAEXZ 000000014000a240 f i libucrtd:mbctype.obj
 0001:00009240       ?value@?$dual_state_global@P6AHPEAU_exception@@@Z@__crt_state_management@@QEAAAEAP6AHPEAU_exception@@@ZXZ 000000014000a240 f i libucrtd:matherr.obj
 0001:00009240       ?value@?$dual_state_global@P6AXH@Z@__crt_state_management@@QEAAAEAP6AXH@ZXZ 000000014000a240 f i libucrtd:signal.obj
 0001:00009240       ?value@?$dual_state_global@P6AH_K@Z@__crt_state_management@@QEAAAEAP6AH_K@ZXZ 000000014000a240 f i libucrtd:new_handler.obj
 0001:00009240       ?value@?$dual_state_global@P6AXPEB_W00I_K@Z@__crt_state_management@@QEAAAEAP6AXPEB_W00I_K@ZXZ 000000014000a240 f i libucrtd:invalid_parameter.obj
 0001:00009260       __acrt_has_user_matherr    000000014000a260 f   libucrtd:matherr.obj
 0001:000092a0       __acrt_initialize_user_matherr 000000014000a2a0 f   libucrtd:matherr.obj
 0001:000092c0       __acrt_invoke_user_matherr 000000014000a2c0 f   libucrtd:matherr.obj
 0001:00009310       __setusermatherr           000000014000a310 f   libucrtd:matherr.obj
 0001:000096e0       ??$get_module_file_name@AEAPEAUHINSTANCE__@@AEAY0BAF@DK@?$__crt_char_traits@D@@SAKAEAPEAUHINSTANCE__@@AEAY0BAF@D$$QEAK@Z 000000014000a6e0 f i libucrtd:dbgrpt.obj
 0001:000096e0       ??$get_module_file_name@$$TAEAY0BAF@DH@?$__crt_char_traits@D@@SAK$$QEA$$TAEAY0BAF@D$$QEAH@Z 000000014000a6e0 f i libucrtd:argv_parsing.obj
 0001:00009bb0       ??$set_program_name@PEAD@?$__crt_char_traits@D@@SAX$$QEAPEAD@Z 000000014000abb0 f i libucrtd:argv_parsing.obj
 0001:00009ce0       __acrt_allocate_buffer_for_argv 000000014000ace0 f   libucrtd:argv_parsing.obj
 0001:00009e00       _configure_narrow_argv     000000014000ae00 f   libucrtd:argv_parsing.obj
 0001:00009e20       _set_pgmptr                000000014000ae20 f i libucrtd:argv_parsing.obj
 0001:0000a050       ??$tcslen@AEAPEAD@?$__crt_char_traits@D@@SA_KAEAPEAD@Z 000000014000b050 f i libucrtd:environment_initialization.obj
 0001:0000a09c       ??B?$__crt_unique_heap_ptr@PEADU__crt_internal_free_policy@@@@QEBA_NXZ 000000014000b09c f i libucrtd:environment_initialization.obj
 0001:0000a0a4       ?detach@?$__crt_unique_heap_ptr@DU__crt_internal_free_policy@@@@QEAAPEADXZ 000000014000b0a4 f i libucrtd:environment_initialization.obj
 0001:0000a0ac       __dcrt_uninitialize_environments_nolock 000000014000b0ac f   libucrtd:environment_initialization.obj
 0001:0000a0e4       _initialize_narrow_environment 000000014000b0e4 f   libucrtd:environment_initialization.obj
 0001:0000a230       _get_narrow_winmain_command_line 000000014000b230 f   libucrtd:argv_winmain.obj
 0001:0000a240       _initterm                  000000014000b240 f   libucrtd:initterm.obj
 0001:0000a2a0       _initterm_e                000000014000b2a0 f   libucrtd:initterm.obj
 0001:0000a320       ??$?B$$A6AXH@Z@__crt_fast_encoded_nullptr_t@@QEBAP6AXH@ZXZ 000000014000b320 f i libucrtd:signal.obj
 0001:0000a320       ??$?BX@__crt_fast_encoded_nullptr_t@@QEBAPEAXXZ 000000014000b320 f i libucrtd:initialization.obj
 0001:0000a320       ??$?B$$A6AXXZ@__crt_fast_encoded_nullptr_t@@QEBAP6AXXZXZ 000000014000b320 f i libucrtd:onexit.obj
 0001:0000a320       ??$?BP6AXXZ@__crt_fast_encoded_nullptr_t@@QEBAPEAP6AXXZXZ 000000014000b320 f i libucrtd:onexit.obj
 0001:0000a320       ??$?B$$A6AXPEAXK0@Z@__crt_fast_encoded_nullptr_t@@QEBAP6AXPEAXK0@ZXZ 000000014000b320 f i libucrtd:exit.obj
 0001:0000a3d0       ??$__crt_get_proc_address@P6AXI@Z@@YAP6AXI@ZQEAUHINSTANCE__@@QEBD@Z 000000014000b3d0 f i libucrtd:exit.obj
 0001:0000a400       ??$__crt_interlocked_read@J@@YAJPEDJ@Z 000000014000b400 f i libucrtd:exit.obj
 0001:0000a490       ??1?$__crt_unique_handle_t@U__crt_hmodule_traits@@@@QEAA@XZ 000000014000b490 f i libucrtd:exit.obj
 0001:0000a5f0       ?__acrt_select_exit_lock@@YA?AW4__acrt_lock_id@@XZ 000000014000b5f0 f i libucrtd:exit.obj
 0001:0000a600       ?__crt_fast_encode_pointer@@YA?AU__crt_fast_encoded_nullptr_t@@$$T@Z 000000014000b600 f i libucrtd:exit.obj
 0001:0000a620       ?__crt_interlocked_read_32@@YAHPEDH@Z 000000014000b620 f i libucrtd:exit.obj
 0001:0000a660       ?close@?$__crt_unique_handle_t@U__crt_hmodule_traits@@@@QEAAXXZ 000000014000b660 f i libucrtd:exit.obj
 0001:0000a6a0       ?close@__crt_hmodule_traits@@SA_NPEAUHINSTANCE__@@@Z 000000014000b6a0 f i libucrtd:exit.obj
 0001:0000a960       __acrt_initialize_thread_local_exit_callback 000000014000b960 f   libucrtd:exit.obj
 0001:0000a980       _c_exit                    000000014000b980 f   libucrtd:exit.obj
 0001:0000a9a0       _cexit                     000000014000b9a0 f   libucrtd:exit.obj
 0001:0000a9c0       _exit                      000000014000b9c0 f   libucrtd:exit.obj
 0001:0000a9e0       _register_thread_local_exe_atexit_callback 000000014000b9e0 f   libucrtd:exit.obj
 0001:0000aa30       exit                       000000014000ba30 f   libucrtd:exit.obj
 0001:0000aa50       ?value@?$dual_state_global@H@__crt_state_management@@QEAAAEAHXZ 000000014000ba50 f i libucrtd:setmode.obj
 0001:0000aa50       ?value@?$dual_state_global@J@__crt_state_management@@QEAAAEAJXZ 000000014000ba50 f i libucrtd:new_mode.obj
 0001:0000aa70       _set_fmode                 000000014000ba70 f   libucrtd:setmode.obj
 0001:0000acb0       __acrt_disable_global_locale_sync 000000014000bcb0 f i libucrtd:wsetlocale.obj
 0001:0000ace0       __acrt_enable_global_locale_sync 000000014000bce0 f i libucrtd:wsetlocale.obj
 0001:0000ad10       __acrt_set_locale_changed  000000014000bd10 f   libucrtd:wsetlocale.obj
 0001:0000ad20       __acrt_uninitialize_locale 000000014000bd20 f   libucrtd:wsetlocale.obj
 0001:0000ad50       __ascii_tolower            000000014000bd50 f i libucrtd:wsetlocale.obj
 0001:0000ad70       __ascii_towlower           000000014000bd70 f i libucrtd:wsetlocale.obj
 0001:0000ad90       _configthreadlocale        000000014000bd90 f   libucrtd:wsetlocale.obj
 0001:0000aef0       _query_new_mode            000000014000bef0 f   libucrtd:new_mode.obj
 0001:0000af10       _set_new_mode              000000014000bf10 f   libucrtd:new_mode.obj
 0001:0000afe0       __p__commode               000000014000bfe0 f   libucrtd:ncommode.obj
 0001:0000b670       _crt_atexit                000000014000c670 f   libucrtd:onexit.obj
 0001:0000b690       _execute_onexit_table      000000014000c690 f   libucrtd:onexit.obj
 0001:0000b6d0       _initialize_onexit_table   000000014000c6d0 f   libucrtd:onexit.obj
 0001:0000b750       _register_onexit_function  000000014000c750 f   libucrtd:onexit.obj
 0001:0000b7e0       __acrt_uninitialize_command_line 000000014000c7e0 f   libucrtd:argv_data.obj
 0001:0000ba40       __acrt_initialize          000000014000ca40 f   libucrtd:initialization.obj
 0001:0000ba70       __acrt_uninitialize        000000014000ca70 f   libucrtd:initialization.obj
 0001:0000baa0       terminate                  000000014000caa0 f   libucrtd:terminate.obj
 0001:0000bae0       ??0_LocaleUpdate@@QEAA@QEAU__crt_locale_pointers@@@Z 000000014000cae0 f i libucrtd:debug_heap.obj
 0001:0000bc00       ??1_LocaleUpdate@@QEAA@XZ  000000014000cc00 f i libucrtd:debug_heap.obj
 0001:0000bc30       ?GetLocaleT@_LocaleUpdate@@QEAAPEAU__crt_locale_pointers@@XZ 000000014000cc30 f i libucrtd:debug_heap.obj
 0001:0000dc10       _CrtCheckMemory            000000014000ec10 f   libucrtd:debug_heap.obj
 0001:0000dda0       _CrtDumpMemoryLeaks        000000014000eda0 f   libucrtd:debug_heap.obj
 0001:0000de60       _CrtIsValidHeapPointer     000000014000ee60 f   libucrtd:debug_heap.obj
 0001:0000dea0       _CrtIsValidPointer         000000014000eea0 f   libucrtd:debug_heap.obj
 0001:0000dee0       _CrtMemCheckpoint          000000014000eee0 f   libucrtd:debug_heap.obj
 0001:0000e160       _CrtMemDumpAllObjectsSince 000000014000f160 f   libucrtd:debug_heap.obj
 0001:0000e1c0       _CrtSetDbgFlag             000000014000f1c0 f   libucrtd:debug_heap.obj
 0001:0000e320       _CrtSetDumpClient          000000014000f320 f   libucrtd:debug_heap.obj
 0001:0000e350       __acrt_get_locale_data_prefix 000000014000f350 f i libucrtd:debug_heap.obj
 0001:0000e370       __acrt_locale_changed      000000014000f370 f i libucrtd:debug_heap.obj
 0001:0000e3a0       _calloc_dbg                000000014000f3a0 f   libucrtd:debug_heap.obj
 0001:0000e440       _chvalidchk_l              000000014000f440 f i libucrtd:debug_heap.obj
 0001:0000e470       _free_dbg                  000000014000f470 f   libucrtd:debug_heap.obj
 0001:0000e4e0       _invoke_watson_if_oneof    000000014000f4e0 f i libucrtd:debug_heap.obj
 0001:0000e540       _ischartype_l              000000014000f540 f i libucrtd:debug_heap.obj
 0001:0000e5d0       _malloc_dbg                000000014000f5d0 f   libucrtd:debug_heap.obj
 0001:0000e610       _msize_dbg                 000000014000f610 f   libucrtd:debug_heap.obj
 0001:0000e7b0       _realloc_dbg               000000014000f7b0 f   libucrtd:debug_heap.obj
 0001:0000e820       _recalloc_dbg              000000014000f820 f   libucrtd:debug_heap.obj
 0001:0000edf0       strcpy_s                   000000014000fdf0 f   libucrtd:strcpy_s.obj
 0001:0000ee30       strcmp                     000000014000fe30 f   libucrtd:strcmp.obj
 0001:0000eeb0       strlen                     000000014000feb0 f   libucrtd:strlen.obj
 0001:0000ef60       abort                      000000014000ff60 f   libucrtd:abort.obj
 0001:0000efe0       ??$initialize_from_array@$$BY00Q6AXPEB_W00I_K@Z@?$dual_state_global@P6AXPEB_W00I_K@Z@__crt_state_management@@QEAAXAEAY00Q6AXPEB_W00I_K@Z@Z 000000014000ffe0 f i libucrtd:invalid_parameter.obj
 0001:0000f040       __acrt_call_reportfault    0000000140010040 f   libucrtd:invalid_parameter.obj
 0001:0000f170       __acrt_initialize_invalid_parameter_handler 0000000140010170 f   libucrtd:invalid_parameter.obj
 0001:0000f1a0       _invalid_parameter         00000001400101a0 f   libucrtd:invalid_parameter.obj
 0001:0000f2a0       _invalid_parameter_noinfo  00000001400102a0 f   libucrtd:invalid_parameter.obj
 0001:0000f2d0       _invoke_watson             00000001400102d0 f   libucrtd:invalid_parameter.obj
 0001:0000f330       ??$?0AEBV?$string_output_adapter@D@__crt_stdio_output@@AEB_KAEBQEBDAEBQEAU__crt_locale_pointers@@AEBQEAD@?$format_validation_base@DV?$string_output_adapter@D@__crt_stdio_output@@@__crt_stdio_output@@IEAA@AEBV?$string_output_adapter@D@1@AEB_KAEBQEBDAEBQEAU__crt_locale_pointers@@AEBQEAD@Z 0000000140010330 f i libucrtd:output.obj
 0001:0000f380       ??$?0AEBV?$string_output_adapter@D@__crt_stdio_output@@AEB_KAEBQEBDAEBQEAU__crt_locale_pointers@@AEBQEAD@?$standard_base@DV?$string_output_adapter@D@__crt_stdio_output@@@__crt_stdio_output@@IEAA@AEBV?$string_output_adapter@D@1@AEB_KAEBQEBDAEBQEAU__crt_locale_pointers@@AEBQEAD@Z 0000000140010380 f i libucrtd:output.obj
 0001:0000f3f0       ??$?0AEBV?$string_output_adapter@_W@__crt_stdio_output@@AEB_KAEBQEB_WAEBQEAU__crt_locale_pointers@@AEBQEAD@?$format_validation_base@_WV?$string_output_adapter@_W@__crt_stdio_output@@@__crt_stdio_output@@IEAA@AEBV?$string_output_adapter@_W@1@AEB_KAEBQEB_WAEBQEAU__crt_locale_pointers@@AEBQEAD@Z 00000001400103f0 f i libucrtd:output.obj
 0001:0000f440       ??$?0AEBV?$string_output_adapter@_W@__crt_stdio_output@@AEB_KAEBQEB_WAEBQEAU__crt_locale_pointers@@AEBQEAD@?$standard_base@_WV?$string_output_adapter@_W@__crt_stdio_output@@@__crt_stdio_output@@IEAA@AEBV?$string_output_adapter@_W@1@AEB_KAEBQEB_WAEBQEAU__crt_locale_pointers@@AEBQEAD@Z 0000000140010440 f i libucrtd:output.obj
 0001:00010dc0       ??$count@D@formatting_buffer@__crt_stdio_output@@QEBA_KXZ 0000000140011dc0 f i libucrtd:output.obj
 0001:00010e10       ??$count@_W@formatting_buffer@__crt_stdio_output@@QEBA_KXZ 0000000140011e10 f i libucrtd:output.obj
 0001:00010e60       ??$data@_W@formatting_buffer@__crt_stdio_output@@QEAAPEA_WXZ 0000000140011e60 f i libucrtd:output.obj
 0001:00010e60       ??$data@D@formatting_buffer@__crt_stdio_output@@QEAAPEADXZ 0000000140011e60 f i libucrtd:output.obj
 0001:00010eb0       ??$ensure_buffer_is_big_enough@D@formatting_buffer@__crt_stdio_output@@QEAA_N_K@Z 0000000140011eb0 f i libucrtd:output.obj
 0001:00010fe0       ??$ensure_buffer_is_big_enough@_W@formatting_buffer@__crt_stdio_output@@QEAA_N_K@Z 0000000140011fe0 f i libucrtd:output.obj
 0001:00011110       ??$extract_argument_from_va_list@C_J@?$standard_base@_WV?$string_output_adapter@_W@__crt_stdio_output@@@__crt_stdio_output@@IEAA_NAEA_J@Z 0000000140012110 f i libucrtd:output.obj
 0001:00011110       ??$extract_argument_from_va_list@C_J@?$standard_base@DV?$string_output_adapter@D@__crt_stdio_output@@@__crt_stdio_output@@IEAA_NAEA_J@Z 0000000140012110 f i libucrtd:output.obj
 0001:00011150       ??$extract_argument_from_va_list@E_J@?$standard_base@DV?$string_output_adapter@D@__crt_stdio_output@@@__crt_stdio_output@@IEAA_NAEA_J@Z 0000000140012150 f i libucrtd:output.obj
 0001:00011150       ??$extract_argument_from_va_list@E_J@?$standard_base@_WV?$string_output_adapter@_W@__crt_stdio_output@@@__crt_stdio_output@@IEAA_NAEA_J@Z 0000000140012150 f i libucrtd:output.obj
 0001:00011190       ??$extract_argument_from_va_list@F_J@?$standard_base@DV?$string_output_adapter@D@__crt_stdio_output@@@__crt_stdio_output@@IEAA_NAEA_J@Z 0000000140012190 f i libucrtd:output.obj
 0001:00011190       ??$extract_argument_from_va_list@F_J@?$standard_base@_WV?$string_output_adapter@_W@__crt_stdio_output@@@__crt_stdio_output@@IEAA_NAEA_J@Z 0000000140012190 f i libucrtd:output.obj
 0001:000111d0       ??$extract_argument_from_va_list@GD@?$standard_base@DV?$string_output_adapter@D@__crt_stdio_output@@@__crt_stdio_output@@IEAA_NAEAD@Z 00000001400121d0 f i libucrtd:output.obj
 0001:00011200       ??$extract_argument_from_va_list@G_J@?$standard_base@DV?$string_output_adapter@D@__crt_stdio_output@@@__crt_stdio_output@@IEAA_NAEA_J@Z 0000000140012200 f i libucrtd:output.obj
 0001:00011200       ??$extract_argument_from_va_list@G_J@?$standard_base@_WV?$string_output_adapter@_W@__crt_stdio_output@@@__crt_stdio_output@@IEAA_NAEA_J@Z 0000000140012200 f i libucrtd:output.obj
 0001:00011240       ??$extract_argument_from_va_list@H_J@?$standard_base@DV?$string_output_adapter@D@__crt_stdio_output@@@__crt_stdio_output@@IEAA_NAEA_J@Z 0000000140012240 f i libucrtd:output.obj
 0001:00011240       ??$extract_argument_from_va_list@H_J@?$standard_base@_WV?$string_output_adapter@_W@__crt_stdio_output@@@__crt_stdio_output@@IEAA_NAEA_J@Z 0000000140012240 f i libucrtd:output.obj
 0001:00011270       ??$extract_argument_from_va_list@I_J@?$standard_base@DV?$string_output_adapter@D@__crt_stdio_output@@@__crt_stdio_output@@IEAA_NAEA_J@Z 0000000140012270 f i libucrtd:output.obj
 0001:00011270       ??$extract_argument_from_va_list@I_J@?$standard_base@_WV?$string_output_adapter@_W@__crt_stdio_output@@@__crt_stdio_output@@IEAA_NAEA_J@Z 0000000140012270 f i libucrtd:output.obj
 0001:000112a0       ??$extract_argument_from_va_list@_K_J@?$standard_base@DV?$string_output_adapter@D@__crt_stdio_output@@@__crt_stdio_output@@IEAA_NAEA_J@Z 00000001400122a0 f i libucrtd:output.obj
 0001:000112a0       ??$extract_argument_from_va_list@PEAXPEAX@?$standard_base@_WV?$string_output_adapter@_W@__crt_stdio_output@@@__crt_stdio_output@@IEAA_NAEAPEAX@Z 00000001400122a0 f i libucrtd:output.obj
 0001:000112a0       ??$extract_argument_from_va_list@PEADPEAD@?$standard_base@DV?$string_output_adapter@D@__crt_stdio_output@@@__crt_stdio_output@@IEAA_NAEAPEAD@Z 00000001400122a0 f i libucrtd:output.obj
 0001:000112a0       ??$extract_argument_from_va_list@PEAUansi_string@?1??type_case_Z@?$output_processor@_WV?$string_output_adapter@_W@__crt_stdio_output@@V?$format_validation_base@_WV?$string_output_adapter@_W@__crt_stdio_output@@@2@@__crt_stdio_output@@AEAA_NXZ@PEAU1?1??234@AEAA_NXZ@@?$standard_base@_WV?$string_output_adapter@_W@__crt_stdio_output@@@__crt_stdio_output@@IEAA_NAEAPEAUansi_string@?1??type_case_Z@?$output_processor@_WV?$string_output_adapter@_W@__crt_stdio_output@@V?$format_validation_base@_WV?$string_output_adapter@_W@__crt_stdio_output@@@2@@1@AEAA_NXZ@@Z 00000001400122a0 f i libucrtd:output.obj
 0001:000112a0       ??$extract_argument_from_va_list@_J_J@?$standard_base@DV?$string_output_adapter@D@__crt_stdio_output@@@__crt_stdio_output@@IEAA_NAEA_J@Z 00000001400122a0 f i libucrtd:output.obj
 0001:000112a0       ??$extract_argument_from_va_list@_K_J@?$standard_base@_WV?$string_output_adapter@_W@__crt_stdio_output@@@__crt_stdio_output@@IEAA_NAEA_J@Z 00000001400122a0 f i libucrtd:output.obj
 0001:000112a0       ??$extract_argument_from_va_list@_J_J@?$standard_base@_WV?$string_output_adapter@_W@__crt_stdio_output@@@__crt_stdio_output@@IEAA_NAEA_J@Z 00000001400122a0 f i libucrtd:output.obj
 0001:000112a0       ??$extract_argument_from_va_list@PEAUansi_string@?1??type_case_Z@?$output_processor@DV?$string_output_adapter@D@__crt_stdio_output@@V?$format_validation_base@DV?$string_output_adapter@D@__crt_stdio_output@@@2@@__crt_stdio_output@@AEAA_NXZ@PEAU1?1??234@AEAA_NXZ@@?$standard_base@DV?$string_output_adapter@D@__crt_stdio_output@@@__crt_stdio_output@@IEAA_NAEAPEAUansi_string@?1??type_case_Z@?$output_processor@DV?$string_output_adapter@D@__crt_stdio_output@@V?$format_validation_base@DV?$string_output_adapter@D@__crt_stdio_output@@@2@@1@AEAA_NXZ@@Z 00000001400122a0 f i libucrtd:output.obj
 0001:000112a0       ??$extract_argument_from_va_list@PEAXPEAX@?$standard_base@DV?$string_output_adapter@D@__crt_stdio_output@@@__crt_stdio_output@@IEAA_NAEAPEAX@Z 00000001400122a0 f i libucrtd:output.obj
 0001:000112a0       ??$extract_argument_from_va_list@PEADPEAD@?$standard_base@_WV?$string_output_adapter@_W@__crt_stdio_output@@@__crt_stdio_output@@IEAA_NAEAPEAD@Z 00000001400122a0 f i libucrtd:output.obj
 0001:000112d0       ??$extract_argument_from_va_list@U_CRT_DOUBLE@@U1@@?$standard_base@DV?$string_output_adapter@D@__crt_stdio_output@@@__crt_stdio_output@@IEAA_NAEAU_CRT_DOUBLE@@@Z 00000001400122d0 f i libucrtd:output.obj
 0001:000112d0       ??$extract_argument_from_va_list@U_CRT_DOUBLE@@U1@@?$standard_base@_WV?$string_output_adapter@_W@__crt_stdio_output@@@__crt_stdio_output@@IEAA_NAEAU_CRT_DOUBLE@@@Z 00000001400122d0 f i libucrtd:output.obj
 0001:00011320       ??$extract_argument_from_va_list@_W_W@?$standard_base@_WV?$string_output_adapter@_W@__crt_stdio_output@@@__crt_stdio_output@@IEAA_NAEA_W@Z 0000000140012320 f i libucrtd:output.obj
 0001:00011320       ??$extract_argument_from_va_list@_W_W@?$standard_base@DV?$string_output_adapter@D@__crt_stdio_output@@@__crt_stdio_output@@IEAA_NAEA_W@Z 0000000140012320 f i libucrtd:output.obj
 0001:00011350       ??$is_wide_character_specifier@D@__crt_stdio_output@@YA_N_KDW4length_modifier@0@@Z 0000000140012350 f i libucrtd:output.obj
 0001:000113f0       ??$is_wide_character_specifier@_W@__crt_stdio_output@@YA_N_K_WW4length_modifier@0@@Z 00000001400123f0 f i libucrtd:output.obj
 0001:000114c0       ??$read_va_arg@E@__crt_stdio_output@@YAEAEAPEAD@Z 00000001400124c0 f i libucrtd:output.obj
 0001:000114c0       ??$read_va_arg@C@__crt_stdio_output@@YACAEAPEAD@Z 00000001400124c0 f i libucrtd:output.obj
 0001:00011530       ??$read_va_arg@G@__crt_stdio_output@@YAGAEAPEAD@Z 0000000140012530 f i libucrtd:output.obj
 0001:00011530       ??$read_va_arg@F@__crt_stdio_output@@YAFAEAPEAD@Z 0000000140012530 f i libucrtd:output.obj
 0001:00011530       ??$read_va_arg@_W@__crt_stdio_output@@YA_WAEAPEAD@Z 0000000140012530 f i libucrtd:output.obj
 0001:000115a0       ??$read_va_arg@I@__crt_stdio_output@@YAIAEAPEAD@Z 00000001400125a0 f i libucrtd:output.obj
 0001:000115a0       ??$read_va_arg@H@__crt_stdio_output@@YAHAEAPEAD@Z 00000001400125a0 f i libucrtd:output.obj
 0001:00011600       ??$read_va_arg@PEAUansi_string@?1??type_case_Z@?$output_processor@DV?$string_output_adapter@D@__crt_stdio_output@@V?$format_validation_base@DV?$string_output_adapter@D@__crt_stdio_output@@@2@@__crt_stdio_output@@AEAA_NXZ@@__crt_stdio_output@@YAPEAUansi_string@?1??type_case_Z@?$output_processor@DV?$string_output_adapter@D@__crt_stdio_output@@V?$format_validation_base@DV?$string_output_adapter@D@__crt_stdio_output@@@2@@0@AEAA_NXZ@AEAPEAD@Z 0000000140012600 f i libucrtd:output.obj
 0001:00011600       ??$read_va_arg@PEAX@__crt_stdio_output@@YAPEAXAEAPEAD@Z 0000000140012600 f i libucrtd:output.obj
 0001:00011600       ??$read_va_arg@PEAD@__crt_stdio_output@@YAPEADAEAPEAD@Z 0000000140012600 f i libucrtd:output.obj
 0001:00011600       ??$read_va_arg@_J@__crt_stdio_output@@YA_JAEAPEAD@Z 0000000140012600 f i libucrtd:output.obj
 0001:00011600       ??$read_va_arg@_K@__crt_stdio_output@@YA_KAEAPEAD@Z 0000000140012600 f i libucrtd:output.obj
 0001:00011600       ??$read_va_arg@U_CRT_DOUBLE@@@__crt_stdio_output@@YA?AU_CRT_DOUBLE@@AEAPEAD@Z 0000000140012600 f i libucrtd:output.obj
 0001:00011600       ??$read_va_arg@PEAUansi_string@?1??type_case_Z@?$output_processor@_WV?$string_output_adapter@_W@__crt_stdio_output@@V?$format_validation_base@_WV?$string_output_adapter@_W@__crt_stdio_output@@@2@@__crt_stdio_output@@AEAA_NXZ@@__crt_stdio_output@@YAPEAUansi_string@?1??type_case_Z@?$output_processor@_WV?$string_output_adapter@_W@__crt_stdio_output@@V?$format_validation_base@_WV?$string_output_adapter@_W@__crt_stdio_output@@@2@@0@AEAA_NXZ@AEAPEAD@Z 0000000140012600 f i libucrtd:output.obj
 0001:00011670       ??$scratch_count@D@formatting_buffer@__crt_stdio_output@@QEBA_KXZ 0000000140012670 f i libucrtd:output.obj
 0001:00011690       ??$scratch_data@D@formatting_buffer@__crt_stdio_output@@QEAAPEADXZ 0000000140012690 f i libucrtd:output.obj
 0001:00011700       ??$tcstol@PEBDPEAPEADH@?$__crt_char_traits@D@@SAJ$$QEAPEBD$$QEAPEAPEAD$$QEAH@Z 0000000140012700 f i libucrtd:output.obj
 0001:00011740       ??$tcstol@PEB_WPEAPEA_WH@?$__crt_char_traits@_W@@SAJ$$QEAPEB_W$$QEAPEAPEA_W$$QEAH@Z 0000000140012740 f i libucrtd:output.obj
 0001:00011780       ??$type_case_integer_parse_into_buffer@I@?$output_processor@DV?$string_output_adapter@D@__crt_stdio_output@@V?$format_validation_base@DV?$string_output_adapter@D@__crt_stdio_output@@@2@@__crt_stdio_output@@AEAAXII_N@Z 0000000140012780 f i libucrtd:output.obj
 0001:000118b0       ??$type_case_integer_parse_into_buffer@I@?$output_processor@_WV?$string_output_adapter@_W@__crt_stdio_output@@V?$format_validation_base@_WV?$string_output_adapter@_W@__crt_stdio_output@@@2@@__crt_stdio_output@@AEAAXII_N@Z 00000001400128b0 f i libucrtd:output.obj
 0001:000119f0       ??$type_case_integer_parse_into_buffer@_K@?$output_processor@DV?$string_output_adapter@D@__crt_stdio_output@@V?$format_validation_base@DV?$string_output_adapter@D@__crt_stdio_output@@@2@@__crt_stdio_output@@AEAAX_KI_N@Z 00000001400129f0 f i libucrtd:output.obj
 0001:00011b40       ??$type_case_integer_parse_into_buffer@_K@?$output_processor@_WV?$string_output_adapter@_W@__crt_stdio_output@@V?$format_validation_base@_WV?$string_output_adapter@_W@__crt_stdio_output@@@2@@__crt_stdio_output@@AEAAX_KI_N@Z 0000000140012b40 f i libucrtd:output.obj
 0001:00011ca0       ??$write_multiple_characters@V?$string_output_adapter@D@__crt_stdio_output@@D@__crt_stdio_output@@YAXAEBV?$string_output_adapter@D@0@DHQEAH@Z 0000000140012ca0 f i libucrtd:output.obj
 0001:00011d00       ??$write_multiple_characters@V?$string_output_adapter@_W@__crt_stdio_output@@D@__crt_stdio_output@@YAXAEBV?$string_output_adapter@_W@0@DHQEAH@Z 0000000140012d00 f i libucrtd:output.obj
 0001:00011d60       ??0?$common_data@D@__crt_stdio_output@@IEAA@XZ 0000000140012d60 f i libucrtd:output.obj
 0001:00011e30       ??0?$common_data@_W@__crt_stdio_output@@IEAA@XZ 0000000140012e30 f i libucrtd:output.obj
 0001:00011f00       ??0?$output_adapter_data@DV?$string_output_adapter@D@__crt_stdio_output@@@__crt_stdio_output@@IEAA@AEBV?$string_output_adapter@D@1@_KQEBDQEAU__crt_locale_pointers@@QEAD@Z 0000000140012f00 f i libucrtd:output.obj
 0001:00011f80       ??0?$output_adapter_data@_WV?$string_output_adapter@_W@__crt_stdio_output@@@__crt_stdio_output@@IEAA@AEBV?$string_output_adapter@_W@1@_KQEB_WQEAU__crt_locale_pointers@@QEAD@Z 0000000140012f80 f i libucrtd:output.obj
 0001:00012000       ??0?$output_processor@DV?$string_output_adapter@D@__crt_stdio_output@@V?$format_validation_base@DV?$string_output_adapter@D@__crt_stdio_output@@@2@@__crt_stdio_output@@QEAA@AEBV?$string_output_adapter@D@1@_KQEBDQEAU__crt_locale_pointers@@QEAD@Z 0000000140013000 f i libucrtd:output.obj
 0001:00012050       ??0?$output_processor@_WV?$string_output_adapter@_W@__crt_stdio_output@@V?$format_validation_base@_WV?$string_output_adapter@_W@__crt_stdio_output@@@2@@__crt_stdio_output@@QEAA@AEBV?$string_output_adapter@_W@1@_KQEB_WQEAU__crt_locale_pointers@@QEAD@Z 0000000140013050 f i libucrtd:output.obj
 0001:000120a0       ??0__crt_deferred_errno_cache@@QEAA@XZ 00000001400130a0 f i libucrtd:output.obj
 0001:000120c0       ??0__crt_errno_guard@@QEAA@QEAH@Z 00000001400130c0 f i libucrtd:output.obj
 0001:00012100       ??0formatting_buffer@__crt_stdio_output@@QEAA@XZ 0000000140013100 f i libucrtd:output.obj
 0001:00012140       ??1?$common_data@D@__crt_stdio_output@@QEAA@XZ 0000000140013140 f i libucrtd:output.obj
 0001:00012140       ??1?$common_data@_W@__crt_stdio_output@@QEAA@XZ 0000000140013140 f i libucrtd:output.obj
 0001:00012160       ??1?$format_validation_base@DV?$string_output_adapter@D@__crt_stdio_output@@@__crt_stdio_output@@QEAA@XZ 0000000140013160 f i libucrtd:output.obj
 0001:00012160       ??1?$format_validation_base@_WV?$string_output_adapter@_W@__crt_stdio_output@@@__crt_stdio_output@@QEAA@XZ 0000000140013160 f i libucrtd:output.obj
 0001:00012180       ??1?$output_adapter_data@DV?$string_output_adapter@D@__crt_stdio_output@@@__crt_stdio_output@@QEAA@XZ 0000000140013180 f i libucrtd:output.obj
 0001:00012180       ??1?$output_adapter_data@_WV?$string_output_adapter@_W@__crt_stdio_output@@@__crt_stdio_output@@QEAA@XZ 0000000140013180 f i libucrtd:output.obj
 0001:000121a0       ??1?$output_processor@_WV?$string_output_adapter@_W@__crt_stdio_output@@V?$format_validation_base@_WV?$string_output_adapter@_W@__crt_stdio_output@@@2@@__crt_stdio_output@@QEAA@XZ 00000001400131a0 f i libucrtd:output.obj
 0001:000121a0       ??1?$output_processor@DV?$string_output_adapter@D@__crt_stdio_output@@V?$format_validation_base@DV?$string_output_adapter@D@__crt_stdio_output@@@2@@__crt_stdio_output@@QEAA@XZ 00000001400131a0 f i libucrtd:output.obj
 0001:000121c0       ??1?$standard_base@_WV?$string_output_adapter@_W@__crt_stdio_output@@@__crt_stdio_output@@QEAA@XZ 00000001400131c0 f i libucrtd:output.obj
 0001:000121c0       ??1?$standard_base@DV?$string_output_adapter@D@__crt_stdio_output@@@__crt_stdio_output@@QEAA@XZ 00000001400131c0 f i libucrtd:output.obj
 0001:000121e0       ??1__crt_errno_guard@@QEAA@XZ 00000001400131e0 f i libucrtd:output.obj
 0001:00012210       ??1formatting_buffer@__crt_stdio_output@@QEAA@XZ 0000000140013210 f i libucrtd:output.obj
 0001:00012240       ??4?$__crt_unique_heap_ptr@DU__crt_internal_free_policy@@@@QEAAAEAV0@$$QEAV0@@Z 0000000140013240 f i libucrtd:output.obj
 0001:00012280       ??A?$spectre_mitigated_lookup_table@Ustate_transition_pair@__crt_stdio_output@@$0IA@@__crt_stdio_output@@QEBAAEBUstate_transition_pair@1@_K@Z 0000000140013280 f i libucrtd:output.obj
 0001:000122a0       ?adjust_hexit@?$output_processor@_WV?$string_output_adapter@_W@__crt_stdio_output@@V?$format_validation_base@_WV?$string_output_adapter@_W@__crt_stdio_output@@@2@@__crt_stdio_output@@CADH_N@Z 00000001400132a0 f i libucrtd:output.obj
 0001:000122a0       ?adjust_hexit@?$output_processor@DV?$string_output_adapter@D@__crt_stdio_output@@V?$format_validation_base@DV?$string_output_adapter@D@__crt_stdio_output@@@2@@__crt_stdio_output@@CADH_N@Z 00000001400132a0 f i libucrtd:output.obj
 0001:000122f0       ?advance_to_next_pass@?$standard_base@_WV?$string_output_adapter@_W@__crt_stdio_output@@@__crt_stdio_output@@IEAA_NXZ 00000001400132f0 f i libucrtd:output.obj
 0001:000122f0       ?advance_to_next_pass@?$standard_base@DV?$string_output_adapter@D@__crt_stdio_output@@@__crt_stdio_output@@IEAA_NXZ 00000001400132f0 f i libucrtd:output.obj
 0001:00012340       ?crop_zeroes@__crt_stdio_output@@YAXPEADQEAU__crt_locale_pointers@@@Z 0000000140013340 f i libucrtd:output.obj
 0001:00012480       ?find_next_state@?$output_processor@DV?$string_output_adapter@D@__crt_stdio_output@@V?$format_validation_base@DV?$string_output_adapter@D@__crt_stdio_output@@@2@@__crt_stdio_output@@AEBA?AW4state@2@DW432@@Z 0000000140013480 f i libucrtd:output.obj
 0001:00012510       ?find_next_state@?$output_processor@_WV?$string_output_adapter@_W@__crt_stdio_output@@V?$format_validation_base@_WV?$string_output_adapter@_W@__crt_stdio_output@@@2@@__crt_stdio_output@@AEBA?AW4state@2@_WW432@@Z 0000000140013510 f i libucrtd:output.obj
 0001:000125a0       ?force_decimal_point@__crt_stdio_output@@YAXPEADQEAU__crt_locale_pointers@@@Z 00000001400135a0 f i libucrtd:output.obj
 0001:000126a0       ?get@__crt_deferred_errno_cache@@QEAAAEAHXZ 00000001400136a0 f i libucrtd:output.obj
 0001:000126d0       ?get_flags@__crt_stdio_stream@@QEBAJXZ 00000001400136d0 f i libucrtd:output.obj
 0001:00012700       ?has_flag@?$output_processor@DV?$string_output_adapter@D@__crt_stdio_output@@V?$format_validation_base@DV?$string_output_adapter@D@__crt_stdio_output@@@2@@__crt_stdio_output@@AEBA_NI@Z 0000000140013700 f i libucrtd:output.obj
 0001:00012700       ?has_flag@?$output_processor@_WV?$string_output_adapter@_W@__crt_stdio_output@@V?$format_validation_base@_WV?$string_output_adapter@_W@__crt_stdio_output@@@2@@__crt_stdio_output@@AEBA_NI@Z 0000000140013700 f i libucrtd:output.obj
 0001:00012740       ?is_string_backed@__crt_stdio_stream@@QEBA_NXZ 0000000140013740 f i libucrtd:output.obj
 0001:00012780       ?narrow_null_string@?$output_processor@_WV?$string_output_adapter@_W@__crt_stdio_output@@V?$format_validation_base@_WV?$string_output_adapter@_W@__crt_stdio_output@@@2@@__crt_stdio_output@@CAPEADXZ 0000000140013780 f i libucrtd:output.obj
 0001:00012780       ?narrow_null_string@?$output_processor@DV?$string_output_adapter@D@__crt_stdio_output@@V?$format_validation_base@DV?$string_output_adapter@D@__crt_stdio_output@@@2@@__crt_stdio_output@@CAPEADXZ 0000000140013780 f i libucrtd:output.obj
 0001:00012790       ?parse_int_from_format_string@?$output_processor@DV?$string_output_adapter@D@__crt_stdio_output@@V?$format_validation_base@DV?$string_output_adapter@D@__crt_stdio_output@@@2@@__crt_stdio_output@@AEAA_NQEAH@Z 0000000140013790 f i libucrtd:output.obj
 0001:00012880       ?parse_int_from_format_string@?$output_processor@_WV?$string_output_adapter@_W@__crt_stdio_output@@V?$format_validation_base@_WV?$string_output_adapter@_W@__crt_stdio_output@@@2@@__crt_stdio_output@@AEAA_NQEAH@Z 0000000140013880 f i libucrtd:output.obj
 0001:00012970       ?process@?$output_processor@DV?$string_output_adapter@D@__crt_stdio_output@@V?$format_validation_base@DV?$string_output_adapter@D@__crt_stdio_output@@@2@@__crt_stdio_output@@QEAAHXZ 0000000140013970 f i libucrtd:output.obj
 0001:00012cd0       ?process@?$output_processor@_WV?$string_output_adapter@_W@__crt_stdio_output@@V?$format_validation_base@_WV?$string_output_adapter@_W@__crt_stdio_output@@@2@@__crt_stdio_output@@QEAAHXZ 0000000140013cd0 f i libucrtd:output.obj
 0001:00013030       ?set_flag@?$output_processor@DV?$string_output_adapter@D@__crt_stdio_output@@V?$format_validation_base@DV?$string_output_adapter@D@__crt_stdio_output@@@2@@__crt_stdio_output@@AEAAXI@Z 0000000140014030 f i libucrtd:output.obj
 0001:00013030       ?set_flag@?$output_processor@_WV?$string_output_adapter@_W@__crt_stdio_output@@V?$format_validation_base@_WV?$string_output_adapter@_W@__crt_stdio_output@@@2@@__crt_stdio_output@@AEAAXI@Z 0000000140014030 f i libucrtd:output.obj
 0001:00013050       ?validate_and_update_state_at_beginning_of_format_character@?$standard_base@DV?$string_output_adapter@D@__crt_stdio_output@@@__crt_stdio_output@@IEAA_NXZ 0000000140014050 f i libucrtd:output.obj
 0001:00013050       ?should_format@?$standard_base@_WV?$string_output_adapter@_W@__crt_stdio_output@@@__crt_stdio_output@@IEAA_NXZ 0000000140014050 f i libucrtd:output.obj
 0001:00013050       ?validate_state_for_type_case_a@?$standard_base@_WV?$string_output_adapter@_W@__crt_stdio_output@@@__crt_stdio_output@@IEBA_NXZ 0000000140014050 f i libucrtd:output.obj
 0001:00013050       ?validate_and_update_state_at_beginning_of_format_character@?$standard_base@_WV?$string_output_adapter@_W@__crt_stdio_output@@@__crt_stdio_output@@IEAA_NXZ 0000000140014050 f i libucrtd:output.obj
 0001:00013050       ?validate_state_for_type_case_a@?$standard_base@DV?$string_output_adapter@D@__crt_stdio_output@@@__crt_stdio_output@@IEBA_NXZ 0000000140014050 f i libucrtd:output.obj
 0001:00013050       ?should_format@?$standard_base@DV?$string_output_adapter@D@__crt_stdio_output@@@__crt_stdio_output@@IEAA_NXZ 0000000140014050 f i libucrtd:output.obj
 0001:00013060       ?should_skip_type_state_output@?$standard_base@DV?$string_output_adapter@D@__crt_stdio_output@@@__crt_stdio_output@@IEBA_NXZ 0000000140014060 f i libucrtd:output.obj
 0001:00013060       ?should_skip_normal_state_processing@?$standard_base@DV?$string_output_adapter@D@__crt_stdio_output@@@__crt_stdio_output@@IEAA_NXZ 0000000140014060 f i libucrtd:output.obj
 0001:00013060       ?should_skip_normal_state_processing@?$standard_base@_WV?$string_output_adapter@_W@__crt_stdio_output@@@__crt_stdio_output@@IEAA_NXZ 0000000140014060 f i libucrtd:output.obj
 0001:00013060       ?should_skip_type_state_output@?$standard_base@_WV?$string_output_adapter@_W@__crt_stdio_output@@@__crt_stdio_output@@IEBA_NXZ 0000000140014060 f i libucrtd:output.obj
 0001:00013070       ?state_case_dot@?$output_processor@_WV?$string_output_adapter@_W@__crt_stdio_output@@V?$format_validation_base@_WV?$string_output_adapter@_W@__crt_stdio_output@@@2@@__crt_stdio_output@@AEAA_NXZ 0000000140014070 f i libucrtd:output.obj
 0001:00013070       ?state_case_dot@?$output_processor@DV?$string_output_adapter@D@__crt_stdio_output@@V?$format_validation_base@DV?$string_output_adapter@D@__crt_stdio_output@@@2@@__crt_stdio_output@@AEAA_NXZ 0000000140014070 f i libucrtd:output.obj
 0001:00013090       ?state_case_flag@?$output_processor@DV?$string_output_adapter@D@__crt_stdio_output@@V?$format_validation_base@DV?$string_output_adapter@D@__crt_stdio_output@@@2@@__crt_stdio_output@@AEAA_NXZ 0000000140014090 f i libucrtd:output.obj
 0001:00013130       ?state_case_flag@?$output_processor@_WV?$string_output_adapter@_W@__crt_stdio_output@@V?$format_validation_base@_WV?$string_output_adapter@_W@__crt_stdio_output@@@2@@__crt_stdio_output@@AEAA_NXZ 0000000140014130 f i libucrtd:output.obj
 0001:000131d0       ?state_case_normal@?$output_processor@DV?$string_output_adapter@D@__crt_stdio_output@@V?$format_validation_base@DV?$string_output_adapter@D@__crt_stdio_output@@@2@@__crt_stdio_output@@AEAA_NXZ 00000001400141d0 f i libucrtd:output.obj
 0001:000132b0       ?state_case_normal@?$output_processor@_WV?$string_output_adapter@_W@__crt_stdio_output@@V?$format_validation_base@_WV?$string_output_adapter@_W@__crt_stdio_output@@@2@@__crt_stdio_output@@AEAA_NXZ 00000001400142b0 f i libucrtd:output.obj
 0001:00013390       ?state_case_normal_common@?$output_processor@DV?$string_output_adapter@D@__crt_stdio_output@@V?$format_validation_base@DV?$string_output_adapter@D@__crt_stdio_output@@@2@@__crt_stdio_output@@AEAA_NXZ 0000000140014390 f i libucrtd:output.obj
 0001:000133e0       ?state_case_normal_common@?$output_processor@_WV?$string_output_adapter@_W@__crt_stdio_output@@V?$format_validation_base@_WV?$string_output_adapter@_W@__crt_stdio_output@@@2@@__crt_stdio_output@@AEAA_NXZ 00000001400143e0 f i libucrtd:output.obj
 0001:00013430       ?state_case_normal_tchar@?$output_processor@DV?$string_output_adapter@D@__crt_stdio_output@@V?$format_validation_base@DV?$string_output_adapter@D@__crt_stdio_output@@@2@@__crt_stdio_output@@AEAA_ND@Z 0000000140014430 f i libucrtd:output.obj
 0001:00013570       ?state_case_normal_tchar@?$output_processor@_WV?$string_output_adapter@_W@__crt_stdio_output@@V?$format_validation_base@_WV?$string_output_adapter@_W@__crt_stdio_output@@@2@@__crt_stdio_output@@AEAA_N_W@Z 0000000140014570 f i libucrtd:output.obj
 0001:00013590       ?state_case_percent@?$output_processor@_WV?$string_output_adapter@_W@__crt_stdio_output@@V?$format_validation_base@_WV?$string_output_adapter@_W@__crt_stdio_output@@@2@@__crt_stdio_output@@AEAA_NXZ 0000000140014590 f i libucrtd:output.obj
 0001:00013590       ?state_case_percent@?$output_processor@DV?$string_output_adapter@D@__crt_stdio_output@@V?$format_validation_base@DV?$string_output_adapter@D@__crt_stdio_output@@@2@@__crt_stdio_output@@AEAA_NXZ 0000000140014590 f i libucrtd:output.obj
 0001:000135e0       ?state_case_precision@?$output_processor@DV?$string_output_adapter@D@__crt_stdio_output@@V?$format_validation_base@DV?$string_output_adapter@D@__crt_stdio_output@@@2@@__crt_stdio_output@@AEAA_NXZ 00000001400145e0 f i libucrtd:output.obj
 0001:00013660       ?state_case_precision@?$output_processor@_WV?$string_output_adapter@_W@__crt_stdio_output@@V?$format_validation_base@_WV?$string_output_adapter@_W@__crt_stdio_output@@@2@@__crt_stdio_output@@AEAA_NXZ 0000000140014660 f i libucrtd:output.obj
 0001:000136e0       ?state_case_size@?$output_processor@DV?$string_output_adapter@D@__crt_stdio_output@@V?$format_validation_base@DV?$string_output_adapter@D@__crt_stdio_output@@@2@@__crt_stdio_output@@AEAA_NXZ 00000001400146e0 f i libucrtd:output.obj
 0001:00013b60       ?state_case_size@?$output_processor@_WV?$string_output_adapter@_W@__crt_stdio_output@@V?$format_validation_base@_WV?$string_output_adapter@_W@__crt_stdio_output@@@2@@__crt_stdio_output@@AEAA_NXZ 0000000140014b60 f i libucrtd:output.obj
 0001:00013fe0       ?state_case_type@?$output_processor@DV?$string_output_adapter@D@__crt_stdio_output@@V?$format_validation_base@DV?$string_output_adapter@D@__crt_stdio_output@@@2@@__crt_stdio_output@@AEAA_NXZ 0000000140014fe0 f i libucrtd:output.obj
 0001:00014480       ?state_case_type@?$output_processor@_WV?$string_output_adapter@_W@__crt_stdio_output@@V?$format_validation_base@_WV?$string_output_adapter@_W@__crt_stdio_output@@@2@@__crt_stdio_output@@AEAA_NXZ 0000000140015480 f i libucrtd:output.obj
 0001:000149e0       ?state_case_width@?$output_processor@DV?$string_output_adapter@D@__crt_stdio_output@@V?$format_validation_base@DV?$string_output_adapter@D@__crt_stdio_output@@@2@@__crt_stdio_output@@AEAA_NXZ 00000001400159e0 f i libucrtd:output.obj
 0001:00014a70       ?state_case_width@?$output_processor@_WV?$string_output_adapter@_W@__crt_stdio_output@@V?$format_validation_base@_WV?$string_output_adapter@_W@__crt_stdio_output@@@2@@__crt_stdio_output@@AEAA_NXZ 0000000140015a70 f i libucrtd:output.obj
 0001:00014b00       ?state_count@?$format_validation_base@_WV?$string_output_adapter@_W@__crt_stdio_output@@@__crt_stdio_output@@KAIXZ 0000000140015b00 f i libucrtd:output.obj
 0001:00014b00       ?state_count@?$format_validation_base@DV?$string_output_adapter@D@__crt_stdio_output@@@__crt_stdio_output@@KAIXZ 0000000140015b00 f i libucrtd:output.obj
 0001:00014b10       ?state_transition_table@?$format_validation_base@_WV?$string_output_adapter@_W@__crt_stdio_output@@@__crt_stdio_output@@KAAEBV?$spectre_mitigated_lookup_table@Ustate_transition_pair@__crt_stdio_output@@$0IA@@2@XZ 0000000140015b10 f i libucrtd:output.obj
 0001:00014b10       ?state_transition_table@?$format_validation_base@DV?$string_output_adapter@D@__crt_stdio_output@@@__crt_stdio_output@@KAAEBV?$spectre_mitigated_lookup_table@Ustate_transition_pair@__crt_stdio_output@@$0IA@@2@XZ 0000000140015b10 f i libucrtd:output.obj
 0001:00014b20       ?tchar_string@?$common_data@D@__crt_stdio_output@@IEAAAEAPEADD@Z 0000000140015b20 f i libucrtd:output.obj
 0001:00014b40       ?tchar_string@?$common_data@D@__crt_stdio_output@@IEAAAEAPEADXZ 0000000140015b40 f i libucrtd:output.obj
 0001:00014b60       ?tchar_string@?$common_data@_W@__crt_stdio_output@@IEAAAEAPEA_WXZ 0000000140015b60 f i libucrtd:output.obj
 0001:00014b80       ?tchar_string@?$common_data@_W@__crt_stdio_output@@IEAAAEAPEA_W_W@Z 0000000140015b80 f i libucrtd:output.obj
 0001:00014ba0       ?to_integer_size@__crt_stdio_output@@YA_KW4length_modifier@1@@Z 0000000140015ba0 f i libucrtd:output.obj
 0001:00014c50       ?type_case_X@?$output_processor@DV?$string_output_adapter@D@__crt_stdio_output@@V?$format_validation_base@DV?$string_output_adapter@D@__crt_stdio_output@@@2@@__crt_stdio_output@@AEAA_NXZ 0000000140015c50 f i libucrtd:output.obj
 0001:00014c70       ?type_case_X@?$output_processor@_WV?$string_output_adapter@_W@__crt_stdio_output@@V?$format_validation_base@_WV?$string_output_adapter@_W@__crt_stdio_output@@@2@@__crt_stdio_output@@AEAA_NXZ 0000000140015c70 f i libucrtd:output.obj
 0001:00014c90       ?type_case_Z@?$output_processor@DV?$string_output_adapter@D@__crt_stdio_output@@V?$format_validation_base@DV?$string_output_adapter@D@__crt_stdio_output@@@2@@__crt_stdio_output@@AEAA_NXZ 0000000140015c90 f i libucrtd:output.obj
 0001:00014db0       ?type_case_Z@?$output_processor@_WV?$string_output_adapter@_W@__crt_stdio_output@@V?$format_validation_base@_WV?$string_output_adapter@_W@__crt_stdio_output@@@2@@__crt_stdio_output@@AEAA_NXZ 0000000140015db0 f i libucrtd:output.obj
 0001:00014ed0       ?type_case_a@?$output_processor@DV?$string_output_adapter@D@__crt_stdio_output@@V?$format_validation_base@DV?$string_output_adapter@D@__crt_stdio_output@@@2@@__crt_stdio_output@@AEAA_NXZ 0000000140015ed0 f i libucrtd:output.obj
 0001:000152a0       ?type_case_a@?$output_processor@_WV?$string_output_adapter@_W@__crt_stdio_output@@V?$format_validation_base@_WV?$string_output_adapter@_W@__crt_stdio_output@@@2@@__crt_stdio_output@@AEAA_NXZ 00000001400162a0 f i libucrtd:output.obj
 0001:00015670       ?type_case_c@?$output_processor@DV?$string_output_adapter@D@__crt_stdio_output@@V?$format_validation_base@DV?$string_output_adapter@D@__crt_stdio_output@@@2@@__crt_stdio_output@@AEAA_NXZ 0000000140016670 f i libucrtd:output.obj
 0001:00015690       ?type_case_c@?$output_processor@_WV?$string_output_adapter@_W@__crt_stdio_output@@V?$format_validation_base@_WV?$string_output_adapter@_W@__crt_stdio_output@@@2@@__crt_stdio_output@@AEAA_NXZ 0000000140016690 f i libucrtd:output.obj
 0001:000156b0       ?type_case_c_tchar@?$output_processor@DV?$string_output_adapter@D@__crt_stdio_output@@V?$format_validation_base@DV?$string_output_adapter@D@__crt_stdio_output@@@2@@__crt_stdio_output@@AEAA_ND@Z 00000001400166b0 f i libucrtd:output.obj
 0001:00015810       ?type_case_c_tchar@?$output_processor@_WV?$string_output_adapter@_W@__crt_stdio_output@@V?$format_validation_base@_WV?$string_output_adapter@_W@__crt_stdio_output@@@2@@__crt_stdio_output@@AEAA_N_W@Z 0000000140016810 f i libucrtd:output.obj
 0001:00015940       ?type_case_d@?$output_processor@DV?$string_output_adapter@D@__crt_stdio_output@@V?$format_validation_base@DV?$string_output_adapter@D@__crt_stdio_output@@@2@@__crt_stdio_output@@AEAA_NXZ 0000000140016940 f i libucrtd:output.obj
 0001:00015970       ?type_case_d@?$output_processor@_WV?$string_output_adapter@_W@__crt_stdio_output@@V?$format_validation_base@_WV?$string_output_adapter@_W@__crt_stdio_output@@@2@@__crt_stdio_output@@AEAA_NXZ 0000000140016970 f i libucrtd:output.obj
 0001:000159a0       ?type_case_integer@?$output_processor@DV?$string_output_adapter@D@__crt_stdio_output@@V?$format_validation_base@DV?$string_output_adapter@D@__crt_stdio_output@@@2@@__crt_stdio_output@@AEAA_NI_N@Z 00000001400169a0 f i libucrtd:output.obj
 0001:00015df0       ?type_case_integer@?$output_processor@_WV?$string_output_adapter@_W@__crt_stdio_output@@V?$format_validation_base@_WV?$string_output_adapter@_W@__crt_stdio_output@@@2@@__crt_stdio_output@@AEAA_NI_N@Z 0000000140016df0 f i libucrtd:output.obj
 0001:00016240       ?type_case_n@?$output_processor@DV?$string_output_adapter@D@__crt_stdio_output@@V?$format_validation_base@DV?$string_output_adapter@D@__crt_stdio_output@@@2@@__crt_stdio_output@@AEAA_NXZ 0000000140017240 f i libucrtd:output.obj
 0001:00016480       ?type_case_n@?$output_processor@_WV?$string_output_adapter@_W@__crt_stdio_output@@V?$format_validation_base@_WV?$string_output_adapter@_W@__crt_stdio_output@@@2@@__crt_stdio_output@@AEAA_NXZ 0000000140017480 f i libucrtd:output.obj
 0001:000166c0       ?type_case_o@?$output_processor@DV?$string_output_adapter@D@__crt_stdio_output@@V?$format_validation_base@DV?$string_output_adapter@D@__crt_stdio_output@@@2@@__crt_stdio_output@@AEAA_NXZ 00000001400176c0 f i libucrtd:output.obj
 0001:00016710       ?type_case_o@?$output_processor@_WV?$string_output_adapter@_W@__crt_stdio_output@@V?$format_validation_base@_WV?$string_output_adapter@_W@__crt_stdio_output@@@2@@__crt_stdio_output@@AEAA_NXZ 0000000140017710 f i libucrtd:output.obj
 0001:00016760       ?type_case_p@?$output_processor@DV?$string_output_adapter@D@__crt_stdio_output@@V?$format_validation_base@DV?$string_output_adapter@D@__crt_stdio_output@@@2@@__crt_stdio_output@@AEAA_NXZ 0000000140017760 f i libucrtd:output.obj
 0001:000167a0       ?type_case_p@?$output_processor@_WV?$string_output_adapter@_W@__crt_stdio_output@@V?$format_validation_base@_WV?$string_output_adapter@_W@__crt_stdio_output@@@2@@__crt_stdio_output@@AEAA_NXZ 00000001400177a0 f i libucrtd:output.obj
 0001:000167e0       ?type_case_s@?$output_processor@DV?$string_output_adapter@D@__crt_stdio_output@@V?$format_validation_base@DV?$string_output_adapter@D@__crt_stdio_output@@@2@@__crt_stdio_output@@AEAA_NXZ 00000001400177e0 f i libucrtd:output.obj
 0001:00016900       ?type_case_s@?$output_processor@_WV?$string_output_adapter@_W@__crt_stdio_output@@V?$format_validation_base@_WV?$string_output_adapter@_W@__crt_stdio_output@@@2@@__crt_stdio_output@@AEAA_NXZ 0000000140017900 f i libucrtd:output.obj
 0001:00016a20       ?type_case_s_compute_narrow_string_length@?$output_processor@DV?$string_output_adapter@D@__crt_stdio_output@@V?$format_validation_base@DV?$string_output_adapter@D@__crt_stdio_output@@@2@@__crt_stdio_output@@AEBAHHD@Z 0000000140017a20 f i libucrtd:output.obj
 0001:00016a50       ?type_case_s_compute_narrow_string_length@?$output_processor@_WV?$string_output_adapter@_W@__crt_stdio_output@@V?$format_validation_base@_WV?$string_output_adapter@_W@__crt_stdio_output@@@2@@__crt_stdio_output@@AEBAHH_W@Z 0000000140017a50 f i libucrtd:output.obj
 0001:00016ae0       ?type_case_u@?$output_processor@DV?$string_output_adapter@D@__crt_stdio_output@@V?$format_validation_base@DV?$string_output_adapter@D@__crt_stdio_output@@@2@@__crt_stdio_output@@AEAA_NXZ 0000000140017ae0 f i libucrtd:output.obj
 0001:00016b00       ?type_case_u@?$output_processor@_WV?$string_output_adapter@_W@__crt_stdio_output@@V?$format_validation_base@_WV?$string_output_adapter@_W@__crt_stdio_output@@@2@@__crt_stdio_output@@AEAA_NXZ 0000000140017b00 f i libucrtd:output.obj
 0001:00016b20       ?type_case_x@?$output_processor@DV?$string_output_adapter@D@__crt_stdio_output@@V?$format_validation_base@DV?$string_output_adapter@D@__crt_stdio_output@@@2@@__crt_stdio_output@@AEAA_NXZ 0000000140017b20 f i libucrtd:output.obj
 0001:00016b40       ?type_case_x@?$output_processor@_WV?$string_output_adapter@_W@__crt_stdio_output@@V?$format_validation_base@_WV?$string_output_adapter@_W@__crt_stdio_output@@@2@@__crt_stdio_output@@AEAA_NXZ 0000000140017b40 f i libucrtd:output.obj
 0001:00016b60       ?unset_flag@?$output_processor@_WV?$string_output_adapter@_W@__crt_stdio_output@@V?$format_validation_base@_WV?$string_output_adapter@_W@__crt_stdio_output@@@2@@__crt_stdio_output@@AEAAXI@Z 0000000140017b60 f i libucrtd:output.obj
 0001:00016b60       ?unset_flag@?$output_processor@DV?$string_output_adapter@D@__crt_stdio_output@@V?$format_validation_base@DV?$string_output_adapter@D@__crt_stdio_output@@@2@@__crt_stdio_output@@AEAAXI@Z 0000000140017b60 f i libucrtd:output.obj
 0001:00016b90       ?update_field_width@?$standard_base@_WV?$string_output_adapter@_W@__crt_stdio_output@@@__crt_stdio_output@@IEAA_NXZ 0000000140017b90 f i libucrtd:output.obj
 0001:00016b90       ?update_field_width@?$standard_base@DV?$string_output_adapter@D@__crt_stdio_output@@@__crt_stdio_output@@IEAA_NXZ 0000000140017b90 f i libucrtd:output.obj
 0001:00016bc0       ?update_precision@?$standard_base@_WV?$string_output_adapter@_W@__crt_stdio_output@@@__crt_stdio_output@@IEAA_NXZ 0000000140017bc0 f i libucrtd:output.obj
 0001:00016bc0       ?update_precision@?$standard_base@DV?$string_output_adapter@D@__crt_stdio_output@@@__crt_stdio_output@@IEAA_NXZ 0000000140017bc0 f i libucrtd:output.obj
 0001:00016bf0       ?validate@?$string_output_adapter@D@__crt_stdio_output@@QEBA_NXZ 0000000140017bf0 f i libucrtd:output.obj
 0001:00016cb0       ?validate@?$string_output_adapter@_W@__crt_stdio_output@@QEBA_NXZ 0000000140017cb0 f i libucrtd:output.obj
 0001:00016d70       ?validate_and_update_state_at_end_of_format_string@?$format_validation_base@DV?$string_output_adapter@D@__crt_stdio_output@@@__crt_stdio_output@@IEBA_NXZ 0000000140017d70 f i libucrtd:output.obj
 0001:00016e30       ?validate_and_update_state_at_end_of_format_string@?$format_validation_base@_WV?$string_output_adapter@_W@__crt_stdio_output@@@__crt_stdio_output@@IEBA_NXZ 0000000140017e30 f i libucrtd:output.obj
 0001:00016ef0       ?wide_null_string@?$output_processor@_WV?$string_output_adapter@_W@__crt_stdio_output@@V?$format_validation_base@_WV?$string_output_adapter@_W@__crt_stdio_output@@@2@@__crt_stdio_output@@CAPEA_WXZ 0000000140017ef0 f i libucrtd:output.obj
 0001:00016ef0       ?wide_null_string@?$output_processor@DV?$string_output_adapter@D@__crt_stdio_output@@V?$format_validation_base@DV?$string_output_adapter@D@__crt_stdio_output@@@2@@__crt_stdio_output@@CAPEA_WXZ 0000000140017ef0 f i libucrtd:output.obj
 0001:00016f00       ?write_character@?$string_output_adapter@D@__crt_stdio_output@@QEBA_NDQEAH@Z 0000000140017f00 f i libucrtd:output.obj
 0001:00016fc0       ?write_character@?$string_output_adapter@_W@__crt_stdio_output@@QEBA_N_WQEAH@Z 0000000140017fc0 f i libucrtd:output.obj
 0001:00017080       ?write_stored_string_tchar@?$output_processor@DV?$string_output_adapter@D@__crt_stdio_output@@V?$format_validation_base@DV?$string_output_adapter@D@__crt_stdio_output@@@2@@__crt_stdio_output@@AEAA_ND@Z 0000000140018080 f i libucrtd:output.obj
 0001:00017240       ?write_stored_string_tchar@?$output_processor@_WV?$string_output_adapter@_W@__crt_stdio_output@@V?$format_validation_base@_WV?$string_output_adapter@_W@__crt_stdio_output@@@2@@__crt_stdio_output@@AEAA_N_W@Z 0000000140018240 f i libucrtd:output.obj
 0001:00017390       ?write_string@?$string_output_adapter@D@__crt_stdio_output@@QEBAXQEBDHQEAHAEAV__crt_deferred_errno_cache@@@Z 0000000140018390 f i libucrtd:output.obj
 0001:00017500       ?write_string@?$string_output_adapter@_W@__crt_stdio_output@@QEBAXQEB_WHQEAHAEAV__crt_deferred_errno_cache@@@Z 0000000140018500 f i libucrtd:output.obj
 0001:00017670       __acrt_isleadbyte_l_noupdate 0000000140018670 f i libucrtd:output.obj
 0001:000176a0       __acrt_locale_get_ctype_array_value 00000001400186a0 f i libucrtd:output.obj
 0001:000176e0       __stdio_common_vsnprintf_s 00000001400186e0 f   libucrtd:output.obj
 0001:00017740       __stdio_common_vsnwprintf_s 0000000140018740 f   libucrtd:output.obj
 0001:000177a0       __stdio_common_vsprintf_s  00000001400187a0 f   libucrtd:output.obj
 0001:000177f0       _ctype_fast_check_internal 00000001400187f0 f i libucrtd:output.obj
 0001:00017820       _isdigit_fast_internal     0000000140018820 f i libucrtd:output.obj
 0001:00017850       _tolower_fast_internal     0000000140018850 f i libucrtd:output.obj
 0001:00018630       ??$get_module_file_name@AEAPEAUHINSTANCE__@@AEAY0BAF@_WK@?$__crt_char_traits@_W@@SAKAEAPEAUHINSTANCE__@@AEAY0BAF@_W$$QEAK@Z 0000000140019630 f i libucrtd:dbgrpt.obj
 0001:00018670       ??$tcscpy_s@AEAY0BAF@D_KPEBD@?$__crt_char_traits@D@@SAHAEAY0BAF@D$$QEA_K$$QEAPEBD@Z 0000000140019670 f i libucrtd:dbgrpt.obj
 0001:000186b0       ??$tcscpy_s@AEAY0BAF@_W_KPEB_W@?$__crt_char_traits@_W@@SAHAEAY0BAF@_W$$QEA_K$$QEAPEB_W@Z 00000001400196b0 f i libucrtd:dbgrpt.obj
 0001:000186f0       ??$tcslen@AEAY0BAF@D@?$__crt_char_traits@D@@SA_KAEAY0BAF@D@Z 00000001400196f0 f i libucrtd:dbgrpt.obj
 0001:00018710       ??$tcslen@AEAY0BAF@_W@?$__crt_char_traits@_W@@SA_KAEAY0BAF@_W@Z 0000000140019710 f i libucrtd:dbgrpt.obj
 0001:00018730       ??$tcslen@AEBQEBD@?$__crt_char_traits@D@@SA_KAEBQEBD@Z 0000000140019730 f i libucrtd:dbgrpt.obj
 0001:00018750       ??$tcslen@AEBQEB_W@?$__crt_char_traits@_W@@SA_KAEBQEB_W@Z 0000000140019750 f i libucrtd:dbgrpt.obj
 0001:000187b0       _CrtDbgReport              00000001400197b0 f   libucrtd:dbgrpt.obj
 0001:00018830       _CrtDbgReportW             0000000140019830 f   libucrtd:dbgrpt.obj
 0001:000188b0       __acrt_MessageWindowA      00000001400198b0 f   libucrtd:dbgrpt.obj
 0001:00018900       __acrt_MessageWindowW      0000000140019900 f   libucrtd:dbgrpt.obj
 0001:00018950       _snwprintf_s               0000000140019950 f i libucrtd:dbgrpt.obj
 0001:000189c0       _vsnwprintf_s_l            00000001400199c0 f i libucrtd:dbgrpt.obj
 0001:00018a40       ??$is_overflow_condition@K@__crt_strtox@@YA_NIK@Z 0000000140019a40 f i libucrtd:atox.obj
 0001:00018ab0       ??$parse_integer@KV?$c_string_character_source@D@__crt_strtox@@@__crt_strtox@@YAKQEAU__crt_locale_pointers@@V?$c_string_character_source@D@0@H_N@Z 0000000140019ab0 f i libucrtd:atox.obj
 0001:00018f40       ??$parse_integer@KV?$c_string_character_source@_W@__crt_strtox@@@__crt_strtox@@YAKQEAU__crt_locale_pointers@@V?$c_string_character_source@_W@0@H_N@Z 0000000140019f40 f i libucrtd:atox.obj
 0001:000193f0       ??0?$c_string_character_source@D@__crt_strtox@@QEAA@QEBDQEAPEBD@Z 000000014001a3f0 f i libucrtd:atox.obj
 0001:000193f0       ??0?$c_string_character_source@_W@__crt_strtox@@QEAA@QEB_WQEAPEB_W@Z 000000014001a3f0 f i libucrtd:atox.obj
 0001:00019440       ??1?$c_string_character_source@_W@__crt_strtox@@QEAA@XZ 000000014001a440 f i libucrtd:atox.obj
 0001:00019440       ??1?$c_string_character_source@D@__crt_strtox@@QEAA@XZ 000000014001a440 f i libucrtd:atox.obj
 0001:00019470       ?get@?$c_string_character_source@D@__crt_strtox@@QEAADXZ 000000014001a470 f i libucrtd:atox.obj
 0001:000194b0       ?get@?$c_string_character_source@_W@__crt_strtox@@QEAA_WXZ 000000014001a4b0 f i libucrtd:atox.obj
 0001:000194f0       ?is_space@__crt_strtox@@YA_NDQEAU__crt_locale_pointers@@@Z 000000014001a4f0 f i libucrtd:atox.obj
 0001:00019540       ?is_space@__crt_strtox@@YA_N_WPEAU__crt_locale_pointers@@@Z 000000014001a540 f i libucrtd:atox.obj
 0001:00019580       ?maximum_signed_value@__crt_strtox@@YAJK@Z 000000014001a580 f i libucrtd:atox.obj
 0001:00019590       ?minimum_signed_value@__crt_strtox@@YAJK@Z 000000014001a590 f i libucrtd:atox.obj
 0001:000195a0       ?parse_digit@__crt_strtox@@YAID@Z 000000014001a5a0 f i libucrtd:atox.obj
 0001:00019610       ?parse_digit@__crt_strtox@@YAI_W@Z 000000014001a610 f i libucrtd:atox.obj
 0001:00019660       ?restore_state@?$c_string_character_source@D@__crt_strtox@@QEAA_NQEBD@Z 000000014001a660 f i libucrtd:atox.obj
 0001:00019660       ?restore_state@?$c_string_character_source@_W@__crt_strtox@@QEAA_NQEB_W@Z 000000014001a660 f i libucrtd:atox.obj
 0001:00019680       ?unget@?$c_string_character_source@D@__crt_strtox@@QEAAXD@Z 000000014001a680 f i libucrtd:atox.obj
 0001:00019760       ?unget@?$c_string_character_source@_W@__crt_strtox@@QEAAX_W@Z 000000014001a760 f i libucrtd:atox.obj
 0001:00019840       ?validate@?$c_string_character_source@D@__crt_strtox@@QEBA_NXZ 000000014001a840 f i libucrtd:atox.obj
 0001:00019900       ?validate@?$c_string_character_source@_W@__crt_strtox@@QEBA_NXZ 000000014001a900 f i libucrtd:atox.obj
 0001:000199c0       ?wide_character_to_digit@__crt_strtox@@YAH_W@Z 000000014001a9c0 f i libucrtd:atox.obj
 0001:00019d30       __ascii_iswalpha           000000014001ad30 f i libucrtd:atox.obj
 0001:00019d70       __ascii_toupper            000000014001ad70 f i libucrtd:atox.obj
 0001:00019d90       __ascii_towupper           000000014001ad90 f i libucrtd:atox.obj
 0001:00019dc0       strncmp                    000000014001adc0 f   libucrtd:strncmp.obj
 0001:00019e40       wcsncmp                    000000014001ae40 f   libucrtd:wcsncmp.obj
 0001:00019ed0       free                       000000014001aed0 f   libucrtd:free.obj
 0001:00019f00       malloc                     000000014001af00 f   libucrtd:malloc.obj
 0001:0001a170       ??0__crt_scoped_get_last_error_reset@@QEAA@XZ 000000014001b170 f i libucrtd:per_thread_data.obj
 0001:0001a190       ??1__crt_scoped_get_last_error_reset@@QEAA@XZ 000000014001b190 f i libucrtd:per_thread_data.obj
 0001:0001a830       __acrt_getptd              000000014001b830 f   libucrtd:per_thread_data.obj
 0001:0001a860       __acrt_getptd_head         000000014001b860 f   libucrtd:per_thread_data.obj
 0001:0001a890       __acrt_getptd_noexit       000000014001b890 f   libucrtd:per_thread_data.obj
 0001:0001a8a0       __acrt_initialize_ptd      000000014001b8a0 f   libucrtd:per_thread_data.obj
 0001:0001a8e0       __acrt_uninitialize_ptd    000000014001b8e0 f   libucrtd:per_thread_data.obj
 0001:0001a910       _set_error_mode            000000014001b910 f   libucrtd:set_error_mode.obj
 0001:0001b090       wcscat_s                   000000014001c090 f   libucrtd:wcscat_s.obj
 0001:0001b5a0       wcscpy_s                   000000014001c5a0 f   libucrtd:wcscpy_s.obj
 0001:0001bc70       wcsncpy_s                  000000014001cc70 f   libucrtd:wcsncpy_s.obj
 0001:0001d010       ??1?$__crt_simd_cleanup_guard@$00@@QEAA@XZ 000000014001e010 f i libucrtd:strnlen.obj
 0001:0001d020       ?compare_equals@?$__crt_simd_traits@$00E@@SA?AT__m256i@@T2@0@Z 000000014001e020 f i libucrtd:strnlen.obj
 0001:0001d060       ?compare_equals@?$__crt_simd_traits@$00G@@SA?AT__m256i@@T2@0@Z 000000014001e060 f i libucrtd:strnlen.obj
 0001:0001d0a0       ?compare_equals@?$__crt_simd_traits@$0A@E@@SA?AT__m128i@@T2@0@Z 000000014001e0a0 f i libucrtd:strnlen.obj
 0001:0001d0d0       ?compare_equals@?$__crt_simd_traits@$0A@G@@SA?AT__m128i@@T2@0@Z 000000014001e0d0 f i libucrtd:strnlen.obj
 0001:0001d100       ?compute_byte_mask@?$__crt_simd_pack_traits@$00@@SAHT__m256i@@@Z 000000014001e100 f i libucrtd:strnlen.obj
 0001:0001d120       ?compute_byte_mask@?$__crt_simd_pack_traits@$0A@@@SAHT__m128i@@@Z 000000014001e120 f i libucrtd:strnlen.obj
 0001:0001d140       ?get_zero_pack@?$__crt_simd_pack_traits@$00@@SA?AT__m256i@@XZ 000000014001e140 f i libucrtd:strnlen.obj
 0001:0001d170       ?get_zero_pack@?$__crt_simd_pack_traits@$0A@@@SA?AT__m128i@@XZ 000000014001e170 f i libucrtd:strnlen.obj
 0001:0001d190       strnlen                    000000014001e190 f   libucrtd:strnlen.obj
 0001:0001d1c0       wcslen                     000000014001e1c0 f   libucrtd:strnlen.obj
 0001:0001d1e0       wcsnlen                    000000014001e1e0 f   libucrtd:strnlen.obj
 0001:0001d350       ??$message_box@PEAUHWND__@@AEBQEB_WAEBQEB_WAEBI@?$__crt_char_traits@_W@@SAH$$QEAPEAUHWND__@@AEBQEB_W1AEBI@Z 000000014001e350 f i libucrtd:crtmbox.obj
 0001:0001d350       ??$message_box@$$TAEBQEB_WAEBQEB_WK@?$__crt_char_traits@_W@@SAH$$QEA$$TAEBQEB_W1$$QEAK@Z 000000014001e350 f i libucrtd:crtmbox.obj
 0001:0001d3a0       ??$output_debug_string@AEBQEB_W@?$__crt_char_traits@_W@@SAXAEBQEB_W@Z 000000014001e3a0 f i libucrtd:crtmbox.obj
 0001:0001d3c0       __acrt_show_wide_message_box 000000014001e3c0 f   libucrtd:crtmbox.obj
 0001:0001d3f0       __acrt_errno_from_os_error 000000014001e3f0 f   libucrtd:errno.obj
 0001:0001d480       __acrt_errno_map_os_error  000000014001e480 f   libucrtd:errno.obj
 0001:0001d4b0       __doserrno                 000000014001e4b0 f   libucrtd:errno.obj
 0001:0001d4e0       _errno                     000000014001e4e0 f   libucrtd:errno.obj
 0001:0001d880       ??$__acrt_mbs_to_wcs_cp@U__crt_win32_buffer_internal_dynamic_resizing@@@@YAHQEBDAEAV?$__crt_win32_buffer@_WU__crt_win32_buffer_internal_dynamic_resizing@@@@I@Z 000000014001e880 f i libucrtd:argv_wildcards.obj
 0001:0001d8d0       ??$__acrt_wcs_to_mbs_cp@U__crt_win32_buffer_internal_dynamic_resizing@@@@YAHQEB_WAEAV?$__crt_win32_buffer@DU__crt_win32_buffer_internal_dynamic_resizing@@@@I@Z 000000014001e8d0 f i libucrtd:argv_wildcards.obj
 0001:0001e320       ??$tcsncpy_s@PEADAEB_KAEBQEBDAEB_K@?$__crt_char_traits@D@@SAH$$QEAPEADAEB_KAEBQEBD1@Z 000000014001f320 f i libucrtd:argv_wildcards.obj
 0001:0001e320       ??$tcsncpy_s@PEAD_KAEBQEBDAEB_K@?$__crt_char_traits@D@@SAH$$QEAPEAD$$QEA_KAEBQEBDAEB_K@Z 000000014001f320 f i libucrtd:argv_wildcards.obj
 0001:0001e320       ??$tcsncpy_s@AEAPEAD_KAEAPEADAEB_K@?$__crt_char_traits@D@@SAHAEAPEAD$$QEA_K0AEB_K@Z 000000014001f320 f i libucrtd:argv_wildcards.obj
 0001:0001e370       ??$tcspbrk@AEAPEADAEAY02$$CBD@?$__crt_char_traits@D@@SAPEADAEAPEADAEAY02$$CBD@Z 000000014001f370 f i libucrtd:argv_wildcards.obj
 0001:0001e3a0       ??0?$__crt_win32_buffer@DU__crt_win32_buffer_internal_dynamic_resizing@@@@QEAA@XZ 000000014001f3a0 f i libucrtd:argv_wildcards.obj
 0001:0001e3a0       ??0?$__crt_win32_buffer@_WU__crt_win32_buffer_internal_dynamic_resizing@@@@QEAA@XZ 000000014001f3a0 f i libucrtd:argv_wildcards.obj
 0001:0001e440       ??1?$__crt_unique_handle_t@U__crt_findfile_traits@@@@QEAA@XZ 000000014001f440 f i libucrtd:argv_wildcards.obj
 0001:0001e460       ??1?$__crt_win32_buffer@_WU__crt_win32_buffer_internal_dynamic_resizing@@@@QEAA@XZ 000000014001f460 f i libucrtd:argv_wildcards.obj
 0001:0001e460       ??1?$__crt_win32_buffer@DU__crt_win32_buffer_internal_dynamic_resizing@@@@QEAA@XZ 000000014001f460 f i libucrtd:argv_wildcards.obj
 0001:0001e650       ?__acrt_get_utf8_acp_compatibility_codepage@@YAIXZ 000000014001f650 f i libucrtd:argv_wildcards.obj
 0001:0001e6f0       ?_deallocate@?$__crt_win32_buffer@DU__crt_win32_buffer_internal_dynamic_resizing@@@@AEAAXXZ 000000014001f6f0 f i libucrtd:argv_wildcards.obj
 0001:0001e6f0       ?_deallocate@?$__crt_win32_buffer@_WU__crt_win32_buffer_internal_dynamic_resizing@@@@AEAAXXZ 000000014001f6f0 f i libucrtd:argv_wildcards.obj
 0001:0001e730       ?allocate@?$__crt_win32_buffer@DU__crt_win32_buffer_internal_dynamic_resizing@@@@QEAAH_K@Z 000000014001f730 f i libucrtd:argv_wildcards.obj
 0001:0001e7b0       ?allocate@?$__crt_win32_buffer@_WU__crt_win32_buffer_internal_dynamic_resizing@@@@QEAAH_K@Z 000000014001f7b0 f i libucrtd:argv_wildcards.obj
 0001:0001e840       ?allocate@__crt_win32_buffer_internal_dynamic_resizing@@SAHQEAPEAX_KAEBV__crt_win32_buffer_empty_debug_info@@@Z 000000014001f840 f i libucrtd:argv_wildcards.obj
 0001:0001e910       ?capacity@?$__crt_win32_buffer@_WU__crt_win32_buffer_internal_dynamic_resizing@@@@QEBA_KXZ 000000014001f910 f i libucrtd:argv_wildcards.obj
 0001:0001e910       ?capacity@?$__crt_win32_buffer@DU__crt_win32_buffer_internal_dynamic_resizing@@@@QEBA_KXZ 000000014001f910 f i libucrtd:argv_wildcards.obj
 0001:0001e910       ?capacity@?$__crt_win32_buffer@DU__crt_win32_buffer_no_resizing@@@@QEBA_KXZ 000000014001f910 f i libucrtd:getmodulefilenamea.obj
 0001:0001e920       ?close@?$__crt_unique_handle_t@U__crt_findfile_traits@@@@QEAAXXZ 000000014001f920 f i libucrtd:argv_wildcards.obj
 0001:0001e960       ?close@__crt_findfile_traits@@SA_NPEAX@Z 000000014001f960 f i libucrtd:argv_wildcards.obj
 0001:0001e9a0       ?data@?$__crt_win32_buffer@_WU__crt_win32_buffer_internal_dynamic_resizing@@@@QEAAPEA_WXZ 000000014001f9a0 f i libucrtd:argv_wildcards.obj
 0001:0001e9a0       ?data@?$__crt_win32_buffer@DU__crt_win32_buffer_no_resizing@@@@QEAAPEADXZ 000000014001f9a0 f i libucrtd:getmodulefilenamea.obj
 0001:0001e9a0       ?data@?$__crt_win32_buffer@DU__crt_win32_buffer_internal_dynamic_resizing@@@@QEAAPEADXZ 000000014001f9a0 f i libucrtd:argv_wildcards.obj
 0001:0001e9b0       ?deallocate@__crt_win32_buffer_internal_dynamic_resizing@@SAXQEAXAEBV__crt_win32_buffer_empty_debug_info@@@Z 000000014001f9b0 f i libucrtd:argv_wildcards.obj
 0001:0001eca0       ?set_to_nullptr@?$__crt_win32_buffer@DU__crt_win32_buffer_internal_dynamic_resizing@@@@QEAAXXZ 000000014001fca0 f i libucrtd:argv_wildcards.obj
 0001:0001eca0       ?set_to_nullptr@?$__crt_win32_buffer@_WU__crt_win32_buffer_internal_dynamic_resizing@@@@QEAAXXZ 000000014001fca0 f i libucrtd:argv_wildcards.obj
 0001:0001ece0       ?size@?$__crt_win32_buffer@DU__crt_win32_buffer_internal_dynamic_resizing@@@@QEAAX_K@Z 000000014001fce0 f i libucrtd:argv_wildcards.obj
 0001:0001ece0       ?size@?$__crt_win32_buffer@_WU__crt_win32_buffer_internal_dynamic_resizing@@@@QEAAX_K@Z 000000014001fce0 f i libucrtd:argv_wildcards.obj
 0001:0001ece0       ?size@?$__crt_win32_buffer@DU__crt_win32_buffer_no_resizing@@@@QEAAX_K@Z 000000014001fce0 f i libucrtd:getmodulefilenamea.obj
 0001:0001ed20       ?strpbrk@@YAPEADQEADQEBD@Z 000000014001fd20 f i libucrtd:argv_wildcards.obj
 0001:0001ed50       __acrt_expand_narrow_argv_wildcards 000000014001fd50 f   libucrtd:argv_wildcards.obj
 0001:0001ef20       ??$__acrt_wcs_to_mbs_cp@U__crt_win32_buffer_no_resizing@@@@YAHQEB_WAEAV?$__crt_win32_buffer@DU__crt_win32_buffer_no_resizing@@@@I@Z 000000014001ff20 f i libucrtd:getmodulefilenamea.obj
 0001:0001ef70       ??0?$__crt_win32_buffer@DU__crt_win32_buffer_no_resizing@@@@QEAA@QEAD_K@Z 000000014001ff70 f i libucrtd:getmodulefilenamea.obj
 0001:0001efe0       ??1?$__crt_win32_buffer@DU__crt_win32_buffer_no_resizing@@@@QEAA@XZ 000000014001ffe0 f i libucrtd:getmodulefilenamea.obj
 0001:0001f010       ?_deallocate@?$__crt_win32_buffer@DU__crt_win32_buffer_no_resizing@@@@AEAAXXZ 0000000140020010 f i libucrtd:getmodulefilenamea.obj
 0001:0001f050       ?allocate@?$__crt_win32_buffer@DU__crt_win32_buffer_no_resizing@@@@QEAAH_K@Z 0000000140020050 f i libucrtd:getmodulefilenamea.obj
 0001:0001f0d0       ?allocate@__crt_win32_buffer_no_resizing@@SAHQEAPEAX_KAEBV__crt_win32_buffer_empty_debug_info@@@Z 00000001400200d0 f i libucrtd:getmodulefilenamea.obj
 0001:0001f100       ?deallocate@__crt_win32_buffer_no_resizing@@SAXQEAXAEBV__crt_win32_buffer_empty_debug_info@@@Z 0000000140020100 f i libucrtd:getmodulefilenamea.obj
 0001:0001f110       ?set_to_nullptr@?$__crt_win32_buffer@DU__crt_win32_buffer_no_resizing@@@@QEAAXXZ 0000000140020110 f i libucrtd:getmodulefilenamea.obj
 0001:0001f150       ?size@?$__crt_win32_buffer@DU__crt_win32_buffer_no_resizing@@@@QEBA_KXZ 0000000140020150 f i libucrtd:getmodulefilenamea.obj
 0001:0001f160       __acrt_GetModuleFileNameA  0000000140020160 f   libucrtd:getmodulefilenamea.obj
 0001:0001f2d0       ??$initialize_from_array@$$BY10BAA@E@?$dual_state_global@PEAE@__crt_state_management@@QEAAXAEAY10BAA@E@Z 00000001400202d0 f i libucrtd:mbctype.obj
 0001:0001f340       ??$initialize_from_array@$$BY10BAB@E@?$dual_state_global@PEAE@__crt_state_management@@QEAAXAEAY10BAB@E@Z 0000000140020340 f i libucrtd:mbctype.obj
 0001:0001feb0       __acrt_initialize_multibyte 0000000140020eb0 f   libucrtd:mbctype.obj
 0001:0001ff80       __acrt_should_sync_with_global_locale 0000000140020f80 f i libucrtd:mbctype.obj
 0001:0001ffc0       __acrt_update_thread_multibyte_data 0000000140020fc0 f   libucrtd:mbctype.obj
 0001:0001fff0       _setmbcp_nolock            0000000140020ff0 f   libucrtd:mbctype.obj
 0001:00020694       _ismbblead                 0000000140021694 f   libucrtd:ismbbyte.obj
 0001:000206b0       __acrt_initialize_command_line 00000001400216b0 f   libucrtd:argv_data.obj
 0001:00020780       __acrt_MultiByteToWideChar 0000000140021780 f   libucrtd:multibytetowidechar.obj
 0001:00020880       __acrt_WideCharToMultiByte 0000000140021880 f   libucrtd:widechartomultibyte.obj
 0001:000209b0       __dcrt_get_narrow_environment_from_os 00000001400219b0 f   libucrtd:get_environment_from_os.obj
 0001:00020ad0       __acrt_initialize_locks    0000000140021ad0 f   libucrtd:locks.obj
 0001:00020b40       __acrt_lock                0000000140021b40 f   libucrtd:locks.obj
 0001:00020b70       __acrt_uninitialize_locks  0000000140021b70 f   libucrtd:locks.obj
 0001:00020bd0       __acrt_unlock              0000000140021bd0 f   libucrtd:locks.obj
 0001:00020ee0       __acrt_get_developer_information_policy 0000000140021ee0 f   libucrtd:win_policies.obj
 0001:00020f00       __acrt_get_process_end_policy 0000000140021f00 f   libucrtd:win_policies.obj
 0001:00020f10       __acrt_get_windowing_model_policy 0000000140021f10 f   libucrtd:win_policies.obj
 0001:00020f30       __acrt_lowio_create_handle_array 0000000140021f30 f   libucrtd:osfinfo.obj
 0001:000210f0       __acrt_lowio_destroy_handle_array 00000001400220f0 f   libucrtd:osfinfo.obj
 0001:00021170       __acrt_lowio_ensure_fh_exists 0000000140022170 f   libucrtd:osfinfo.obj
 0001:000212d0       __acrt_lowio_lock_fh       00000001400222d0 f   libucrtd:osfinfo.obj
 0001:00021310       __acrt_lowio_unlock_fh     0000000140022310 f   libucrtd:osfinfo.obj
 0001:00021350       _free_osfhnd               0000000140022350 f   libucrtd:osfinfo.obj
 0001:00021480       _get_osfhandle             0000000140022480 f   libucrtd:osfinfo.obj
 0001:00021680       __acrt_initialize_fmode    0000000140022680 f   libucrtd:txtmode.obj
 0001:00021a80       __acrt_initialize_lowio    0000000140022a80 f   libucrtd:ioinit.obj
 0001:00021ad0       __acrt_uninitialize_lowio  0000000140022ad0 f   libucrtd:ioinit.obj
 0001:00021b50       __acrt_locale_free_monetary 0000000140022b50 f   libucrtd:initmon.obj
 0001:00021d60       __acrt_locale_free_numeric 0000000140022d60 f   libucrtd:initnum.obj
 0001:00021f00       __acrt_locale_free_time    0000000140022f00 f   libucrtd:inittime.obj
 0001:00022070       __pctype_func              0000000140023070 f   libucrtd:ctype.obj
 0001:000220b0       _chvalidator_l             00000001400230b0 f   libucrtd:isctype.obj
 0001:00022160       _isctype_l                 0000000140023160 f   libucrtd:isctype.obj
 0001:00022390       _isleadbyte_fast_internal  0000000140023390 f i libucrtd:isctype.obj
 0001:000223c0       ??1?$__crt_scoped_stack_ptr@_W@@QEAA@XZ 00000001400233c0 f i libucrtd:getstringtypea.obj
 0001:000223e0       _MallocaComputeSize        00000001400233e0 f i libucrtd:getstringtypea.obj
 0001:00022420       _MarkAllocaS               0000000140023420 f i libucrtd:getstringtypea.obj
 0001:00022450       __acrt_GetStringTypeA      0000000140023450 f   libucrtd:getstringtypea.obj
 0001:000226b0       _freea_crt                 00000001400236b0 f i libucrtd:getstringtypea.obj
 0001:00022750       __acrt_add_locale_ref      0000000140023750 f   libucrtd:locale_refcounting.obj
 0001:000228b0       __acrt_free_locale         00000001400238b0 f   libucrtd:locale_refcounting.obj
 0001:00022c30       __acrt_locale_add_lc_time_reference 0000000140023c30 f   libucrtd:locale_refcounting.obj
 0001:00022c70       __acrt_locale_free_lc_time_if_unreferenced 0000000140023c70 f   libucrtd:locale_refcounting.obj
 0001:00022cd0       __acrt_locale_release_lc_time_reference 0000000140023cd0 f   libucrtd:locale_refcounting.obj
 0001:00022d10       __acrt_release_locale_ref  0000000140023d10 f   libucrtd:locale_refcounting.obj
 0001:00022e80       __acrt_update_thread_locale_data 0000000140023e80 f   libucrtd:locale_refcounting.obj
 0001:00022f20       _updatetlocinfoEx_nolock   0000000140023f20 f   libucrtd:locale_refcounting.obj
 0001:00023730       GetCurrentThreadEffectiveToken 0000000140024730 f i libucrtd:winapi_thunks.obj
 0001:00023740       __acrt_AppPolicyGetProcessTerminationMethodInternal 0000000140024740 f   libucrtd:winapi_thunks.obj
 0001:00023790       __acrt_AppPolicyGetShowDeveloperDiagnosticInternal 0000000140024790 f   libucrtd:winapi_thunks.obj
 0001:000237e0       __acrt_AppPolicyGetWindowingModelInternal 00000001400247e0 f   libucrtd:winapi_thunks.obj
 0001:00023830       __acrt_AreFileApisANSI     0000000140024830 f   libucrtd:winapi_thunks.obj
 0001:00023870       __acrt_FlsAlloc            0000000140024870 f   libucrtd:winapi_thunks.obj
 0001:000238c0       __acrt_FlsFree             00000001400248c0 f   libucrtd:winapi_thunks.obj
 0001:00023910       __acrt_FlsGetValue         0000000140024910 f   libucrtd:winapi_thunks.obj
 0001:00023960       __acrt_FlsSetValue         0000000140024960 f   libucrtd:winapi_thunks.obj
 0001:000239c0       __acrt_InitializeCriticalSectionEx 00000001400249c0 f   libucrtd:winapi_thunks.obj
 0001:00023a20       __acrt_LCMapStringEx       0000000140024a20 f   libucrtd:winapi_thunks.obj
 0001:00023b00       __acrt_LocaleNameToLCID    0000000140024b00 f   libucrtd:winapi_thunks.obj
 0001:00023b50       __acrt_MessageBoxW         0000000140024b50 f   libucrtd:winapi_thunks.obj
 0001:00023bb0       __acrt_can_show_message_box 0000000140024bb0 f   libucrtd:winapi_thunks.obj
 0001:00023bf0       __acrt_get_parent_window   0000000140024bf0 f   libucrtd:winapi_thunks.obj
 0001:00023c70       __acrt_initialize_winapi_thunks 0000000140024c70 f   libucrtd:winapi_thunks.obj
 0001:00023cf0       __acrt_is_interactive      0000000140024cf0 f   libucrtd:winapi_thunks.obj
 0001:00023dd0       __acrt_uninitialize_winapi_thunks 0000000140024dd0 f   libucrtd:winapi_thunks.obj
 0001:00023e70       __acrt_initialize_heap     0000000140024e70 f   libucrtd:heap_handle.obj
 0001:00023ea0       __acrt_uninitialize_heap   0000000140024ea0 f   libucrtd:heap_handle.obj
 0001:00023ec0       __acrt_execute_initializers 0000000140024ec0 f   libucrtd:shared_initialization.obj
 0001:00023fb0       __acrt_execute_uninitializers 0000000140024fb0 f   libucrtd:shared_initialization.obj
 0001:00024030       __acrt_initialize_new_handler 0000000140025030 f   libucrtd:new_handler.obj
 0001:00024050       _callnewh                  0000000140025050 f   libucrtd:new_handler.obj
 0001:000240a0       _query_new_handler         00000001400250a0 f   libucrtd:new_handler.obj
 0001:000242a0       __acrt_get_sigabrt_handler 00000001400252a0 f   libucrtd:signal.obj
 0001:000242d0       __acrt_initialize_signal_handlers 00000001400252d0 f   libucrtd:signal.obj
 0001:00024330       __fpecode                  0000000140025330 f   libucrtd:signal.obj
 0001:00024350       raise                      0000000140025350 f   libucrtd:signal.obj
 0001:00024810       ?has_any_of@__crt_stdio_stream@@QEBA_NJ@Z 0000000140025810 f i libucrtd:_sftbuf.obj
 0001:00024850       ?set_flags@__crt_stdio_stream@@QEBA_NJ@Z 0000000140025850 f i libucrtd:_sftbuf.obj
 0001:000248c0       ?unset_flags@__crt_stdio_stream@@QEBA_NJ@Z 00000001400258c0 f i libucrtd:_sftbuf.obj
 0001:00024930       _free_base                 0000000140025930 f   libucrtd:free_base.obj
 0001:00024990       _realloc_base              0000000140025990 f   libucrtd:realloc_base.obj
 0001:00024ab0       _expand_base               0000000140025ab0 f   libucrtd:expand.obj
 0001:00024c40       __acrt_update_locale_info  0000000140025c40 f   libucrtd:locale_update.obj
 0001:00024c90       __acrt_update_multibyte_info 0000000140025c90 f   libucrtd:locale_update.obj
 0001:00024ce0       _CrtDefaultAllocHook       0000000140025ce0 f   libucrtd:debug_heap_hook.obj
 0001:00024d00       _CrtGetDebugFillThreshold  0000000140025d00 f   libucrtd:debug_fill_threshold.obj
 0001:00024d10       ??$make_c_string_character_source@_WPEAPEA_W@__crt_strtox@@YA?AV?$c_string_character_source@_W@0@QEB_WQEAPEA_W@Z 0000000140025d10 f i libucrtd:strtox.obj
 0001:00024d10       ??$make_c_string_character_source@DPEAPEAD@__crt_strtox@@YA?AV?$c_string_character_source@D@0@QEBDQEAPEAD@Z 0000000140025d10 f i libucrtd:strtox.obj
 0001:00024d50       ??$parse_integer_from_string@JDPEAPEAD@__crt_strtox@@YAJQEBDQEAPEADHQEAU__crt_locale_pointers@@@Z 0000000140025d50 f i libucrtd:strtox.obj
 0001:00024da0       ??$parse_integer_from_string@J_WPEAPEA_W@__crt_strtox@@YAJQEB_WQEAPEA_WHQEAU__crt_locale_pointers@@@Z 0000000140025da0 f i libucrtd:strtox.obj
 0001:00024df0       strtol                     0000000140025df0 f   libucrtd:strtox.obj
 0001:00024e20       wcstol                     0000000140025e20 f   libucrtd:strtox.obj
 0001:00024e50       _mbtowc_l                  0000000140025e50 f   libucrtd:mbtowc.obj
 0001:000252b0       mbtowc                     00000001400262b0 f   libucrtd:mbtowc.obj
 0001:000252e0       _wctomb_s_l                00000001400262e0 f   libucrtd:wctomb.obj
 0001:00025860       ?__acrt_fp_classify@@YA?AW4__acrt_fp_class@@AEBN@Z 0000000140026860 f i libucrtd:cvt.obj
 0001:00025960       ?__acrt_fp_is_negative@@YA_NAEBN@Z 0000000140026960 f i libucrtd:cvt.obj
 0001:00027330       ?strrchr@@YAPEADQEADH@Z    0000000140028330 f i libucrtd:cvt.obj
 0001:00027350       __acrt_fp_format           0000000140028350 f   libucrtd:cvt.obj
 0001:00027960       ?lowio_handle@__crt_stdio_stream@@QEBAHXZ 0000000140028960 f i libucrtd:fileno.obj
 0001:00027990       _fileno                    0000000140028990 f   libucrtd:fileno.obj
 0001:00027a70       __acrt_initialize_stdio    0000000140028a70 f   libucrtd:_file.obj
 0001:00027c60       __acrt_uninitialize_stdio  0000000140028c60 f   libucrtd:_file.obj
 0001:00027cf0       _lock_file                 0000000140028cf0 f   libucrtd:_file.obj
 0001:00027d30       _unlock_file               0000000140028d30 f   libucrtd:_file.obj
 0001:00027d70       _get_printf_count_output   0000000140028d70 f   libucrtd:printf_count_output.obj
 0001:00027da0       _VCrtDbgReportA            0000000140028da0 f   libucrtd:dbgrptt.obj
 0001:00028780       _VCrtDbgReportW            0000000140029780 f   libucrtd:dbgrptt.obj
 0001:00029300       _snprintf_s                000000014002a300 f i libucrtd:dbgrptt.obj
 0001:00029370       _vsnprintf_s               000000014002a370 f i libucrtd:dbgrptt.obj
 0001:000293c0       _vsnprintf_s_l             000000014002a3c0 f i libucrtd:dbgrptt.obj
 0001:00029440       iswctype                   000000014002a440 f   libucrtd:iswctype.obj
 0001:000294d0       __acrt_OutputDebugStringA  000000014002a4d0 f   libucrtd:outputdebugstringa.obj
 0001:00029700       qsort                      000000014002a700 f   libucrtd:qsort.obj
 0001:0002a490       strncpy_s                  000000014002b490 f   libucrtd:strncpy_s.obj
 0001:0002a600       strpbrk                    000000014002b600 f   libucrtd:strpbrk.obj
 0001:0002aef0       _mbsdec                    000000014002bef0 f   libucrtd:mbsdec.obj
 0001:0002aef8       _mbsdec_l                  000000014002bef8 f   libucrtd:mbsdec.obj
 0001:0002b5e0       __acrt_LCMapStringA        000000014002c5e0 f   libucrtd:lcmapstringa.obj
 0001:0002c2b0       _itoa_s                    000000014002d2b0 f   libucrtd:xtoa.obj
 0001:0002c310       _itow_s                    000000014002d310 f   libucrtd:xtoa.obj
 0001:0002c370       __ascii_wcsnicmp           000000014002d370 f   libucrtd:wcsnicmp.obj
 0001:0002c4f0       __acrt_DownlevelLocaleNameToLCID 000000014002d4f0 f   libucrtd:lcidtoname_downlevel.obj
 0001:0002c550       _isatty                    000000014002d550 f   libucrtd:isatty.obj
 0001:0002c9b0       ?__acrt_stdio_reset_buffer@@YAXV__crt_stdio_stream@@@Z 000000014002d9b0 f i libucrtd:fflush.obj
 0001:0002cae0       ?has_all_of@__crt_stdio_stream@@QEBA_NJ@Z 000000014002dae0 f i libucrtd:fflush.obj
 0001:0002cbc0       __acrt_stdio_flush_nolock  000000014002dbc0 f   libucrtd:fflush.obj
 0001:0002ccd0       _fflush_nolock             000000014002dcd0 f   libucrtd:fflush.obj
 0001:0002cd60       _flushall                  000000014002dd60 f   libucrtd:fflush.obj
 0001:0002cd70       _malloc_base               000000014002dd70 f   libucrtd:malloc_base.obj
 0001:0002ce10       _isleadbyte_l              000000014002de10 f i libucrtd:_wctype.obj
 0001:0002cee0       ?__mbrtowc_utf8@__crt_mbstring@@YA_KPEA_WPEBD_KPEAU_Mbstatet@@@Z 000000014002dee0 f   libucrtd:mbrtowc.obj
 0001:0002cf50       ?__mbsrtowcs_utf8@__crt_mbstring@@YA_KPEA_WPEAPEBD_KPEAU_Mbstatet@@@Z 000000014002df50 f   libucrtd:mbrtowc.obj
 0001:0002d250       ?__c32rtomb_utf8@__crt_mbstring@@YA_KPEAD_UPEAU_Mbstatet@@@Z 000000014002e250 f   libucrtd:c32rtomb.obj
 0001:0002d4d0       ?reset_and_return@__crt_mbstring@@YA_K_KPEAU_Mbstatet@@@Z 000000014002e4d0 f i libucrtd:c32rtomb.obj
 0001:0002d510       ?return_illegal_sequence@__crt_mbstring@@YA_KPEAU_Mbstatet@@@Z 000000014002e510 f i libucrtd:c32rtomb.obj
 0001:0002d550       c32rtomb                   000000014002e550 f   libucrtd:c32rtomb.obj
 0001:0002d710       __acrt_fp_strflt_to_string 000000014002e710 f   libucrtd:_fptostr.obj
 0001:0002e210       ??4big_integer@__crt_strtox@@QEAAAEAU01@AEBU01@@Z 000000014002f210 f i libucrtd:cfout.obj
 0001:0002e210       ??0big_integer@__crt_strtox@@QEAA@AEBU01@@Z 000000014002f210 f i libucrtd:cfout.obj
 0001:0002e270       ??0big_integer@__crt_strtox@@QEAA@XZ 000000014002f270 f i libucrtd:cfout.obj
 0001:0002e330       ??8__crt_strtox@@YA_NAEBUbig_integer@0@0@Z 000000014002f330 f i libucrtd:cfout.obj
 0001:0002e3a0       ??9__crt_strtox@@YA_NAEBUbig_integer@0@0@Z 000000014002f3a0 f i libucrtd:cfout.obj
 0001:0002e3e0       ?add_carry@__crt_strtox@@YAIAEAIII@Z 000000014002f3e0 f i libucrtd:cfout.obj
 0001:0002e430       ?add_multiply_carry@__crt_strtox@@YAIAEAIIII@Z 000000014002f430 f i libucrtd:cfout.obj
 0001:0002e490       ?bit_scan_reverse@__crt_strtox@@YAII@Z 000000014002f490 f i libucrtd:cfout.obj
 0001:0002e4d0       ?count_sequential_high_zeroes@__crt_strtox@@YAII@Z 000000014002f4d0 f i libucrtd:cfout.obj
 0001:0002e510       ?divide@__crt_strtox@@YA_KAEAUbig_integer@1@AEBU21@@Z 000000014002f510 f i libucrtd:cfout.obj
 0001:0002eee0       ?is_zero@__crt_strtox@@YA_NAEBUbig_integer@1@@Z 000000014002fee0 f i libucrtd:cfout.obj
 0001:0002ef10       ?make_big_integer@__crt_strtox@@YA?AUbig_integer@1@_K@Z 000000014002ff10 f i libucrtd:cfout.obj
 0001:0002efe0       ?make_big_integer_power_of_two@__crt_strtox@@YA?AUbig_integer@1@I@Z 000000014002ffe0 f i libucrtd:cfout.obj
 0001:0002f0b0       ?multiply@__crt_strtox@@YA_NAEAUbig_integer@1@AEBU21@@Z 00000001400300b0 f i libucrtd:cfout.obj
 0001:0002f430       ?multiply@__crt_strtox@@YA_NAEAUbig_integer@1@I@Z 0000000140030430 f i libucrtd:cfout.obj
 0001:0002f550       ?multiply_64_32@__crt_strtox@@YA_K_KI@Z 0000000140030550 f i libucrtd:cfout.obj
 0001:0002f570       ?multiply_by_power_of_ten@__crt_strtox@@YA_NAEAUbig_integer@1@I@Z 0000000140030570 f i libucrtd:cfout.obj
 0001:0002f720       ?multiply_core@__crt_strtox@@YAIQEAIII@Z 0000000140030720 f i libucrtd:cfout.obj
 0001:0002f7a0       ?shift_left@__crt_strtox@@YA_NAEAUbig_integer@1@I@Z 00000001400307a0 f i libucrtd:cfout.obj
 0001:0002fa80       __acrt_fltout              0000000140030a80 f   libucrtd:cfout.obj
 0001:0002fe30       fegetround                 0000000140030e30 f   libucrtd:fegetround.obj
 0001:0002fe50       ?is_in_use@__crt_stdio_stream@@QEBA_NXZ 0000000140030e50 f i libucrtd:closeall.obj
 0001:0002fe90       _fcloseall                 0000000140030e90 f   libucrtd:closeall.obj
 0001:0002ffa0       ?has_crt_buffer@__crt_stdio_stream@@QEBA_NXZ 0000000140030fa0 f i libucrtd:_freebuf.obj
 0001:0002ffc0       __acrt_stdio_free_buffer_nolock 0000000140030fc0 f   libucrtd:_freebuf.obj
 0001:00030680       _mbstowcs_s_l              0000000140031680 f   libucrtd:mbstowcs.obj
 0001:00030c50       mbstowcs_s                 0000000140031c50 f   libucrtd:mbstowcs.obj
 0001:000315e0       _wcstombs_s_l              00000001400325e0 f   libucrtd:wcstombs.obj
 0001:00031b20       wcstombs_s                 0000000140032b20 f   libucrtd:wcstombs.obj
 0001:000321e0       strcat_s                   00000001400331e0 f   libucrtd:strcat_s.obj
 0001:00032210       __acrt_GetStringTypeW      0000000140033210 f   libucrtd:getstringtypew.obj
 0001:00032250       __strncnt                  0000000140033250 f   libucrtd:strncnt.obj
 0001:00032460       _commit                    0000000140033460 f   libucrtd:commit.obj
 0001:00034040       _utf8_no_of_trailbytes     0000000140035040 f i libucrtd:write.obj
 0001:00034060       _write                     0000000140035060 f   libucrtd:write.obj
 0001:00034300       _write_nolock              0000000140035300 f   libucrtd:write.obj
 0001:000348d0       ?__mbrtoc32_utf8@__crt_mbstring@@YA_KPEA_UPEBD_KPEAU_Mbstatet@@@Z 00000001400358d0 f   libucrtd:mbrtoc32.obj
 0001:00034c90       log10                      0000000140035c90 f   libucrtd:log10.obj
 0001:00035240       ceil                       0000000140036240 f   libucrtd:ceil.obj
 0001:00035410       _controlfp_s               0000000140036410 f   libucrtd:contrlfp.obj
 0001:00035540       fegetenv                   0000000140036540 f   libucrtd:fegetenv.obj
 0001:00035570       fesetenv                   0000000140036570 f   libucrtd:fesetenv.obj
 0001:000355f0       feholdexcept               00000001400365f0 f   libucrtd:feholdexcept.obj
 0001:00035660       ??$__acrt_fenv_shift_bits@W4__acrt_fenv_abstract_control@@@@YA?AW4__acrt_fenv_abstract_control@@W40@0I@Z 0000000140036660 f i libucrtd:_fenvutils.obj
 0001:00035660       ??$__acrt_fenv_shift_bits@W4__acrt_fenv_abstract_status@@@@YA?AW4__acrt_fenv_abstract_status@@W40@0I@Z 0000000140036660 f i libucrtd:_fenvutils.obj
 0001:00035690       ??$__acrt_fenv_translate_bit@W4__acrt_fenv_abstract_control@@W4__acrt_fenv_machine_sse_control@@@@YA?AW4__acrt_fenv_abstract_control@@W4__acrt_fenv_machine_sse_control@@0W40@1@Z 0000000140036690 f i libucrtd:_fenvutils.obj
 0001:000356f0       ??$__acrt_fenv_translate_bit@W4__acrt_fenv_machine_sse_status@@W4__acrt_fenv_abstract_status@@@@YA?AW4__acrt_fenv_machine_sse_status@@W4__acrt_fenv_abstract_status@@0W40@1@Z 00000001400366f0 f i libucrtd:_fenvutils.obj
 0001:000356f0       ??$__acrt_fenv_translate_bit@W4__acrt_fenv_abstract_status@@W4__acrt_fenv_machine_sse_status@@@@YA?AW4__acrt_fenv_abstract_status@@W4__acrt_fenv_machine_sse_status@@0W40@1@Z 00000001400366f0 f i libucrtd:_fenvutils.obj
 0001:00035740       ??$__acrt_fenv_translate_bit@W4__acrt_fenv_machine_sse_control@@W4__acrt_fenv_abstract_control@@@@YA?AW4__acrt_fenv_machine_sse_control@@W4__acrt_fenv_abstract_control@@0W40@1@Z 0000000140036740 f i libucrtd:_fenvutils.obj
 0001:000357a0       ??$__acrt_fenv_unshift_bits@W4__acrt_fenv_abstract_control@@@@YA?AW4__acrt_fenv_abstract_control@@W40@0I@Z 00000001400367a0 f i libucrtd:_fenvutils.obj
 0001:000357a0       ??$__acrt_fenv_unshift_bits@W4__acrt_fenv_abstract_status@@@@YA?AW4__acrt_fenv_abstract_status@@W40@0I@Z 00000001400367a0 f i libucrtd:_fenvutils.obj
 0001:00035c90       ??I@YA?AW4__acrt_fenv_machine_sse_status@@W40@0@Z 0000000140036c90 f i libucrtd:_fenvutils.obj
 0001:00035c90       ??I@YA?AW4__acrt_fenv_abstract_control@@W40@0@Z 0000000140036c90 f i libucrtd:_fenvutils.obj
 0001:00035c90       ??I@YA?AW4__acrt_fenv_abstract_status@@W40@0@Z 0000000140036c90 f i libucrtd:_fenvutils.obj
 0001:00035cb0       ??I@YA?AW4__acrt_fenv_machine_sse_control@@W40@0@Z 0000000140036cb0 f i libucrtd:_fenvutils.obj
 0001:00035cd0       ??U@YA?AW4__acrt_fenv_abstract_status@@W40@0@Z 0000000140036cd0 f i libucrtd:_fenvutils.obj
 0001:00035cd0       ??U@YA?AW4__acrt_fenv_abstract_control@@W40@0@Z 0000000140036cd0 f i libucrtd:_fenvutils.obj
 0001:00035cf0       ??U@YA?AW4__acrt_fenv_machine_sse_control@@W40@0@Z 0000000140036cf0 f i libucrtd:_fenvutils.obj
 0001:00035d10       ??_5@YAAEAW4__acrt_fenv_machine_sse_status@@AEAW40@W40@@Z 0000000140036d10 f i libucrtd:_fenvutils.obj
 0001:00035d10       ??_5@YAAEAW4__acrt_fenv_abstract_control@@AEAW40@W40@@Z 0000000140036d10 f i libucrtd:_fenvutils.obj
 0001:00035d10       ??_5@YAAEAW4__acrt_fenv_abstract_status@@AEAW40@W40@@Z 0000000140036d10 f i libucrtd:_fenvutils.obj
 0001:00035d40       ??_5@YAAEAW4__acrt_fenv_machine_sse_control@@AEAW40@W40@@Z 0000000140036d40 f i libucrtd:_fenvutils.obj
 0001:00035d70       ?__acrt_fenv_shift_abstract_sse_control@@YA?AW4__acrt_fenv_abstract_control@@W41@@Z 0000000140036d70 f i libucrtd:_fenvutils.obj
 0001:00035dc0       ?__acrt_fenv_shift_abstract_sse_status@@YA?AW4__acrt_fenv_abstract_status@@W41@@Z 0000000140036dc0 f i libucrtd:_fenvutils.obj
 0001:00035df0       ?__acrt_fenv_unshift_abstract_sse_control@@YA?AW4__acrt_fenv_abstract_control@@W41@@Z 0000000140036df0 f i libucrtd:_fenvutils.obj
 0001:00035e40       ?__acrt_fenv_unshift_abstract_sse_status@@YA?AW4__acrt_fenv_abstract_status@@W41@@Z 0000000140036e40 f i libucrtd:_fenvutils.obj
 0001:00036110       __acrt_fenv_get_common_round_control 0000000140037110 f   libucrtd:_fenvutils.obj
 0001:00036130       __acrt_fenv_get_control    0000000140037130 f   libucrtd:_fenvutils.obj
 0001:00036160       __acrt_fenv_get_status     0000000140037160 f   libucrtd:_fenvutils.obj
 0001:00036190       __acrt_fenv_set_control    0000000140037190 f   libucrtd:_fenvutils.obj
 0001:000361b0       __acrt_fenv_set_status     00000001400371b0 f   libucrtd:_fenvutils.obj
 0001:00036340       _lseeki64_nolock           0000000140037340 f   libucrtd:lseek.obj
 0001:00036370       _fclose_nolock             0000000140037370 f   libucrtd:fclose.obj
 0001:00036500       fclose                     0000000140037500 f   libucrtd:fclose.obj
 0001:00036640       ?__wcsrtombs_utf8@__crt_mbstring@@YA_KPEADPEAPEB_W_KPEAU_Mbstatet@@@Z 0000000140037640 f   libucrtd:wcrtomb.obj
 0001:000368a8       _putwch_nolock             00000001400378a8 f   libucrtd:putwch.obj
 0001:000368f0       __acrt_initialize_fma3     00000001400378f0 f   libucrtd:fma3_available.obj
 0001:000369a0       _log10_special             00000001400379a0 f   libucrtd:log_special.obj
 0001:00036ce0       _handle_error              0000000140037ce0 f   libucrtd:libm_error.obj
 0001:00036e70       _handle_nan                0000000140037e70 f   libucrtd:libm_error.obj
 0001:000370b0       _clearfp                   00000001400380b0 f   libucrtd:ieee.obj
 0001:000370d0       _control87                 00000001400380d0 f   libucrtd:ieee.obj
 0001:00037590       _close                     0000000140038590 f   libucrtd:close.obj
 0001:00037780       _close_nolock              0000000140038780 f   libucrtd:close.obj
 0001:000377f0       ?__acrt_stdio_free_stream@@YAXV__crt_stdio_stream@@@Z 00000001400387f0 f   libucrtd:stream.obj
 0001:00037890       ?deallocate@__crt_stdio_stream@@QEAAXXZ 0000000140038890 f i libucrtd:stream.obj
 0001:000378b0       ?__c16rtomb_utf8@__crt_mbstring@@YA_KPEAD_SPEAU_Mbstatet@@@Z 00000001400388b0 f   libucrtd:c16rtomb.obj
 0001:00037ac4       __dcrt_lowio_ensure_console_output_initialized 0000000140038ac4 f   libucrtd:initcon.obj
 0001:00037b18       __dcrt_terminate_console_output 0000000140038b18 f   libucrtd:initcon.obj
 0001:00037b34       __dcrt_write_console       0000000140038b34 f   libucrtd:initcon.obj
 0001:00037c00       _raise_exc                 0000000140038c00 f   libucrtd:fpexcept.obj
 0001:00037c60       _raise_exc_ex              0000000140038c60 f   libucrtd:fpexcept.obj
 0001:000382e0       _set_errno_from_matherr    00000001400392e0 f   libucrtd:fpexcept.obj
 0001:00038330       _clrfp                     0000000140039330 f   libucrtd:fpctrl.obj
 0001:00038360       _ctrlfp                    0000000140039360 f   libucrtd:fpctrl.obj
 0001:00038410       _set_statfp                0000000140039410 f   libucrtd:fpctrl.obj
 0001:00038450       _statfp                    0000000140039450 f   libucrtd:fpctrl.obj
 0001:00038490       _get_fpsr                  0000000140039490 f   libucrtd:fpsr.obj
 0001:000384a0       _set_fpsr                  00000001400394a0 f   libucrtd:fpsr.obj
 0001:000384aa       _fclrf                     00000001400394aa f   libucrtd:fpsr.obj
 0001:000384be       _frnd                      00000001400394be f   libucrtd:fpsr.obj
 0001:000384e0       _FindPESection             00000001400394e0 f   LIBCMTD:pesect.obj
 0001:00038590       _IsNonwritableInCurrentImage 0000000140039590 f   LIBCMTD:pesect.obj
 0001:00038620       _ValidateImageBase         0000000140039620 f   LIBCMTD:pesect.obj
 0001:000386a0       ??1type_info@@UEAA@XZ      00000001400396a0 f   LIBCMTD:std_type_info_static.obj
 0001:000386c0       ??_Gtype_info@@UEAAPEAXI@Z 00000001400396c0 f i LIBCMTD:std_type_info_static.obj
 0001:000386c0       ??_Etype_info@@UEAAPEAXI@Z 00000001400396c0 f i LIBCMTD:std_type_info_static.obj
 0001:00038700       ??3@YAXPEAX_K@Z            0000000140039700 f   LIBCMTD:delete_scalar_size.obj
 0001:00038720       __GSHandlerCheck_SEH       0000000140039720 f   LIBCMTD:gshandlerseh.obj
 0001:000387f0       __chkstk                   00000001400397f0 f   LIBCMTD:chkstk.obj
 0001:000387f0       _alloca_probe              00000001400397f0 f   LIBCMTD:chkstk.obj
 0001:00038840       __GSHandlerCheck_EH        0000000140039840 f   LIBCMTD:gshandlereh.obj
 0001:000388f0       ??3@YAXPEAX@Z              00000001400398f0 f   LIBCMTD:delete_scalar.obj
 0001:00038920       memcmp                     0000000140039920 f   libvcruntimed:memcmp.obj
 0001:000389f0       strrchr                    00000001400399f0 f   libvcruntimed:strrchr.obj
 0001:00038e20       _guard_dispatch_icall_nop  0000000140039e20 f   LIBCMTD:guard_dispatch.obj
 0001:00038e40       _guard_xfg_dispatch_icall_nop 0000000140039e40 f   LIBCMTD:guard_xfg_dispatch.obj
 0002:00000000       __imp_StretchDIBits        000000014003b000     gdi32:GDI32.dll
 0002:00000008       \177GDI32_NULL_THUNK_DATA  000000014003b008     gdi32:GDI32.dll
 0002:00000010       __imp_GetConsoleMode       000000014003b010     kernel32:KERNEL32.dll
 0002:00000018       __imp_GetConsoleOutputCP   000000014003b018     kernel32:KERNEL32.dll
 0002:00000020       __imp_FlushFileBuffers     000000014003b020     kernel32:KERNEL32.dll
 0002:00000028       __imp_SetFilePointerEx     000000014003b028     kernel32:KERNEL32.dll
 0002:00000030       __imp_WriteConsoleW        000000014003b030     kernel32:KERNEL32.dll
 0002:00000038       __imp_HeapQueryInformation 000000014003b038     kernel32:KERNEL32.dll
 0002:00000040       __imp_HeapReAlloc          000000014003b040     kernel32:KERNEL32.dll
 0002:00000048       __imp_CreateFileW          000000014003b048     kernel32:KERNEL32.dll
 0002:00000050       __imp_GetProcessHeap       000000014003b050     kernel32:KERNEL32.dll
 0002:00000058       __imp_LCMapStringW         000000014003b058     kernel32:KERNEL32.dll
 0002:00000060       __imp_HeapFree             000000014003b060     kernel32:KERNEL32.dll
 0002:00000068       __imp_GetLastError         000000014003b068     kernel32:KERNEL32.dll
 0002:00000070       __imp_GetStringTypeW       000000014003b070     kernel32:KERNEL32.dll
 0002:00000078       __imp_CompareFileTime      000000014003b078     kernel32:KERNEL32.dll
 0002:00000080       __imp_CreateFileA          000000014003b080     kernel32:KERNEL32.dll
 0002:00000088       __imp_FindClose            000000014003b088     kernel32:KERNEL32.dll
 0002:00000090       __imp_FindFirstFileA       000000014003b090     kernel32:KERNEL32.dll
 0002:00000098       __imp_GetFileSizeEx        000000014003b098     kernel32:KERNEL32.dll
 0002:000000a0       __imp_ReadFile             000000014003b0a0     kernel32:KERNEL32.dll
 0002:000000a8       __imp_WriteFile            000000014003b0a8     kernel32:KERNEL32.dll
 0002:000000b0       __imp_OutputDebugStringA   000000014003b0b0     kernel32:KERNEL32.dll
 0002:000000b8       __imp_CloseHandle          000000014003b0b8     kernel32:KERNEL32.dll
 0002:000000c0       __imp_Sleep                000000014003b0c0     kernel32:KERNEL32.dll
 0002:000000c8       __imp_VirtualAlloc         000000014003b0c8     kernel32:KERNEL32.dll
 0002:000000d0       __imp_VirtualFree          000000014003b0d0     kernel32:KERNEL32.dll
 0002:000000d8       __imp_FreeLibrary          000000014003b0d8     kernel32:KERNEL32.dll
 0002:000000e0       __imp_GetModuleHandleA     000000014003b0e0     kernel32:KERNEL32.dll
 0002:000000e8       __imp_GetProcAddress       000000014003b0e8     kernel32:KERNEL32.dll
 0002:000000f0       __imp_LoadLibraryA         000000014003b0f0     kernel32:KERNEL32.dll
 0002:000000f8       __imp_CopyFileA            000000014003b0f8     kernel32:KERNEL32.dll
 0002:00000100       __imp_QueryPerformanceCounter 000000014003b100     kernel32:KERNEL32.dll
 0002:00000108       __imp_GetCurrentProcessId  000000014003b108     kernel32:KERNEL32.dll
 0002:00000110       __imp_GetCurrentThreadId   000000014003b110     kernel32:KERNEL32.dll
 0002:00000118       __imp_GetSystemTimeAsFileTime 000000014003b118     kernel32:KERNEL32.dll
 0002:00000120       __imp_InitializeSListHead  000000014003b120     kernel32:KERNEL32.dll
 0002:00000128       __imp_RtlCaptureContext    000000014003b128     kernel32:KERNEL32.dll
 0002:00000130       __imp_RtlLookupFunctionEntry 000000014003b130     kernel32:KERNEL32.dll
 0002:00000138       __imp_RtlVirtualUnwind     000000014003b138     kernel32:KERNEL32.dll
 0002:00000140       __imp_IsDebuggerPresent    000000014003b140     kernel32:KERNEL32.dll
 0002:00000148       __imp_UnhandledExceptionFilter 000000014003b148     kernel32:KERNEL32.dll
 0002:00000150       __imp_SetUnhandledExceptionFilter 000000014003b150     kernel32:KERNEL32.dll
 0002:00000158       __imp_GetStartupInfoW      000000014003b158     kernel32:KERNEL32.dll
 0002:00000160       __imp_IsProcessorFeaturePresent 000000014003b160     kernel32:KERNEL32.dll
 0002:00000168       __imp_GetModuleHandleW     000000014003b168     kernel32:KERNEL32.dll
 0002:00000170       __imp_GetCurrentProcess    000000014003b170     kernel32:KERNEL32.dll
 0002:00000178       __imp_TerminateProcess     000000014003b178     kernel32:KERNEL32.dll
 0002:00000180       __imp_GetFileType          000000014003b180     kernel32:KERNEL32.dll
 0002:00000188       __imp_RtlUnwindEx          000000014003b188     kernel32:KERNEL32.dll
 0002:00000190       __imp_SetLastError         000000014003b190     kernel32:KERNEL32.dll
 0002:00000198       __imp_EnterCriticalSection 000000014003b198     kernel32:KERNEL32.dll
 0002:000001a0       __imp_LeaveCriticalSection 000000014003b1a0     kernel32:KERNEL32.dll
 0002:000001a8       __imp_DeleteCriticalSection 000000014003b1a8     kernel32:KERNEL32.dll
 0002:000001b0       __imp_InitializeCriticalSectionAndSpinCount 000000014003b1b0     kernel32:KERNEL32.dll
 0002:000001b8       __imp_TlsAlloc             000000014003b1b8     kernel32:KERNEL32.dll
 0002:000001c0       __imp_TlsGetValue          000000014003b1c0     kernel32:KERNEL32.dll
 0002:000001c8       __imp_TlsSetValue          000000014003b1c8     kernel32:KERNEL32.dll
 0002:000001d0       __imp_TlsFree              000000014003b1d0     kernel32:KERNEL32.dll
 0002:000001d8       __imp_LoadLibraryExW       000000014003b1d8     kernel32:KERNEL32.dll
 0002:000001e0       __imp_EncodePointer        000000014003b1e0     kernel32:KERNEL32.dll
 0002:000001e8       __imp_RaiseException       000000014003b1e8     kernel32:KERNEL32.dll
 0002:000001f0       __imp_RtlPcToFileHeader    000000014003b1f0     kernel32:KERNEL32.dll
 0002:000001f8       __imp_GetStdHandle         000000014003b1f8     kernel32:KERNEL32.dll
 0002:00000200       __imp_GetModuleFileNameW   000000014003b200     kernel32:KERNEL32.dll
 0002:00000208       __imp_ExitProcess          000000014003b208     kernel32:KERNEL32.dll
 0002:00000210       __imp_GetModuleHandleExW   000000014003b210     kernel32:KERNEL32.dll
 0002:00000218       __imp_HeapAlloc            000000014003b218     kernel32:KERNEL32.dll
 0002:00000220       __imp_HeapSize             000000014003b220     kernel32:KERNEL32.dll
 0002:00000228       __imp_HeapValidate         000000014003b228     kernel32:KERNEL32.dll
 0002:00000230       __imp_GetSystemInfo        000000014003b230     kernel32:KERNEL32.dll
 0002:00000238       __imp_OutputDebugStringW   000000014003b238     kernel32:KERNEL32.dll
 0002:00000240       __imp_FindFirstFileExW     000000014003b240     kernel32:KERNEL32.dll
 0002:00000248       __imp_FindNextFileW        000000014003b248     kernel32:KERNEL32.dll
 0002:00000250       __imp_IsValidCodePage      000000014003b250     kernel32:KERNEL32.dll
 0002:00000258       __imp_GetACP               000000014003b258     kernel32:KERNEL32.dll
 0002:00000260       __imp_GetOEMCP             000000014003b260     kernel32:KERNEL32.dll
 0002:00000268       __imp_GetCPInfo            000000014003b268     kernel32:KERNEL32.dll
 0002:00000270       __imp_GetCommandLineA      000000014003b270     kernel32:KERNEL32.dll
 0002:00000278       __imp_GetCommandLineW      000000014003b278     kernel32:KERNEL32.dll
 0002:00000280       __imp_MultiByteToWideChar  000000014003b280     kernel32:KERNEL32.dll
 0002:00000288       __imp_WideCharToMultiByte  000000014003b288     kernel32:KERNEL32.dll
 0002:00000290       __imp_GetEnvironmentStringsW 000000014003b290     kernel32:KERNEL32.dll
 0002:00000298       __imp_FreeEnvironmentStringsW 000000014003b298     kernel32:KERNEL32.dll
 0002:000002a0       __imp_SetStdHandle         000000014003b2a0     kernel32:KERNEL32.dll
 0002:000002a8       \177KERNEL32_NULL_THUNK_DATA 000000014003b2a8     kernel32:KERNEL32.dll
 0002:000002b0       __imp_DispatchMessageA     000000014003b2b0     user32:USER32.dll
 0002:000002b8       __imp_PeekMessageA         000000014003b2b8     user32:USER32.dll
 0002:000002c0       __imp_DefWindowProcA       000000014003b2c0     user32:USER32.dll
 0002:000002c8       __imp_SetWindowLongPtrA    000000014003b2c8     user32:USER32.dll
 0002:000002d0       __imp_GetWindowLongPtrA    000000014003b2d0     user32:USER32.dll
 0002:000002d8       __imp_AdjustWindowRect     000000014003b2d8     user32:USER32.dll
 0002:000002e0       __imp_EndPaint             000000014003b2e0     user32:USER32.dll
 0002:000002e8       __imp_BeginPaint           000000014003b2e8     user32:USER32.dll
 0002:000002f0       __imp_ReleaseDC            000000014003b2f0     user32:USER32.dll
 0002:000002f8       __imp_GetDC                000000014003b2f8     user32:USER32.dll
 0002:00000300       __imp_ReleaseCapture       000000014003b300     user32:USER32.dll
 0002:00000308       __imp_SetCapture           000000014003b308     user32:USER32.dll
 0002:00000310       __imp_ShowWindow           000000014003b310     user32:USER32.dll
 0002:00000318       __imp_DestroyWindow        000000014003b318     user32:USER32.dll
 0002:00000320       __imp_CreateWindowExA      000000014003b320     user32:USER32.dll
 0002:00000328       __imp_UnregisterClassA     000000014003b328     user32:USER32.dll
 0002:00000330       __imp_RegisterClassA       000000014003b330     user32:USER32.dll
 0002:00000338       __imp_PostQuitMessage      000000014003b338     user32:USER32.dll
 0002:00000340       __imp_TranslateMessage     000000014003b340     user32:USER32.dll
 0002:00000348       \177USER32_NULL_THUNK_DATA 000000014003b348     user32:USER32.dll
 0002:00000350       __imp_vkEnumerateInstanceExtensionProperties 000000014003b350     vulkan-1:vulkan-1.dll
 0002:00000358       \177vulkan-1_NULL_THUNK_DATA 000000014003b358     vulkan-1:vulkan-1.dll
 0002:00000360       __guard_check_icall_fptr   000000014003b360     LIBCMTD:guard_support.obj
 0002:00000368       __guard_xfg_check_icall_fptr 000000014003b368     LIBCMTD:guard_support.obj
 0002:00000370       __guard_dispatch_icall_fptr 000000014003b370     LIBCMTD:guard_support.obj
 0002:00000378       __guard_xfg_dispatch_icall_fptr 000000014003b378     LIBCMTD:guard_support.obj
 0002:00000380       __guard_xfg_table_dispatch_icall_fptr 000000014003b380     LIBCMTD:guard_support.obj
 0002:00000388       __xc_a                     000000014003b388     LIBCMTD:initializers.obj
 0002:00000398       __xc_z                     000000014003b398     LIBCMTD:initializers.obj
 0002:000003a0       __xi_a                     000000014003b3a0     LIBCMTD:initializers.obj
 0002:000003b8       __acrt_multibyte_initializer 000000014003b3b8     libucrtd:multibyte_initializer.obj
 0002:000003c0       __acrt_fmode_initializer   000000014003b3c0     libucrtd:fmode_initializer.obj
 0002:000003c8       __acrt_stdio_initializer   000000014003b3c8     libucrtd:stdio_initializer.obj
 0002:000003d0       __acrt_tran_fma3_initializer 000000014003b3d0     libucrtd:fma3_initializer.obj
 0002:000003d8       __xi_z                     000000014003b3d8     LIBCMTD:initializers.obj
 0002:000003e0       __xp_a                     000000014003b3e0     LIBCMTD:initializers.obj
 0002:000003e8       __acrt_locale_terminator   000000014003b3e8     libucrtd:locale_initializer.obj
 0002:000003f0       __dcrt_console_output_terminator 000000014003b3f0     libucrtd:console_output_initializer.obj
 0002:000003f8       __acrt_stdio_terminator    000000014003b3f8     libucrtd:stdio_initializer.obj
 0002:00000400       __xp_z                     000000014003b400     LIBCMTD:initializers.obj
 0002:00000408       __xt_a                     000000014003b408     LIBCMTD:initializers.obj
 0002:00000410       __xt_z                     000000014003b410     LIBCMTD:initializers.obj
 0002:000004f0       ??_C@_0BC@HOFDOMGO@HY3D_WINDOW_CLASS@ 000000014003b4f0     win32_platform.obj
 0002:00000518       _pDestructExceptionObject  000000014003b518     libvcruntimed:ehhelpers.obj
 0002:00000520       ??_C@_0EO@IMACLHHO@d?3?2agent?2_work?24?2s?2src?2vctools?2@ 000000014003b520     libvcruntimed:per_thread_data.obj
 0002:00000c70       ??_C@_08EHJDFFNH@__based?$CI@ 000000014003bc70     libvcruntimed:undname.obj
 0002:00000c80       ??_C@_07KOLFKCDI@__cdecl@  000000014003bc80     libvcruntimed:undname.obj
 0002:00000c88       ??_C@_08GHMPAG@__pascal@   000000014003bc88     libvcruntimed:undname.obj
 0002:00000c98       ??_C@_09IFJBGAPI@__stdcall@ 000000014003bc98     libvcruntimed:undname.obj
 0002:00000ca8       ??_C@_0L@NPHFGOKO@__thiscall@ 000000014003bca8     libvcruntimed:undname.obj
 0002:00000cb8       ??_C@_0L@JMKHOMEK@__fastcall@ 000000014003bcb8     libvcruntimed:undname.obj
 0002:00000cc8       ??_C@_0N@BCKKPABJ@__vectorcall@ 000000014003bcc8     libvcruntimed:undname.obj
 0002:00000cd8       ??_C@_09HIJEGCPM@__clrcall@ 000000014003bcd8     libvcruntimed:undname.obj
 0002:00000ce4       ??_C@_06GHPCKEAG@__eabi@   000000014003bce4     libvcruntimed:undname.obj
 0002:00000cf0       ??_C@_09IOPIDJLG@__swift_1@ 000000014003bcf0     libvcruntimed:undname.obj
 0002:00000d00       ??_C@_09KFNFGKHF@__swift_2@ 000000014003bd00     libvcruntimed:undname.obj
 0002:00000d10       ??_C@_07JOMMBBKO@__ptr64@  000000014003bd10     libvcruntimed:undname.obj
 0002:00000d18       ??_C@_0L@PILCLIHE@__restrict@ 000000014003bd18     libvcruntimed:undname.obj
 0002:00000d28       ??_C@_0M@GFIIJFMG@__unaligned@ 000000014003bd28     libvcruntimed:undname.obj
 0002:00000d38       ??_C@_09DHDLOLLB@restrict?$CI@ 000000014003bd38     libvcruntimed:undname.obj
 0002:00000d42       ??_C@_00CNPNBAHC@@         000000014003bd42     libvcruntimed:undname.obj
 0002:00000d44       ??_C@_04NIHEBCM@?5new@     000000014003bd44     libvcruntimed:undname.obj
 0002:00000d50       ??_C@_07FPCDHGMM@?5delete@ 000000014003bd50     libvcruntimed:undname.obj
 0002:00000d58       ??_C@_01NEMOKFLO@?$DN@     000000014003bd58     libvcruntimed:undname.obj
 0002:00000d5c       ??_C@_02GPIOPFAK@?$DO?$DO@ 000000014003bd5c     libvcruntimed:undname.obj
 0002:00000d60       ??_C@_02FODMEDOG@?$DM?$DM@ 000000014003bd60     libvcruntimed:undname.obj
 0002:00000d64       ??_C@_01DCLJPIOD@?$CB@     000000014003bd64     libvcruntimed:undname.obj
 0002:00000d68       ??_C@_02EGOFBIJA@?$DN?$DN@ 000000014003bd68     libvcruntimed:undname.obj
 0002:00000d6c       ??_C@_02FDNJECIE@?$CB?$DN@ 000000014003bd6c     libvcruntimed:undname.obj
 0002:00000d70       ??_C@_02GPECMEKF@?$FL?$FN@ 000000014003bd70     libvcruntimed:undname.obj
 0002:00000d78       ??_C@_08LHJFAFGD@operator@ 000000014003bd78     libvcruntimed:undname.obj
 0002:00000d84       ??_C@_02HBOOOICD@?9?$DO@   000000014003bd84     libvcruntimed:undname.obj
 0002:00000d88       ??_C@_01NBENCBCI@?$CK@     000000014003bd88     libvcruntimed:undname.obj
 0002:00000d8c       ??_C@_02ECNGHCIF@?$CL?$CL@ 000000014003bd8c     libvcruntimed:undname.obj
 0002:00000d90       ??_C@_02BAABKJLB@?9?9@     000000014003bd90     libvcruntimed:undname.obj
 0002:00000d94       ??_C@_01JOAMLHOP@?9@       000000014003bd94     libvcruntimed:undname.obj
 0002:00000d98       ??_C@_01MIFGBAGJ@?$CL@     000000014003bd98     libvcruntimed:undname.obj
 0002:00000d9c       ??_C@_01HNPIGOCE@?$CG@     000000014003bd9c     libvcruntimed:undname.obj
 0002:00000da0       ??_C@_03MNHNFDLC@?9?$DO?$CK@ 000000014003bda0     libvcruntimed:undname.obj
 0002:00000da4       ??_C@_01KMDKNFGN@?1@       000000014003bda4     libvcruntimed:undname.obj
 0002:00000da8       ??_C@_01FGNFDNOH@?$CF@     000000014003bda8     libvcruntimed:undname.obj
 0002:00000dac       ??_C@_01MNNFJEPP@?$DM@     000000014003bdac     libvcruntimed:undname.obj
 0002:00000db0       ??_C@_02EHCHHCKH@?$DM?$DN@ 000000014003bdb0     libvcruntimed:undname.obj
 0002:00000db4       ??_C@_01PPODPGHN@?$DO@     000000014003bdb4     libvcruntimed:undname.obj
 0002:00000db8       ??_C@_02EEKDKGMJ@?$DO?$DN@ 000000014003bdb8     libvcruntimed:undname.obj
 0002:00000dbc       ??_C@_01IHBHIGKO@?0@       000000014003bdbc     libvcruntimed:undname.obj
 0002:00000dc0       ??_C@_02HCKGKOFO@?$CI?$CJ@ 000000014003bdc0     libvcruntimed:undname.obj
 0002:00000dc4       ??_C@_01PJKLJHI@?$HO@      000000014003bdc4     libvcruntimed:undname.obj
 0002:00000dc8       ??_C@_01JKBOJNNK@?$FO@     000000014003bdc8     libvcruntimed:undname.obj
 0002:00000dcc       ??_C@_01DNKMNLPK@?$HM@     000000014003bdcc     libvcruntimed:undname.obj
 0002:00000dd0       ??_C@_02PPKAJPJL@?$CG?$CG@ 000000014003bdd0     libvcruntimed:undname.obj
 0002:00000dd4       ??_C@_02NONPIBCD@?$HM?$HM@ 000000014003bdd4     libvcruntimed:undname.obj
 0002:00000dd8       ??_C@_02FPIMKNGF@?$CK?$DN@ 000000014003bdd8     libvcruntimed:undname.obj
 0002:00000ddc       ??_C@_02FOEOMHFC@?$CL?$DN@ 000000014003bddc     libvcruntimed:undname.obj
 0002:00000de0       ??_C@_02FKMDLLOA@?9?$DN@   000000014003bde0     libvcruntimed:undname.obj
 0002:00000de4       ??_C@_02FJEHGPIO@?1?$DN@   000000014003bde4     libvcruntimed:undname.obj
 0002:00000de8       ??_C@_02FENAOKFI@?$CF?$DN@ 000000014003bde8     libvcruntimed:undname.obj
 0002:00000dec       ??_C@_03IKFCCPFF@?$DO?$DO?$DN@ 000000014003bdec     libvcruntimed:undname.obj
 0002:00000df0       ??_C@_03CDNPDDLA@?$DM?$DM?$DN@ 000000014003bdf0     libvcruntimed:undname.obj
 0002:00000df4       ??_C@_02FGJGFEAB@?$CG?$DN@ 000000014003bdf4     libvcruntimed:undname.obj
 0002:00000df8       ??_C@_02DHLNPPGH@?$HM?$DN@ 000000014003bdf8     libvcruntimed:undname.obj
 0002:00000dfc       ??_C@_02MHEGNOJ@?$FO?$DN@  000000014003bdfc     libvcruntimed:undname.obj
 0002:00000e00       ??_C@_09IFPLHPGF@?$GAvftable?8@ 000000014003be00     libvcruntimed:undname.obj
 0002:00000e10       ??_C@_09BLBHBJP@?$GAvbtable?8@ 000000014003be10     libvcruntimed:undname.obj
 0002:00000e20       ??_C@_07FEEIOKP@?$GAvcall?8@ 000000014003be20     libvcruntimed:undname.obj
 0002:00000e28       ??_C@_08LLFFHHDJ@?$GAtypeof?8@ 000000014003be28     libvcruntimed:undname.obj
 0002:00000e38       ??_C@_0BF@KDPPACIK@?$GAlocal?5static?5guard?8@ 000000014003be38     libvcruntimed:undname.obj
 0002:00000e50       ??_C@_08OBABFOLI@?$GAstring?8@ 000000014003be50     libvcruntimed:undname.obj
 0002:00000e60       ??_C@_0BD@JDLKDPAB@?$GAvbase?5destructor?8@ 000000014003be60     libvcruntimed:undname.obj
 0002:00000e78       ??_C@_0BN@DEGPLNFK@?$GAvector?5deleting?5destructor?8@ 000000014003be78     libvcruntimed:undname.obj
 0002:00000e98       ??_C@_0BO@OBMKPJIG@?$GAdefault?5constructor?5closure?8@ 000000014003be98     libvcruntimed:undname.obj
 0002:00000eb8       ??_C@_0BN@IMDCHIKM@?$GAscalar?5deleting?5destructor?8@ 000000014003beb8     libvcruntimed:undname.obj
 0002:00000ed8       ??_C@_0BO@PFGOCPJJ@?$GAvector?5constructor?5iterator?8@ 000000014003bed8     libvcruntimed:undname.obj
 0002:00000ef8       ??_C@_0BN@LFPFMEDL@?$GAvector?5destructor?5iterator?8@ 000000014003bef8     libvcruntimed:undname.obj
 0002:00000f18       ??_C@_0CE@IKBNEHA@?$GAvector?5vbase?5constructor?5itera@ 000000014003bf18     libvcruntimed:undname.obj
 0002:00000f40       ??_C@_0BL@NILFHHPC@?$GAvirtual?5displacement?5map?8@ 000000014003bf40     libvcruntimed:undname.obj
 0002:00000f60       ??_C@_0CB@JONCMFFK@?$GAeh?5vector?5constructor?5iterator@ 000000014003bf60     libvcruntimed:undname.obj
 0002:00000f88       ??_C@_0CA@GCEOPDGL@?$GAeh?5vector?5destructor?5iterator?8@ 000000014003bf88     libvcruntimed:undname.obj
 0002:00000fa8       ??_C@_0CH@OOJPLCPH@?$GAeh?5vector?5vbase?5constructor?5it@ 000000014003bfa8     libvcruntimed:undname.obj
 0002:00000fd0       ??_C@_0BL@LLKPOHJI@?$GAcopy?5constructor?5closure?8@ 000000014003bfd0     libvcruntimed:undname.obj
 0002:00000ff0       ??_C@_0BA@KBCDOMBN@?$GAudt?5returning?8@ 000000014003bff0     libvcruntimed:undname.obj
 0002:00001000       ??_C@_03KLGMFNMG@?$GAEH@   000000014003c000     libvcruntimed:undname.obj
 0002:00001004       ??_C@_05KHLCHHI@?$GARTTI@  000000014003c004     libvcruntimed:undname.obj
 0002:00001010       ??_C@_0BA@KKLDJDLB@?$GAlocal?5vftable?8@ 000000014003c010     libvcruntimed:undname.obj
 0002:00001020       ??_C@_0CE@IIHCMGGL@?$GAlocal?5vftable?5constructor?5clos@ 000000014003c020     libvcruntimed:undname.obj
 0002:00001044       ??_C@_06FHBGPFGH@?5new?$FL?$FN@ 000000014003c044     libvcruntimed:undname.obj
 0002:00001050       ??_C@_09LBNFPBCA@?5delete?$FL?$FN@ 000000014003c050     libvcruntimed:undname.obj
 0002:00001060       ??_C@_0P@HJKNJFNN@?$GAomni?5callsig?8@ 000000014003c060     libvcruntimed:undname.obj
 0002:00001070       ??_C@_0BL@CNOONJFP@?$GAplacement?5delete?5closure?8@ 000000014003c070     libvcruntimed:undname.obj
 0002:00001090       ??_C@_0BN@CKNJLHMB@?$GAplacement?5delete?$FL?$FN?5closure?8@ 000000014003c090     libvcruntimed:undname.obj
 0002:000010b0       ??_C@_0CG@CFDHKGGD@?$GAmanaged?5vector?5constructor?5ite@ 000000014003c0b0     libvcruntimed:undname.obj
 0002:000010d8       ??_C@_0CF@IMGKMJNO@?$GAmanaged?5vector?5destructor?5iter@ 000000014003c0d8     libvcruntimed:undname.obj
 0002:00001100       ??_C@_0CG@HLDDJMAG@?$GAeh?5vector?5copy?5constructor?5ite@ 000000014003c100     libvcruntimed:undname.obj
 0002:00001128       ??_C@_0CM@FCBBDIGB@?$GAeh?5vector?5vbase?5copy?5construct@ 000000014003c128     libvcruntimed:undname.obj
 0002:00001158       ??_C@_0BL@CLIPGLGB@?$GAdynamic?5initializer?5for?5?8@ 000000014003c158     libvcruntimed:undname.obj
 0002:00001178       ??_C@_0CB@PDBIFEP@?$GAdynamic?5atexit?5destructor?5for?5@ 000000014003c178     libvcruntimed:undname.obj
 0002:000011a0       ??_C@_0CD@CGAJBKEJ@?$GAvector?5copy?5constructor?5iterat@ 000000014003c1a0     libvcruntimed:undname.obj
 0002:000011c8       ??_C@_0CJ@GJELGAMM@?$GAvector?5vbase?5copy?5constructor?5@ 000000014003c1c8     libvcruntimed:undname.obj
 0002:000011f8       ??_C@_0CL@FGIJHLCE@?$GAmanaged?5vector?5copy?5constructo@ 000000014003c1f8     libvcruntimed:undname.obj
 0002:00001228       ??_C@_0BM@PMGGMLDN@?$GAlocal?5static?5thread?5guard?8@ 000000014003c228     libvcruntimed:undname.obj
 0002:00001248       ??_C@_0N@BDNMDMOL@operator?5?$CC?$CC?5@ 000000014003c248     libvcruntimed:undname.obj
 0002:00001258       ??_C@_0BC@GGEBGALA@operator?5co_await@ 000000014003c258     libvcruntimed:undname.obj
 0002:00001270       ??_C@_0M@GAAIMMOH@operator?$DM?$DN?$DO@ 000000014003c270     libvcruntimed:undname.obj
 0002:00001280       ??_C@_0BC@DAFEJGAK@?5Type?5Descriptor?8@ 000000014003c280     libvcruntimed:undname.obj
 0002:00001298       ??_C@_0BM@LDKODKLH@?5Base?5Class?5Descriptor?5at?5?$CI@ 000000014003c298     libvcruntimed:undname.obj
 0002:000012b8       ??_C@_0BD@LGICGFMM@?5Base?5Class?5Array?8@ 000000014003c2b8     libvcruntimed:undname.obj
 0002:000012d0       ??_C@_0BN@MECKDCOJ@?5Class?5Hierarchy?5Descriptor?8@ 000000014003c2d0     libvcruntimed:undname.obj
 0002:000012f0       ??_C@_0BK@CFCOFLF@?5Complete?5Object?5Locator?8@ 000000014003c2f0     libvcruntimed:undname.obj
 0002:00001310       ??_C@_0BG@JNJLAMPM@?$GAanonymous?5namespace?8@ 000000014003c310     libvcruntimed:undname.obj
 0002:00001328       ??_C@_02DKCKIIND@?$CFs@    000000014003c328     libvcruntimed:undname.obj
 0002:00001348       ??_C@_1DM@KHCHBNEB@?$AAa?$AAp?$AAi?$AA?9?$AAm?$AAs?$AA?9?$AAw?$AAi?$AAn?$AA?9?$AAc?$AAo?$AAr?$AAe@ 000000014003c348     libvcruntimed:winapi_downlevel.obj
 0002:00001388       ??_C@_1DK@LPPGFMPP@?$AAa?$AAp?$AAi?$AA?9?$AAm?$AAs?$AA?9?$AAw?$AAi?$AAn?$AA?9?$AAc?$AAo?$AAr?$AAe@ 000000014003c388     libvcruntimed:winapi_downlevel.obj
 0002:000013c8       ??_C@_1BC@GDMECMAK@?$AAk?$AAe?$AAr?$AAn?$AAe?$AAl?$AA3?$AA2@ 000000014003c3c8     libvcruntimed:winapi_downlevel.obj
 0002:000013e0       ??_C@_17CNPHIMPH@?$AA?$CF?$AAl?$AAs@ 000000014003c3e0     libvcruntimed:winapi_downlevel.obj
 0002:000013e8       ??_C@_1BA@PFFKHIOG@?$AAa?$AAp?$AAi?$AA?9?$AAm?$AAs?$AA?9@ 000000014003c3e8     libvcruntimed:winapi_downlevel.obj
 0002:00001400       ??_C@_1EM@LBIFGLGH@?$AAc?$AAa?$AAc?$AAh?$AAe?$AAd?$AA_?$AAh?$AAa?$AAn?$AAd?$AAl?$AAe?$AA?5?$AA?$DN@ 000000014003c400     libvcruntimed:winapi_downlevel.obj
 0002:00001450       ??_C@_1JO@IKCMCKBI@?$AAd?$AA?3?$AA?2?$AAa?$AAg?$AAe?$AAn?$AAt?$AA?2?$AA_?$AAw?$AAo?$AAr?$AAk?$AA?2@ 000000014003c450     libvcruntimed:winapi_downlevel.obj
 0002:000014f0       ??_C@_1DI@MAHEDLDB@?$AAc?$AAa?$AAc?$AAh?$AAe?$AAd?$AA_?$AAh?$AAa?$AAn?$AAd?$AAl?$AAe?$AA?5?$AA?$DN@ 000000014003c4f0     libvcruntimed:winapi_downlevel.obj
 0002:00001530       ??_C@_1FC@IBNCGNKL@?$AAc?$AAa?$AAc?$AAh?$AAe?$AAd?$AA_?$AAf?$AAp?$AA?5?$AA?$DN?$AA?$DN?$AA?5?$AAi?$AAn@ 000000014003c530     libvcruntimed:winapi_downlevel.obj
 0002:00001588       ??_C@_1CI@GDJBAGLP@?$AAc?$AAa?$AAc?$AAh?$AAe?$AAd?$AA_?$AAf?$AAp?$AA?5?$AA?$DN?$AA?$DN?$AA?5?$AAn?$AAe@ 000000014003c588     libvcruntimed:winapi_downlevel.obj
 0002:000015b8       ??_C@_08KNHFBNJ@FlsAlloc@  000000014003c5b8     libvcruntimed:winapi_downlevel.obj
 0002:000015d0       ??_C@_07PEJMOBNF@FlsFree@  000000014003c5d0     libvcruntimed:winapi_downlevel.obj
 0002:000015e0       ??_C@_0M@GDNOONDI@FlsGetValue@ 000000014003c5e0     libvcruntimed:winapi_downlevel.obj
 0002:000015f8       ??_C@_0M@JCPCPOEF@FlsSetValue@ 000000014003c5f8     libvcruntimed:winapi_downlevel.obj
 0002:00001610       ??_C@_0BM@HCFOFFN@InitializeCriticalSectionEx@ 000000014003c610     libvcruntimed:winapi_downlevel.obj
 0002:000016d0       ??_7exception@std@@6B@     000000014003c6d0     libvcruntimed:frame.obj
 0002:000016e0       ??_C@_0BC@EOODALEL@Unknown?5exception@ 000000014003c6e0     libvcruntimed:frame.obj
 0002:00001700       ??_7bad_exception@std@@6B@ 000000014003c700     libvcruntimed:frame.obj
 0002:00001710       ??_C@_0O@DPKOEFFH@bad?5exception@ 000000014003c710     libvcruntimed:frame.obj
 0002:00001720       ??_C@_1FK@OACNEHHA@?$AAt?$AAo?$AA?9?$AA?$DO?$AA_?$AAW?$AAh?$AAa?$AAt?$AA?5?$AA?$DN?$AA?$DN?$AA?5?$AAn?$AAu@ 000000014003c720     libvcruntimed:std_exception.obj
 0002:00001780       ??_C@_1IM@CBBCJHKN@?$AAd?$AA?3?$AA?2?$AAa?$AAg?$AAe?$AAn?$AAt?$AA?2?$AA_?$AAw?$AAo?$AAr?$AAk?$AA?2@ 000000014003c780     libvcruntimed:std_exception.obj
 0002:00001810       __acrt_exception_action_table 000000014003c810     libucrtd:exception_filter.obj
 0002:000018d0       __acrt_signal_action_table_count 000000014003c8d0     libucrtd:exception_filter.obj
 0002:000018d8       __acrt_signal_action_first_fpe_index 000000014003c8d8     libucrtd:exception_filter.obj
 0002:000018e0       __acrt_signal_action_fpe_count 000000014003c8e0     libucrtd:exception_filter.obj
 0002:000018f0       ??_C@_1IC@DCNEKBE@?$AAm?$AAi?$AAn?$AAk?$AAe?$AAr?$AAn?$AAe?$AAl?$AA?2?$AAc?$AAr?$AAt?$AAs?$AA?2@ 000000014003c8f0     libucrtd:report_runtime_error.obj
 0002:00001978       ??_C@_1DI@BLFJHKKP@?$AA_?$AA_?$AAa?$AAc?$AAr?$AAt?$AA_?$AAr?$AAe?$AAp?$AAo?$AAr?$AAt?$AA_?$AAr@ 000000014003c978     libucrtd:report_runtime_error.obj
 0002:000019b0       ??_C@_1LE@MHPGJGKE@?$AAw?$AAc?$AAs?$AAc?$AAp?$AAy?$AA_?$AAs?$AA?$CI?$AAo?$AAu?$AAt?$AAm?$AAs?$AAg@ 000000014003c9b0     libucrtd:report_runtime_error.obj
 0002:00001a68       ??_C@_1DE@JNGNBFGO@?$AAR?$AAu?$AAn?$AAt?$AAi?$AAm?$AAe?$AA?5?$AAE?$AAr?$AAr?$AAo?$AAr?$AA?$CB?$AA?6@ 000000014003ca68     libucrtd:report_runtime_error.obj
 0002:00001aa0       ??_C@_1HK@FJJNAABO@?$AAw?$AAc?$AAs?$AAc?$AAp?$AAy?$AA_?$AAs?$AA?$CI?$AAp?$AAr?$AAo?$AAg?$AAn?$AAa@ 000000014003caa0     libucrtd:report_runtime_error.obj
 0002:00001b20       ??_C@_1CO@EAEJAADC@?$AA?$DM?$AAp?$AAr?$AAo?$AAg?$AAr?$AAa?$AAm?$AA?5?$AAn?$AAa?$AAm?$AAe?$AA?5?$AAu@ 000000014003cb20     libucrtd:report_runtime_error.obj
 0002:00001b50       ??_C@_1HI@FLHKGEBE@?$AAw?$AAc?$AAs?$AAn?$AAc?$AAp?$AAy?$AA_?$AAs?$AA?$CI?$AAp?$AAc?$AAh?$AA?0?$AA?5@ 000000014003cb50     libucrtd:report_runtime_error.obj
 0002:00001bc8       ??_C@_17LGKOMLJ@?$AA?4?$AA?4?$AA?4@ 000000014003cbc8     libucrtd:report_runtime_error.obj
 0002:00001bd0       ??_C@_1IG@MNNKBLBI@?$AAw?$AAc?$AAs?$AAc?$AAa?$AAt?$AA_?$AAs?$AA?$CI?$AAo?$AAu?$AAt?$AAm?$AAs?$AAg@ 000000014003cbd0     libucrtd:report_runtime_error.obj
 0002:00001c58       ??_C@_15IABLJNFO@?$AA?6?$AA?6@ 000000014003cc58     libucrtd:report_runtime_error.obj
 0002:00001c60       ??_C@_1IG@DFBBBDAN@?$AAw?$AAc?$AAs?$AAc?$AAa?$AAt?$AA_?$AAs?$AA?$CI?$AAo?$AAu?$AAt?$AAm?$AAs?$AAg@ 000000014003cc60     libucrtd:report_runtime_error.obj
 0002:00001cf0       ??_C@_1EK@MBDPDCGA@?$AAM?$AAi?$AAc?$AAr?$AAo?$AAs?$AAo?$AAf?$AAt?$AA?5?$AAV?$AAi?$AAs?$AAu?$AAa@ 000000014003ccf0     libucrtd:report_runtime_error.obj
 0002:00001d40       ??_C@_0DI@KNDIGDEP@minkernel?2crts?2ucrt?2src?2appcrt?2@ 000000014003cd40     libucrtd:argv_parsing.obj
 0002:00001d80       ??_C@_1JO@PGBIJBAM@?$AAm?$AAo?$AAd?$AAe?$AA?5?$AA?$DN?$AA?$DN?$AA?5?$AA_?$AAc?$AAr?$AAt?$AA_?$AAa?$AAr@ 000000014003cd80     libucrtd:argv_parsing.obj
 0002:00001e20       ??_C@_1HA@JMLCANEE@?$AAm?$AAi?$AAn?$AAk?$AAe?$AAr?$AAn?$AAe?$AAl?$AA?2?$AAc?$AAr?$AAt?$AAs?$AA?2@ 000000014003ce20     libucrtd:argv_parsing.obj
 0002:00001e90       ??_C@_1CM@LHOJELIC@?$AAc?$AAo?$AAm?$AAm?$AAo?$AAn?$AA_?$AAc?$AAo?$AAn?$AAf?$AAi?$AAg?$AAu?$AAr@ 000000014003ce90     libucrtd:argv_parsing.obj
 0002:00001ec0       ??_C@_0EG@LEHKHOEH@minkernel?2crts?2ucrt?2src?2desktop@ 000000014003cec0     libucrtd:environment_initialization.obj
 0002:00001f10       ??_C@_1IM@IMOFFPLG@?$AAm?$AAi?$AAn?$AAk?$AAe?$AAr?$AAn?$AAe?$AAl?$AA?2?$AAc?$AAr?$AAt?$AAs?$AA?2@ 000000014003cf10     libucrtd:environment_initialization.obj
 0002:00001fa0       ??_C@_1CG@MNNNBNAK@?$AAc?$AAr?$AAe?$AAa?$AAt?$AAe?$AA_?$AAe?$AAn?$AAv?$AAi?$AAr?$AAo?$AAn?$AAm@ 000000014003cfa0     libucrtd:environment_initialization.obj
 0002:00001fd0       ??_C@_1HI@OOPIFFGA@?$AAt?$AAr?$AAa?$AAi?$AAt?$AAs?$AA?3?$AA?3?$AAt?$AAc?$AAs?$AAc?$AAp?$AAy?$AA_@ 000000014003cfd0     libucrtd:environment_initialization.obj
 0002:00002048       ??_C@_1BI@BGOHAHKC@?$AAm?$AAs?$AAc?$AAo?$AAr?$AAe?$AAe?$AA?4?$AAd?$AAl?$AAl@ 000000014003d048     libucrtd:exit.obj
 0002:00002060       ??_C@_0P@MIGLKIOC@CorExitProcess@ 000000014003d060     libucrtd:exit.obj
 0002:00002070       ??_C@_1GC@CIJNGKLD@?$AAm?$AAi?$AAn?$AAk?$AAe?$AAr?$AAn?$AAe?$AAl?$AA?2?$AAc?$AAr?$AAt?$AAs?$AA?2@ 000000014003d070     libucrtd:setmode.obj
 0002:000020e0       ??_C@_1FO@LPCLHKGE@?$AA?$CI?$AAf?$AAh?$AA?5?$AA?$DO?$AA?$DN?$AA?5?$AA0?$AA?5?$AA?$CG?$AA?$CG?$AA?5?$AA?$CI?$AAu?$AAn@ 000000014003d0e0     libucrtd:setmode.obj
 0002:00002140       ??_C@_1CM@OKGMMMDH@?$AA?$CI?$AA_?$AAo?$AAs?$AAf?$AAi?$AAl?$AAe?$AA?$CI?$AAf?$AAh?$AA?$CJ?$AA?5?$AA?$CG?$AA?5@ 000000014003d140     libucrtd:setmode.obj
 0002:00002170       ??_C@_1JE@ECKHFIFP@?$AA?$CI?$AA?$CC?$AAI?$AAn?$AAv?$AAa?$AAl?$AAi?$AAd?$AA?5?$AAf?$AAi?$AAl?$AAe?$AA?5@ 000000014003d170     libucrtd:setmode.obj
 0002:00002210       ??_C@_1HC@GNDCDMJL@?$AAm?$AAo?$AAd?$AAe?$AA?5?$AA?$DN?$AA?$DN?$AA?5?$AA_?$AAO?$AA_?$AAT?$AAE?$AAX?$AAT@ 000000014003d210     libucrtd:setmode.obj
 0002:00002288       ??_C@_1BG@IEEHLOCL@?$AA_?$AAs?$AAe?$AAt?$AA_?$AAf?$AAm?$AAo?$AAd?$AAe@ 000000014003d288     libucrtd:setmode.obj
 0002:000022a0       ??_C@_1GA@LDEGDKD@?$AA?$CI?$AA?$CC?$AAI?$AAn?$AAv?$AAa?$AAl?$AAi?$AAd?$AA?5?$AAp?$AAa?$AAr?$AAa?$AAm@ 000000014003d2a0     libucrtd:wsetlocale.obj
 0002:00002300       ??_C@_1GK@DPKNLBIE@?$AAm?$AAi?$AAn?$AAk?$AAe?$AAr?$AAn?$AAe?$AAl?$AA?2?$AAc?$AAr?$AAt?$AAs?$AA?2@ 000000014003d300     libucrtd:wsetlocale.obj
 0002:00002370       ??_C@_1CI@FGIONOJM@?$AA_?$AAc?$AAo?$AAn?$AAf?$AAi?$AAg?$AAt?$AAh?$AAr?$AAe?$AAa?$AAd?$AAl?$AAo@ 000000014003d370     libucrtd:wsetlocale.obj
 0002:00002398       ??_C@_1CO@JKFLNGDK@?$AAm?$AAo?$AAd?$AAe?$AA?5?$AA?$DN?$AA?$DN?$AA?5?$AA0?$AA?5?$AA?$HM?$AA?$HM?$AA?5?$AAm?$AAo@ 000000014003d398     libucrtd:new_mode.obj
 0002:000023d0       ??_C@_1GC@PJMKBHEK@?$AAm?$AAi?$AAn?$AAk?$AAe?$AAr?$AAn?$AAe?$AAl?$AA?2?$AAc?$AAr?$AAt?$AAs?$AA?2@ 000000014003d3d0     libucrtd:new_mode.obj
 0002:00002438       ??_C@_1BM@PDPAKJNF@?$AA_?$AAs?$AAe?$AAt?$AA_?$AAn?$AAe?$AAw?$AA_?$AAm?$AAo?$AAd?$AAe@ 000000014003d438     libucrtd:new_mode.obj
 0002:00002480       ??_C@_0DC@NBHMIIKL@minkernel?2crts?2ucrt?2src?2appcrt?2@ 000000014003d480     libucrtd:onexit.obj
 0002:000025e8       ??_C@_04HJMOFLDF@Free@     000000014003d5e8     libucrtd:debug_heap.obj
 0002:000025f0       ??_C@_06EFAGIKOH@Normal@   000000014003d5f0     libucrtd:debug_heap.obj
 0002:000025f8       ??_C@_03OGPFLFLO@CRT@      000000014003d5f8     libucrtd:debug_heap.obj
 0002:000025fc       ??_C@_06KMEJCCGM@Ignore@   000000014003d5fc     libucrtd:debug_heap.obj
 0002:00002604       ??_C@_06PJIGMIJB@Client@   000000014003d604     libucrtd:debug_heap.obj
 0002:00002610       ??_C@_1CE@LJFEPPMP@?$AA_?$AAC?$AAr?$AAt?$AAC?$AAh?$AAe?$AAc?$AAk?$AAM?$AAe?$AAm?$AAo?$AAr?$AAy@ 000000014003d610     libucrtd:debug_heap.obj
 0002:00002640       ??_C@_1GG@OCLHPJPK@?$AAm?$AAi?$AAn?$AAk?$AAe?$AAr?$AAn?$AAe?$AAl?$AA?2?$AAc?$AAr?$AAt?$AAs?$AA?2@ 000000014003d640     libucrtd:debug_heap.obj
 0002:000026a8       ??_C@_0DF@BBEGIFEK@Client?5hook?5allocation?5failure?5@ 000000014003d6a8     libucrtd:debug_heap.obj
 0002:000026e0       ??_C@_0CB@CCLOLAHO@Client?5hook?5allocation?5failure?4@ 000000014003d6e0     libucrtd:debug_heap.obj
 0002:00002708       ??_C@_0DC@JEMAGEKG@Error?3?5memory?5allocation?3?5bad?5m@ 000000014003d708     libucrtd:debug_heap.obj
 0002:00002740       ??_C@_0DI@KKJPDPGM@Client?5hook?5re?9allocation?5failu@ 000000014003d740     libucrtd:debug_heap.obj
 0002:00002778       ??_C@_0CE@DOFMDOL@Client?5hook?5re?9allocation?5failu@ 000000014003d778     libucrtd:debug_heap.obj
 0002:000027a0       ??_C@_0FA@EFEIGJKG@Error?3?5memory?5allocation?3?5bad?5m@ 000000014003d7a0     libucrtd:debug_heap.obj
 0002:000027f0       ??_C@_0EM@LGFLMAGJ@The?5Block?5at?50x?$CFp?5was?5allocated@ 000000014003d7f0     libucrtd:debug_heap.obj
 0002:00002840       ??_C@_1DM@DEDLGNML@?$AA_?$AAC?$AAr?$AAt?$AAI?$AAs?$AAV?$AAa?$AAl?$AAi?$AAd?$AAH?$AAe?$AAa?$AAp@ 000000014003d840     libucrtd:debug_heap.obj
 0002:00002880       ??_C@_1PC@MCGKJLN@?$AAo?$AAl?$AAd?$AA_?$AAh?$AAe?$AAa?$AAd?$AA?9?$AA?$DO?$AA_?$AAl?$AAi?$AAn?$AAe@ 000000014003d880     libucrtd:debug_heap.obj
 0002:00002978       ??_C@_0DA@HFBKENN@Error?3?5possible?5heap?5corruption@ 000000014003d978     libucrtd:debug_heap.obj
 0002:000029b0       ??_C@_1JM@MCMEPJEP@?$AAr?$AAe?$AAa?$AAl?$AAl?$AAo?$AAc?$AAa?$AAt?$AAi?$AAo?$AAn?$AA_?$AAi?$AAs@ 000000014003d9b0     libucrtd:debug_heap.obj
 0002:00002a50       ??_C@_1DM@LNOPKAIJ@?$AA_?$AA_?$AAa?$AAc?$AAr?$AAt?$AA_?$AAl?$AAa?$AAs?$AAt?$AA_?$AAb?$AAl?$AAo@ 000000014003da50     libucrtd:debug_heap.obj
 0002:00002a90       ??_C@_1DO@HABCJBHO@?$AA_?$AA_?$AAa?$AAc?$AAr?$AAt?$AA_?$AAf?$AAi?$AAr?$AAs?$AAt?$AA_?$AAb?$AAl@ 000000014003da90     libucrtd:debug_heap.obj
 0002:00002ad0       ??_C@_1CC@CKEAHJPH@?$AAb?$AAl?$AAo?$AAc?$AAk?$AA?5?$AA?$CB?$AA?$DN?$AA?5?$AAn?$AAu?$AAl?$AAl?$AAp?$AAt@ 000000014003dad0     libucrtd:debug_heap.obj
 0002:00002b00       ??_C@_0EJ@HEIBCIMJ@The?5Block?5at?50x?$CFp?5was?5allocated@ 000000014003db00     libucrtd:debug_heap.obj
 0002:00002b50       ??_C@_0BL@KEIPLFAC@Client?5hook?5free?5failure?4?6@ 000000014003db50     libucrtd:debug_heap.obj
 0002:00002b70       ??_C@_1FA@KDNEBILF@?$AAi?$AAs?$AA_?$AAb?$AAl?$AAo?$AAc?$AAk?$AA_?$AAt?$AAy?$AAp?$AAe?$AA_?$AAv@ 000000014003db70     libucrtd:debug_heap.obj
 0002:00002bc0       ??_C@_0KI@JGFOHMEB@HEAP?5CORRUPTION?5DETECTED?3?5befor@ 000000014003dbc0     libucrtd:debug_heap.obj
 0002:00002c70       ??_C@_0IK@PJCGLBOB@HEAP?5CORRUPTION?5DETECTED?3?5befor@ 000000014003dc70     libucrtd:debug_heap.obj
 0002:00002d00       ??_C@_0KE@MBMNHHHN@HEAP?5CORRUPTION?5DETECTED?3?5after@ 000000014003dd00     libucrtd:debug_heap.obj
 0002:00002db0       ??_C@_0IG@LEMBDCJK@HEAP?5CORRUPTION?5DETECTED?3?5after@ 000000014003ddb0     libucrtd:debug_heap.obj
 0002:00002e40       ??_C@_1OK@GFEOEJAF@?$AAh?$AAe?$AAa?$AAd?$AAe?$AAr?$AA?9?$AA?$DO?$AA_?$AAl?$AAi?$AAn?$AAe?$AA_?$AAn@ 000000014003de40     libucrtd:debug_heap.obj
 0002:00002f30       ??_C@_1ME@GFALMLNA@?$AAh?$AAe?$AAa?$AAd?$AAe?$AAr?$AA?9?$AA?$DO?$AA_?$AAb?$AAl?$AAo?$AAc?$AAk?$AA_@ 000000014003df30     libucrtd:debug_heap.obj
 0002:00002ff8       ??_C@_1DI@ILNOPEPI@?$AA_?$AA_?$AAa?$AAc?$AAr?$AAt?$AA_?$AAl?$AAa?$AAs?$AAt?$AA_?$AAb?$AAl?$AAo@ 000000014003dff8     libucrtd:debug_heap.obj
 0002:00003030       ??_C@_1DK@KEHFGDIJ@?$AA_?$AA_?$AAa?$AAc?$AAr?$AAt?$AA_?$AAf?$AAi?$AAr?$AAs?$AAt?$AA_?$AAb?$AAl@ 000000014003e030     libucrtd:debug_heap.obj
 0002:00003070       ??_C@_1BG@MBKOGDLD@?$AA_?$AAm?$AAs?$AAi?$AAz?$AAe?$AA_?$AAd?$AAb?$AAg@ 000000014003e070     libucrtd:debug_heap.obj
 0002:00003088       ??_C@_07OHKEFPKJ@DAMAGED@  000000014003e088     libucrtd:debug_heap.obj
 0002:00003090       ??_C@_0KA@IHNJJKPL@HEAP?5CORRUPTION?5DETECTED?3?5on?5to@ 000000014003e090     libucrtd:debug_heap.obj
 0002:00003130       ??_C@_0IC@BBJIOOJH@HEAP?5CORRUPTION?5DETECTED?3?5on?5to@ 000000014003e130     libucrtd:debug_heap.obj
 0002:000031c0       ??_C@_0EG@DGJMPDBH@?$CFhs?5located?5at?50x?$CFp?5is?5?$CFIu?5byte@ 000000014003e1c0     libucrtd:debug_heap.obj
 0002:00003208       ??_C@_0CI@JMLBEDHJ@?$CFhs?5located?5at?50x?$CFp?5is?5?$CFIu?5byte@ 000000014003e208     libucrtd:debug_heap.obj
 0002:00003230       ??_C@_0EG@GPFHANHO@Cycle?5in?5block?5list?5detected?5wh@ 000000014003e230     libucrtd:debug_heap.obj
 0002:00003278       ??_C@_0BJ@ELMAOCAJ@Heap?5validation?5failed?4?6@ 000000014003e278     libucrtd:debug_heap.obj
 0002:000032a0       ??_C@_1IE@BBIFDGEB@?$AAn?$AAe?$AAw?$AA_?$AAb?$AAi?$AAt?$AAs?$AA?5?$AA?$DN?$AA?$DN?$AA?5?$AA_?$AAC?$AAR@ 000000014003e2a0     libucrtd:debug_heap.obj
 0002:00003328       ??_C@_1BO@GJFDNMNF@?$AA_?$AAC?$AAr?$AAt?$AAS?$AAe?$AAt?$AAD?$AAb?$AAg?$AAF?$AAl?$AAa?$AAg@ 000000014003e328     libucrtd:debug_heap.obj
 0002:00003348       ??_C@_1CC@BBKMONGA@?$AAs?$AAt?$AAa?$AAt?$AAe?$AA?5?$AA?$CB?$AA?$DN?$AA?5?$AAn?$AAu?$AAl?$AAl?$AAp?$AAt@ 000000014003e348     libucrtd:debug_heap.obj
 0002:00003370       ??_C@_1CE@NJJKELF@?$AA_?$AAC?$AAr?$AAt?$AAM?$AAe?$AAm?$AAC?$AAh?$AAe?$AAc?$AAk?$AAp?$AAo?$AAi@ 000000014003e370     libucrtd:debug_heap.obj
 0002:00003398       ??_C@_0DP@LEFMFBOD@Bad?5memory?5block?5found?5at?50x?$CFp?4@ 000000014003e398     libucrtd:debug_heap.obj
 0002:000033d8       ??_C@_0CB@EAAIGELO@Bad?5memory?5block?5found?5at?50x?$CFp?4@ 000000014003e3d8     libucrtd:debug_heap.obj
 0002:000033fc       ??_C@_05MKKEDADM@?$CF?42X?5@ 000000014003e3fc     libucrtd:debug_heap.obj
 0002:00003408       ??_C@_1CC@DIJAHFFJ@?$AAp?$AAr?$AAi?$AAn?$AAt?$AA_?$AAb?$AAl?$AAo?$AAc?$AAk?$AA_?$AAd?$AAa?$AAt@ 000000014003e408     libucrtd:debug_heap.obj
 0002:00003430       ??_C@_1BI@KALLJECN@?$AA?$CI?$AA?$CK?$AA_?$AAe?$AAr?$AAr?$AAn?$AAo?$AA?$CI?$AA?$CJ?$AA?$CJ@ 000000014003e430     libucrtd:debug_heap.obj
 0002:00003448       ??_C@_0BA@HJBKCELP@?5Data?3?5?$DM?$CFs?$DO?5?$CFs?6@ 000000014003e448     libucrtd:debug_heap.obj
 0002:00003458       ??_C@_0BE@KCIPKCIA@Dumping?5objects?5?9?$DO?6@ 000000014003e458     libucrtd:debug_heap.obj
 0002:00003470       ??_C@_0BE@OIEFNFL@?$CDFile?5Error?$CD?$CI?$CFd?$CJ?5?3?5@ 000000014003e470     libucrtd:debug_heap.obj
 0002:00003488       ??_C@_0L@JMEFFCCJ@?$CFhs?$CI?$CFd?$CJ?5?3?5@ 000000014003e488     libucrtd:debug_heap.obj
 0002:00003494       ??_C@_06PKLGBFGM@?$HL?$CFld?$HN?5@ 000000014003e494     libucrtd:debug_heap.obj
 0002:000034a0       ??_C@_0DD@GHNAAKBB@client?5block?5at?50x?$CFp?0?5subtype?5?$CF@ 000000014003e4a0     libucrtd:debug_heap.obj
 0002:000034d8       ??_C@_0CH@FAGDDGPN@normal?5block?5at?50x?$CFp?0?5?$CFIu?5bytes@ 000000014003e4d8     libucrtd:debug_heap.obj
 0002:00003500       ??_C@_0DA@MDLBNIBM@crt?5block?5at?50x?$CFp?0?5subtype?5?$CFx?0?5@ 000000014003e500     libucrtd:debug_heap.obj
 0002:00003530       ??_C@_0BH@GFGKJDCO@Object?5dump?5complete?4?6@ 000000014003e530     libucrtd:debug_heap.obj
 0002:00003548       ??_C@_0BI@JBFPOEJA@Detected?5memory?5leaks?$CB?6@ 000000014003e548     libucrtd:debug_heap.obj
 0002:00003560       ??_C@_1GI@BBAEIKL@?$AA?$CI?$AA?$CI?$AAd?$AAe?$AAs?$AAt?$AAi?$AAn?$AAa?$AAt?$AAi?$AAo?$AAn?$AA?$CJ?$AA?$CJ@ 000000014003e560     libucrtd:strcpy_s.obj
 0002:000035d0       ??_C@_1HI@PBJPCEBC@?$AAm?$AAi?$AAn?$AAk?$AAe?$AAr?$AAn?$AAe?$AAl?$AA?2?$AAc?$AAr?$AAt?$AAs?$AA?2@ 000000014003e5d0     libucrtd:strcpy_s.obj
 0002:00003648       ??_C@_1CA@FHIAGDFH@?$AAc?$AAo?$AAm?$AAm?$AAo?$AAn?$AA_?$AAt?$AAc?$AAs?$AAc?$AAp?$AAy?$AA_?$AAs@ 000000014003e648     libucrtd:strcpy_s.obj
 0002:00003668       ??_C@_1CK@EIOKGPJL@?$AA?$CI?$AA?$CI?$AA?$CI?$AAs?$AAo?$AAu?$AAr?$AAc?$AAe?$AA?$CJ?$AA?$CJ?$AA?$CJ?$AA?5?$AA?$CB?$AA?$DN@ 000000014003e668     libucrtd:strcpy_s.obj
 0002:00003698       ??_C@_1CI@HCPHDDLE@?$AAB?$AAu?$AAf?$AAf?$AAe?$AAr?$AA?5?$AAi?$AAs?$AA?5?$AAt?$AAo?$AAo?$AA?5?$AAs@ 000000014003e698     libucrtd:strcpy_s.obj
 0002:000036c0       ??_C@_1DM@MADKGDLO@?$AA?$CI?$AAL?$AA?$CC?$AAB?$AAu?$AAf?$AAf?$AAe?$AAr?$AA?5?$AAi?$AAs?$AA?5?$AAt?$AAo@ 000000014003e6c0     libucrtd:strcpy_s.obj
 0002:00003700       ??_C@_1DA@LLLMNMKI@?$AAa?$AAb?$AAo?$AAr?$AAt?$AA?$CI?$AA?$CJ?$AA?5?$AAh?$AAa?$AAs?$AA?5?$AAb?$AAe?$AAe@ 000000014003e700     libucrtd:abort.obj
 0002:00003730       ?format_validation_lookup_table_spectre@__crt_stdio_output@@3V?$spectre_mitigated_lookup_table@Ustate_transition_pair@__crt_stdio_output@@$0IA@@1@B 000000014003e730     libucrtd:output.obj
 0002:00003b30       ??_C@_1GA@MOBAPGIO@?$AAm?$AAi?$AAn?$AAk?$AAe?$AAr?$AAn?$AAe?$AAl?$AA?2?$AAc?$AAr?$AAt?$AAs?$AA?2@ 000000014003eb30     libucrtd:output.obj
 0002:00003b90       ??_C@_1CE@EAKLPBKK@?$AAf?$AAo?$AAr?$AAm?$AAa?$AAt?$AA?5?$AA?$CB?$AA?$DN?$AA?5?$AAn?$AAu?$AAl?$AAl?$AAp@ 000000014003eb90     libucrtd:output.obj
 0002:00003bb8       ??_C@_1CA@PIMGHCEK@?$AAc?$AAo?$AAm?$AAm?$AAo?$AAn?$AA_?$AAv?$AAs?$AAp?$AAr?$AAi?$AAn?$AAt?$AAf@ 000000014003ebb8     libucrtd:output.obj
 0002:00003be0       ??_C@_1EO@EGEEFEFM@?$AAb?$AAu?$AAf?$AAf?$AAe?$AAr?$AA_?$AAc?$AAo?$AAu?$AAn?$AAt?$AA?5?$AA?$DN?$AA?$DN@ 000000014003ebe0     libucrtd:output.obj
 0002:00003c30       ??_C@_1CE@JEILLNB@?$AAc?$AAo?$AAm?$AAm?$AAo?$AAn?$AA_?$AAv?$AAs?$AAp?$AAr?$AAi?$AAn?$AAt?$AAf@ 000000014003ec30     libucrtd:output.obj
 0002:00003c60       ??_C@_1EM@OAFHAOLH@?$AAb?$AAu?$AAf?$AAf?$AAe?$AAr?$AA?5?$AA?$CB?$AA?$DN?$AA?5?$AAn?$AAu?$AAl?$AAl?$AAp@ 000000014003ec60     libucrtd:output.obj
 0002:00003cb0       ??_C@_1DA@HPBFKMEB@?$AA?$CI?$AA?$CC?$AAB?$AAu?$AAf?$AAf?$AAe?$AAr?$AA?5?$AAt?$AAo?$AAo?$AA?5?$AAs?$AAm@ 000000014003ecb0     libucrtd:output.obj
 0002:00003ce0       ??_C@_1CG@LHFJHFBB@?$AAc?$AAo?$AAm?$AAm?$AAo?$AAn?$AA_?$AAv?$AAs?$AAn?$AAp?$AAr?$AAi?$AAn?$AAt@ 000000014003ece0     libucrtd:output.obj
 0002:00003d08       ??_C@_1CM@JOIJBMEM@?$AA_?$AAf?$AAo?$AAr?$AAm?$AAa?$AAt?$AA_?$AAi?$AAt?$AA?5?$AA?$CB?$AA?$DN?$AA?5?$AAn@ 000000014003ed08     libucrtd:output.obj
 0002:00003d40       ??_C@_1HA@DMAAKIJP@?$AAm?$AAi?$AAn?$AAk?$AAe?$AAr?$AAn?$AAe?$AAl?$AA?2?$AAc?$AAr?$AAt?$AAs?$AA?2@ 000000014003ed40     libucrtd:output.obj
 0002:00003db0       ??_C@_1EE@DMAIGNBG@?$AA?$CI?$AA?$CC?$AAI?$AAn?$AAc?$AAo?$AAr?$AAr?$AAe?$AAc?$AAt?$AA?5?$AAf?$AAo?$AAr@ 000000014003edb0     libucrtd:output.obj
 0002:00003e00       ??_C@_1FG@OBJBDPAC@?$AA?$CI?$AA?$CC?$AAN?$AA?5?$AAl?$AAe?$AAn?$AAg?$AAt?$AAh?$AA?5?$AAm?$AAo?$AAd?$AAi@ 000000014003ee00     libucrtd:output.obj
 0002:00003e60       ??_C@_1EC@GJPNJDCN@?$AA_?$AAl?$AAe?$AAn?$AAg?$AAt?$AAh?$AA?5?$AA?$DN?$AA?$DN?$AA?5?$AAl?$AAe?$AAn?$AAg@ 000000014003ee60     libucrtd:output.obj
 0002:00003ea8       ??_C@_1DG@CEJKFDMO@?$AAs?$AAt?$AAa?$AAt?$AAe?$AA_?$AAc?$AAa?$AAs?$AAe?$AA_?$AAn?$AAo?$AAr?$AAm@ 000000014003eea8     libucrtd:output.obj
 0002:00003ee0       ??_C@_1CI@DDKMNCPP@?$AA_?$AAc?$AAo?$AAn?$AAt?$AAe?$AAx?$AAt?$AA?5?$AA?$CB?$AA?$DN?$AA?5?$AAn?$AAu?$AAl@ 000000014003eee0     libucrtd:output.obj
 0002:00003f10       ??_C@_1HK@IIPGOADH@?$AA_?$AA_?$AAc?$AAr?$AAt?$AA_?$AAs?$AAt?$AAd?$AAi?$AAo?$AA_?$AAo?$AAu?$AAt@ 000000014003ef10     libucrtd:output.obj
 0002:00003f90       ??_C@_1HE@IACOMEJF@?$AA_?$AA_?$AAc?$AAr?$AAt?$AA_?$AAs?$AAt?$AAd?$AAi?$AAo?$AA_?$AAo?$AAu?$AAt@ 000000014003ef90     libucrtd:output.obj
 0002:00004010       ??_C@_1GC@BNMHNGKM@?$AA_?$AAs?$AAt?$AAa?$AAt?$AAe?$AA?5?$AA?$DN?$AA?$DN?$AA?5?$AAs?$AAt?$AAa?$AAt?$AAe@ 000000014003f010     libucrtd:output.obj
 0002:00004080       ??_C@_1BEC@NDOOKIMC@?$AA_?$AA_?$AAc?$AAr?$AAt?$AA_?$AAs?$AAt?$AAd?$AAi?$AAo?$AA_?$AAo?$AAu?$AAt@ 000000014003f080     libucrtd:output.obj
 0002:000041d0       ??_C@_1EK@PNGFDECN@?$AA?$CI?$AA?$CC?$AA?8?$AAn?$AA?8?$AA?5?$AAf?$AAo?$AAr?$AAm?$AAa?$AAt?$AA?5?$AAs?$AAp@ 000000014003f1d0     libucrtd:output.obj
 0002:00004220       ??_C@_1EO@GHKFGFKL@?$AA?$CI?$AA?$CC?$AAI?$AAn?$AAv?$AAa?$AAl?$AAi?$AAd?$AA?5?$AAi?$AAn?$AAt?$AAe?$AAg@ 000000014003f220     libucrtd:output.obj
 0002:00004270       ??_C@_1BDG@KOLEFKPF@?$AA_?$AA_?$AAc?$AAr?$AAt?$AA_?$AAs?$AAt?$AAd?$AAi?$AAo?$AA_?$AAo?$AAu?$AAt@ 000000014003f270     libucrtd:output.obj
 0002:000043a8       ??_C@_1O@CEDCILHN@?$AA?$CI?$AAn?$AAu?$AAl?$AAl?$AA?$CJ@ 000000014003f3a8     libucrtd:output.obj
 0002:000043b8       ??_C@_06OJHGLDPL@?$CInull?$CJ@ 000000014003f3b8     libucrtd:output.obj
 0002:000043c0       ??_C@_1CK@LGDCECDH@?$AA_?$AAf?$AAo?$AAr?$AAm?$AAa?$AAt?$AA_?$AAc?$AAh?$AAa?$AAr?$AA?5?$AA?$CB?$AA?$DN@ 000000014003f3c0     libucrtd:output.obj
 0002:000043f0       ??_C@_0DI@KIFBHMNO@minkernel?2crts?2ucrt?2inc?2corecrt@ 000000014003f3f0     libucrtd:output.obj
 0002:00004430       ??_C@_1BMK@JGIBNIA@?$AA_?$AA_?$AAc?$AAr?$AAt?$AA_?$AAs?$AAt?$AAd?$AAi?$AAo?$AA_?$AAo?$AAu?$AAt@ 000000014003f430     libucrtd:output.obj
 0002:00004600       ??_C@_1BLC@INKIGOCN@?$AA_?$AA_?$AAc?$AAr?$AAt?$AA_?$AAs?$AAt?$AAd?$AAi?$AAo?$AA_?$AAo?$AAu?$AAt@ 000000014003f600     libucrtd:output.obj
 0002:000047c0       ??_C@_1BNK@KHNJGCCP@?$AA_?$AA_?$AAc?$AAr?$AAt?$AA_?$AAs?$AAt?$AAd?$AAi?$AAo?$AA_?$AAo?$AAu?$AAt@ 000000014003f7c0     libucrtd:output.obj
 0002:000049a0       ??_C@_1BNO@OHFFMOOJ@?$AA_?$AA_?$AAc?$AAr?$AAt?$AA_?$AAs?$AAt?$AAd?$AAi?$AAo?$AA_?$AAo?$AAu?$AAt@ 000000014003f9a0     libucrtd:output.obj
 0002:00004b80       ??_C@_1BMC@FAGJFBLI@?$AA_?$AA_?$AAc?$AAr?$AAt?$AA_?$AAs?$AAt?$AAd?$AAi?$AAo?$AA_?$AAo?$AAu?$AAt@ 000000014003fb80     libucrtd:output.obj
 0002:00004d50       ??_C@_1BMG@CGPDIFDK@?$AA_?$AA_?$AAc?$AAr?$AAt?$AA_?$AAs?$AAt?$AAd?$AAi?$AAo?$AA_?$AAo?$AAu?$AAt@ 000000014003fd50     libucrtd:output.obj
 0002:00004f20       ??_C@_1BNC@OHPDPPJK@?$AA_?$AA_?$AAc?$AAr?$AAt?$AA_?$AAs?$AAt?$AAd?$AAi?$AAo?$AA_?$AAo?$AAu?$AAt@ 000000014003ff20     libucrtd:output.obj
 0002:00005100       ??_C@_1BLK@FOLFMPJH@?$AA_?$AA_?$AAc?$AAr?$AAt?$AA_?$AAs?$AAt?$AAd?$AAi?$AAo?$AA_?$AAo?$AAu?$AAt@ 0000000140040100     libucrtd:output.obj
 0002:000052c0       ??_C@_1BNO@NAODCKFA@?$AA_?$AA_?$AAc?$AAr?$AAt?$AA_?$AAs?$AAt?$AAd?$AAi?$AAo?$AA_?$AAo?$AAu?$AAt@ 00000001400402c0     libucrtd:output.obj
 0002:000054a0       ??_C@_1BMG@BBEFGBID@?$AA_?$AA_?$AAc?$AAr?$AAt?$AA_?$AAs?$AAt?$AAd?$AAi?$AAo?$AA_?$AAo?$AAu?$AAt@ 00000001400404a0     libucrtd:output.obj
 0002:00005670       ??_C@_1BNC@JPKLPOHO@?$AA_?$AA_?$AAc?$AAr?$AAt?$AA_?$AAs?$AAt?$AAd?$AAi?$AAo?$AA_?$AAo?$AAu?$AAt@ 0000000140040670     libucrtd:output.obj
 0002:00005860       ??_C@_1BA@GLMCNLEM@?$AAW?$AAa?$AAr?$AAn?$AAi?$AAn?$AAg@ 0000000140040860     libucrtd:dbgrpt.obj
 0002:00005870       ??_C@_1M@ILHOPKA@?$AAE?$AAr?$AAr?$AAo?$AAr@ 0000000140040870     libucrtd:dbgrpt.obj
 0002:00005880       ??_C@_1CC@CGHMNGDG@?$AAA?$AAs?$AAs?$AAe?$AAr?$AAt?$AAi?$AAo?$AAn?$AA?5?$AAF?$AAa?$AAi?$AAl?$AAe@ 0000000140040880     libucrtd:dbgrpt.obj
 0002:000058b0       ??_C@_1OG@PMPPFHAF@?$AA?6?$AA?6?$AAF?$AAo?$AAr?$AA?5?$AAi?$AAn?$AAf?$AAo?$AAr?$AAm?$AAa?$AAt?$AAi@ 00000001400408b0     libucrtd:dbgrpt.obj
 0002:000059a0       ??_C@_1MG@LJLILFFD@?$AAD?$AAe?$AAb?$AAu?$AAg?$AA?5?$AA?$CF?$AAl?$AAs?$AA?$CB?$AA?6?$AA?6?$AAP?$AAr?$AAo@ 00000001400409a0     libucrtd:dbgrpt.obj
 0002:00005a70       ??_C@_1MG@OODCADGL@?$AAD?$AAe?$AAb?$AAu?$AAg?$AA?5?$AA?$CF?$AAl?$AAs?$AA?$CB?$AA?6?$AA?6?$AAP?$AAr?$AAo@ 0000000140040a70     libucrtd:dbgrpt.obj
 0002:00005b38       ??_C@_0BH@DNAGHKFM@?$DMprogram?5name?5unknown?$DO@ 0000000140040b38     libucrtd:dbgrpt.obj
 0002:00005b50       ??_C@_1FO@GMJDLAJD@?$AAm?$AAi?$AAn?$AAk?$AAe?$AAr?$AAn?$AAe?$AAl?$AA?2?$AAc?$AAr?$AAt?$AAs?$AA?2@ 0000000140040b50     libucrtd:dbgrpt.obj
 0002:00005bb0       ??_C@_1CM@EHMOGBJJ@?$AAc?$AAo?$AAm?$AAm?$AAo?$AAn?$AA_?$AAm?$AAe?$AAs?$AAs?$AAa?$AAg?$AAe?$AA_@ 0000000140040bb0     libucrtd:dbgrpt.obj
 0002:00005be0       ??_C@_1PE@ECNALGCA@?$AAt?$AAr?$AAa?$AAi?$AAt?$AAs?$AA?3?$AA?3?$AAt?$AAc?$AAs?$AAc?$AAp?$AAy?$AA_@ 0000000140040be0     libucrtd:dbgrpt.obj
 0002:00005cd4       ??_C@_11LOCGONAA@@         0000000140040cd4     libucrtd:dbgrpt.obj
 0002:00005cd8       ??_C@_1BK@PEDCIPMA@?$AAE?$AAx?$AAp?$AAr?$AAe?$AAs?$AAs?$AAi?$AAo?$AAn?$AA?3?$AA?5@ 0000000140040cd8     libucrtd:dbgrpt.obj
 0002:00005cf8       ??_C@_1BA@GLLGCPCK@?$AA?6?$AAL?$AAi?$AAn?$AAe?$AA?3?$AA?5@ 0000000140040cf8     libucrtd:dbgrpt.obj
 0002:00005d08       ??_C@_1BA@LNHECFIM@?$AA?6?$AAF?$AAi?$AAl?$AAe?$AA?3?$AA?5@ 0000000140040d08     libucrtd:dbgrpt.obj
 0002:00005d18       ??_C@_1BE@CGCJKGHI@?$AA?6?$AAM?$AAo?$AAd?$AAu?$AAl?$AAe?$AA?3?$AA?5@ 0000000140040d18     libucrtd:dbgrpt.obj
 0002:00005d30       ??_C@_1JM@IBOIJEOO@?$AAw?$AAc?$AAs?$AAc?$AAp?$AAy?$AA_?$AAs?$AA?$CI?$AAm?$AAe?$AAs?$AAs?$AAa?$AAg@ 0000000140040d30     libucrtd:dbgrpt.obj
 0002:00005dd0       ??_C@_1FG@BBOLDHGF@?$AA_?$AAC?$AAr?$AAt?$AAD?$AAb?$AAg?$AAR?$AAe?$AAp?$AAo?$AAr?$AAt?$AA?3?$AA?5@ 0000000140040dd0     libucrtd:dbgrpt.obj
 0002:00005e30       ??_C@_1GE@DPGDJKLM@?$AAm?$AAi?$AAn?$AAk?$AAe?$AAr?$AAn?$AAe?$AAl?$AA?2?$AAc?$AAr?$AAt?$AAs?$AA?2@ 0000000140040e30     libucrtd:atox.obj
 0002:00005ea0       ??_C@_1EO@MLJCKPIB@?$AAb?$AAa?$AAs?$AAe?$AA?5?$AA?$DN?$AA?$DN?$AA?5?$AA0?$AA?5?$AA?$HM?$AA?$HM?$AA?5?$AA?$CI?$AA2@ 0000000140040ea0     libucrtd:atox.obj
 0002:00005ef0       ??_C@_1DI@BANODKFL@?$AA_?$AA_?$AAc?$AAr?$AAt?$AA_?$AAs?$AAt?$AAr?$AAt?$AAo?$AAx?$AA?3?$AA?3?$AAp@ 0000000140040ef0     libucrtd:atox.obj
 0002:00005f28       ??_C@_1CM@GJENOOEJ@?$AAc?$AA?5?$AA?$DN?$AA?$DN?$AA?5?$AA?8?$AA?2?$AA0?$AA?8?$AA?5?$AA?$HM?$AA?$HM?$AA?5?$AA?$CK?$AA_@ 0000000140040f28     libucrtd:atox.obj
 0002:00005f60       ??_C@_1HA@CONLANFI@?$AA_?$AA_?$AAc?$AAr?$AAt?$AA_?$AAs?$AAt?$AAr?$AAt?$AAo?$AAx?$AA?3?$AA?3?$AAc@ 0000000140040f60     libucrtd:atox.obj
 0002:00005fd0       ??_C@_1BM@PNEBBBDO@?$AA_?$AAp?$AA?5?$AA?$CB?$AA?$DN?$AA?5?$AAn?$AAu?$AAl?$AAl?$AAp?$AAt?$AAr@ 0000000140040fd0     libucrtd:atox.obj
 0002:00005ff0       ??_C@_1HG@FCDBLOEG@?$AA_?$AA_?$AAc?$AAr?$AAt?$AA_?$AAs?$AAt?$AAr?$AAt?$AAo?$AAx?$AA?3?$AA?3?$AAc@ 0000000140040ff0     libucrtd:atox.obj
 0002:00006070       ??_C@_1GK@MNHIDABG@?$AA_?$AA_?$AAc?$AAr?$AAt?$AA_?$AAs?$AAt?$AAr?$AAt?$AAo?$AAx?$AA?3?$AA?3?$AAc@ 0000000140041070     libucrtd:atox.obj
 0002:000060e0       ??_C@_1HA@MKKIHBHP@?$AA_?$AA_?$AAc?$AAr?$AAt?$AA_?$AAs?$AAt?$AAr?$AAt?$AAo?$AAx?$AA?3?$AA?3?$AAc@ 00000001400410e0     libucrtd:atox.obj
 0002:00006150       ??_C@_0DM@DKIFNNOL@minkernel?2crts?2ucrt?2src?2appcrt?2@ 0000000140041150     libucrtd:per_thread_data.obj
 0002:00006190       ??_C@_1DE@BCNCAIK@?$AA?$CI?$AA?$CC?$AAI?$AAn?$AAv?$AAa?$AAl?$AAi?$AAd?$AA?5?$AAe?$AAr?$AAr?$AAo?$AAr@ 0000000140041190     libucrtd:set_error_mode.obj
 0002:000061d0       ??_C@_1GO@EBFPMMIJ@?$AAm?$AAi?$AAn?$AAk?$AAe?$AAr?$AAn?$AAe?$AAl?$AA?2?$AAc?$AAr?$AAt?$AAs?$AA?2@ 00000001400411d0     libucrtd:set_error_mode.obj
 0002:00006240       ??_C@_1CA@LFDHAMEM@?$AA_?$AAs?$AAe?$AAt?$AA_?$AAe?$AAr?$AAr?$AAo?$AAr?$AA_?$AAm?$AAo?$AAd?$AAe@ 0000000140041240     libucrtd:set_error_mode.obj
 0002:00006260       ??_C@_1CA@EOJJMFA@?$AAc?$AAo?$AAm?$AAm?$AAo?$AAn?$AA_?$AAt?$AAc?$AAs?$AAc?$AAa?$AAt?$AA_?$AAs@ 0000000140041260     libucrtd:wcscat_s.obj
 0002:00006280       ??_C@_1DM@FHLMIEG@?$AAS?$AAt?$AAr?$AAi?$AAn?$AAg?$AA?5?$AAi?$AAs?$AA?5?$AAn?$AAo?$AAt?$AA?5?$AAn@ 0000000140041280     libucrtd:wcscat_s.obj
 0002:000062c0       ??_C@_1FA@MJKDNFFB@?$AA?$CI?$AAL?$AA?$CC?$AAS?$AAt?$AAr?$AAi?$AAn?$AAg?$AA?5?$AAi?$AAs?$AA?5?$AAn?$AAo@ 00000001400412c0     libucrtd:wcscat_s.obj
 0002:00006310       ??_C@_1CC@CHNFGJIC@?$AAc?$AAo?$AAm?$AAm?$AAo?$AAn?$AA_?$AAt?$AAc?$AAs?$AAn?$AAc?$AAp?$AAy?$AA_@ 0000000140041310     libucrtd:wcsncpy_s.obj
 0002:000064a8       ??_C@_1CE@JMFACANE@?$AAr?$AAe?$AAs?$AAu?$AAl?$AAt?$AA?5?$AA?$CB?$AA?$DN?$AA?5?$AAn?$AAu?$AAl?$AAl?$AAp@ 00000001400414a8     libucrtd:errno.obj
 0002:000064f8       ??_C@_0DI@DNFGFCIK@minkernel?2crts?2ucrt?2inc?2corecrt@ 00000001400414f8     libucrtd:argv_wildcards.obj
 0002:00006530       ??_C@_1HE@CEMHPOHH@?$AAm?$AAi?$AAn?$AAk?$AAe?$AAr?$AAn?$AAe?$AAl?$AA?2?$AAc?$AAr?$AAt?$AAs?$AA?2@ 0000000140041530     libucrtd:argv_wildcards.obj
 0002:000065a8       ??_C@_1DK@IBFFOJGB@?$AAc?$AAo?$AAm?$AAm?$AAo?$AAn?$AA_?$AAe?$AAx?$AAp?$AAa?$AAn?$AAd?$AA_?$AAa@ 00000001400415a8     libucrtd:argv_wildcards.obj
 0002:000065f0       ??_C@_1MC@FLPKOFON@?$AAt?$AAr?$AAa?$AAi?$AAt?$AAs?$AA?3?$AA?3?$AAt?$AAc?$AAs?$AAn?$AAc?$AAp?$AAy@ 00000001400415f0     libucrtd:argv_wildcards.obj
 0002:000066b8       ??_C@_0DK@FPFMIIJB@minkernel?2crts?2ucrt?2src?2appcrt?2@ 00000001400416b8     libucrtd:argv_wildcards.obj
 0002:00006700       ??_C@_1EA@KOCCBLAD@?$AAc?$AAo?$AAp?$AAy?$AA_?$AAa?$AAn?$AAd?$AA_?$AAa?$AAd?$AAd?$AA_?$AAa?$AAr@ 0000000140041700     libucrtd:argv_wildcards.obj
 0002:00006740       ??_C@_1KM@GDJIGAGL@?$AAt?$AAr?$AAa?$AAi?$AAt?$AAs?$AA?3?$AA?3?$AAt?$AAc?$AAs?$AAn?$AAc?$AAp?$AAy@ 0000000140041740     libucrtd:argv_wildcards.obj
 0002:000067f0       ??_C@_1PI@FGFLAGCC@?$AAt?$AAr?$AAa?$AAi?$AAt?$AAs?$AA?3?$AA?3?$AAt?$AAc?$AAs?$AAn?$AAc?$AAp?$AAy@ 00000001400417f0     libucrtd:argv_wildcards.obj
 0002:00006930       ??_C@_1M@HPNHIDJI@?$AAj?$AAa?$AA?9?$AAJ?$AAP@ 0000000140041930     libucrtd:mbctype.obj
 0002:00006940       ??_C@_1M@BIBDDEMK@?$AAz?$AAh?$AA?9?$AAC?$AAN@ 0000000140041940     libucrtd:mbctype.obj
 0002:00006950       ??_C@_1M@JLOOOEGK@?$AAk?$AAo?$AA?9?$AAK?$AAR@ 0000000140041950     libucrtd:mbctype.obj
 0002:00006960       ??_C@_1M@CLNBBOPM@?$AAz?$AAh?$AA?9?$AAT?$AAW@ 0000000140041960     libucrtd:mbctype.obj
 0002:00006970       ??_C@_0DE@HGDKNBFD@minkernel?2crts?2ucrt?2src?2appcrt?2@ 0000000140041970     libucrtd:mbctype.obj
 0002:000069b0       ??_C@_0ED@BLPEHJAI@minkernel?2crts?2ucrt?2src?2desktop@ 00000001400419b0     libucrtd:get_environment_from_os.obj
 0002:00006a00       ??_C@_1FO@NMANMHOD@?$AAc?$AAa?$AAc?$AAh?$AAe?$AAd?$AA_?$AAs?$AAt?$AAa?$AAt?$AAe?$AA?5?$AA?$DN?$AA?$DN@ 0000000140041a00     libucrtd:win_policies.obj
 0002:00006a60       ??_C@_1HC@GHLNKBJK@?$AAm?$AAi?$AAn?$AAk?$AAe?$AAr?$AAn?$AAe?$AAl?$AA?2?$AAc?$AAr?$AAt?$AAs?$AA?2@ 0000000140041a60     libucrtd:win_policies.obj
 0002:00006ad8       ??_C@_0DB@JFFPGLDM@minkernel?2crts?2ucrt?2src?2appcrt?2@ 0000000140041ad8     libucrtd:osfinfo.obj
 0002:00006b10       ??_C@_1EM@BPODPNEJ@?$AAs?$AAt?$AAa?$AAt?$AAi?$AAc?$AA_?$AAc?$AAa?$AAs?$AAt?$AA?$DM?$AAu?$AAn?$AAs@ 0000000140041b10     libucrtd:osfinfo.obj
 0002:00006b60       ??_C@_1GC@LDGKBAFM@?$AAm?$AAi?$AAn?$AAk?$AAe?$AAr?$AAn?$AAe?$AAl?$AA?2?$AAc?$AAr?$AAt?$AAs?$AA?2@ 0000000140041b60     libucrtd:osfinfo.obj
 0002:00006bc8       ??_C@_1DM@JELNOMLN@?$AA_?$AA_?$AAa?$AAc?$AAr?$AAt?$AA_?$AAl?$AAo?$AAw?$AAi?$AAo?$AA_?$AAe?$AAn@ 0000000140041bc8     libucrtd:osfinfo.obj
 0002:00006c10       ??_C@_1FK@MGHFJLAL@?$AAf?$AAh?$AA?5?$AA?$DO?$AA?$DN?$AA?5?$AA0?$AA?5?$AA?$CG?$AA?$CG?$AA?5?$AA?$CI?$AAu?$AAn?$AAs@ 0000000140041c10     libucrtd:osfinfo.obj
 0002:00006c70       ??_C@_1BO@EMBOBGKE@?$AA_?$AAg?$AAe?$AAt?$AA_?$AAo?$AAs?$AAf?$AAh?$AAa?$AAn?$AAd?$AAl?$AAe@ 0000000140041c70     libucrtd:osfinfo.obj
 0002:00006c90       ??_C@_1CI@ILOIOBLM@?$AA_?$AAo?$AAs?$AAf?$AAi?$AAl?$AAe?$AA?$CI?$AAf?$AAh?$AA?$CJ?$AA?5?$AA?$CG?$AA?5?$AAF@ 0000000140041c90     libucrtd:osfinfo.obj
 0002:00006cc0       __lc_time_c                0000000140041cc0     libucrtd:nlsdata.obj
 0002:00006f80       ??_C@_03KOEHGMDN@Sun@      0000000140041f80     libucrtd:nlsdata.obj
 0002:00006f84       ??_C@_03PDAGKDH@Mon@       0000000140041f84     libucrtd:nlsdata.obj
 0002:00006f88       ??_C@_03NAGEINEP@Tue@      0000000140041f88     libucrtd:nlsdata.obj
 0002:00006f8c       ??_C@_03MHOMLAJA@Wed@      0000000140041f8c     libucrtd:nlsdata.obj
 0002:00006f90       ??_C@_03IOFIKPDN@Thu@      0000000140041f90     libucrtd:nlsdata.obj
 0002:00006f94       ??_C@_03IDIOELNC@Fri@      0000000140041f94     libucrtd:nlsdata.obj
 0002:00006f98       ??_C@_03FEFJNEK@Sat@       0000000140041f98     libucrtd:nlsdata.obj
 0002:00006f9c       ??_C@_06OOPIFAJ@Sunday@    0000000140041f9c     libucrtd:nlsdata.obj
 0002:00006fa4       ??_C@_06JLEDEDGH@Monday@   0000000140041fa4     libucrtd:nlsdata.obj
 0002:00006fb0       ??_C@_07BAAGCFCM@Tuesday@  0000000140041fb0     libucrtd:nlsdata.obj
 0002:00006fb8       ??_C@_09DLIGFAKA@Wednesday@ 0000000140041fb8     libucrtd:nlsdata.obj
 0002:00006fc8       ??_C@_08HACCIKIA@Thursday@ 0000000140041fc8     libucrtd:nlsdata.obj
 0002:00006fd4       ??_C@_06JECMNKMI@Friday@   0000000140041fd4     libucrtd:nlsdata.obj
 0002:00006fe0       ??_C@_08INBOOONO@Saturday@ 0000000140041fe0     libucrtd:nlsdata.obj
 0002:00006fec       ??_C@_03JIHJHPIE@Jan@      0000000140041fec     libucrtd:nlsdata.obj
 0002:00006ff0       ??_C@_03HJBDCHOM@Feb@      0000000140041ff0     libucrtd:nlsdata.obj
 0002:00006ff4       ??_C@_03ODNJBKGA@Mar@      0000000140041ff4     libucrtd:nlsdata.obj
 0002:00006ff8       ??_C@_03LEOLGMJP@Apr@      0000000140041ff8     libucrtd:nlsdata.obj
 0002:00006ffc       ??_C@_03CNMDKL@May@        0000000140041ffc     libucrtd:nlsdata.obj
 0002:00007000       ??_C@_03IDFGHECI@Jun@      0000000140042000     libucrtd:nlsdata.obj
 0002:00007004       ??_C@_03LBGABGKK@Jul@      0000000140042004     libucrtd:nlsdata.obj
 0002:00007008       ??_C@_03IFJFEIGA@Aug@      0000000140042008     libucrtd:nlsdata.obj
 0002:0000700c       ??_C@_03GGCAPAJC@Sep@      000000014004200c     libucrtd:nlsdata.obj
 0002:00007010       ??_C@_03BMAOKBAD@Oct@      0000000140042010     libucrtd:nlsdata.obj
 0002:00007014       ??_C@_03JPJOFNIA@Nov@      0000000140042014     libucrtd:nlsdata.obj
 0002:00007018       ??_C@_03MKABNOCG@Dec@      0000000140042018     libucrtd:nlsdata.obj
 0002:00007020       ??_C@_07CGJPFGJA@January@  0000000140042020     libucrtd:nlsdata.obj
 0002:00007028       ??_C@_08GNJGEPFN@February@ 0000000140042028     libucrtd:nlsdata.obj
 0002:00007034       ??_C@_05HPCKOFNC@March@    0000000140042034     libucrtd:nlsdata.obj
 0002:0000703c       ??_C@_05DMJDNLEJ@April@    000000014004203c     libucrtd:nlsdata.obj
 0002:00007044       ??_C@_04CNLMGBGM@June@     0000000140042044     libucrtd:nlsdata.obj
 0002:0000704c       ??_C@_04MIEPOIFP@July@     000000014004204c     libucrtd:nlsdata.obj
 0002:00007054       ??_C@_06LBBHFDDG@August@   0000000140042054     libucrtd:nlsdata.obj
 0002:00007060       ??_C@_09BHHEALKD@September@ 0000000140042060     libucrtd:nlsdata.obj
 0002:00007070       ??_C@_07JJNFCEND@October@  0000000140042070     libucrtd:nlsdata.obj
 0002:00007078       ??_C@_08HCHEGEOA@November@ 0000000140042078     libucrtd:nlsdata.obj
 0002:00007088       ??_C@_08EDHMEBNP@December@ 0000000140042088     libucrtd:nlsdata.obj
 0002:00007094       ??_C@_02DEDBPAFC@AM@       0000000140042094     libucrtd:nlsdata.obj
 0002:00007098       ??_C@_02CJNFDJBF@PM@       0000000140042098     libucrtd:nlsdata.obj
 0002:000070a0       ??_C@_08BPBNCDIB@MM?1dd?1yy@ 00000001400420a0     libucrtd:nlsdata.obj
 0002:000070b0       ??_C@_0BE@CKGJFCPC@dddd?0?5MMMM?5dd?0?5yyyy@ 00000001400420b0     libucrtd:nlsdata.obj
 0002:000070c8       ??_C@_08JCCMCCIL@HH?3mm?3ss@ 00000001400420c8     libucrtd:nlsdata.obj
 0002:000070d8       ??_C@_17MBGCMIPB@?$AAS?$AAu?$AAn@ 00000001400420d8     libucrtd:nlsdata.obj
 0002:000070e0       ??_C@_17KBOMKBF@?$AAM?$AAo?$AAn@ 00000001400420e0     libucrtd:nlsdata.obj
 0002:000070e8       ??_C@_17BMKGEGOJ@?$AAT?$AAu?$AAe@ 00000001400420e8     libucrtd:nlsdata.obj
 0002:000070f0       ??_C@_17CJEDCEPE@?$AAW?$AAe?$AAd@ 00000001400420f0     libucrtd:nlsdata.obj
 0002:000070f8       ??_C@_17PDPHAADD@?$AAT?$AAh?$AAu@ 00000001400420f8     libucrtd:nlsdata.obj
 0002:00007100       ??_C@_17HFOLPPLP@?$AAF?$AAr?$AAi@ 0000000140042100     libucrtd:nlsdata.obj
 0002:00007108       ??_C@_17GGIBDPIH@?$AAS?$AAa?$AAt@ 0000000140042108     libucrtd:nlsdata.obj
 0002:00007110       ??_C@_1O@IHNHDHPB@?$AAS?$AAu?$AAn?$AAd?$AAa?$AAy@ 0000000140042110     libucrtd:nlsdata.obj
 0002:00007120       ??_C@_1O@MMNBFLIA@?$AAM?$AAo?$AAn?$AAd?$AAa?$AAy@ 0000000140042120     libucrtd:nlsdata.obj
 0002:00007130       ??_C@_1BA@ENFBFFEK@?$AAT?$AAu?$AAe?$AAs?$AAd?$AAa?$AAy@ 0000000140042130     libucrtd:nlsdata.obj
 0002:00007140       ??_C@_1BE@EBOGMDOH@?$AAW?$AAe?$AAd?$AAn?$AAe?$AAs?$AAd?$AAa?$AAy@ 0000000140042140     libucrtd:nlsdata.obj
 0002:00007158       ??_C@_1BC@HHMNLIHE@?$AAT?$AAh?$AAu?$AAr?$AAs?$AAd?$AAa?$AAy@ 0000000140042158     libucrtd:nlsdata.obj
 0002:00007170       ??_C@_1O@PDICJHAG@?$AAF?$AAr?$AAi?$AAd?$AAa?$AAy@ 0000000140042170     libucrtd:nlsdata.obj
 0002:00007180       ??_C@_1BC@ENMNNPAJ@?$AAS?$AAa?$AAt?$AAu?$AAr?$AAd?$AAa?$AAy@ 0000000140042180     libucrtd:nlsdata.obj
 0002:00007198       ??_C@_17DKNBKCHM@?$AAJ?$AAa?$AAn@ 0000000140042198     libucrtd:nlsdata.obj
 0002:000071a0       ??_C@_17LMDJEKJN@?$AAF?$AAe?$AAb@ 00000001400421a0     libucrtd:nlsdata.obj
 0002:000071a8       ??_C@_17CKNLEDEC@?$AAM?$AAa?$AAr@ 00000001400421a8     libucrtd:nlsdata.obj
 0002:000071b0       ??_C@_17LFPOIHDD@?$AAA?$AAp?$AAr@ 00000001400421b0     libucrtd:nlsdata.obj
 0002:000071b8       ??_C@_17PNNKMEED@?$AAM?$AAa?$AAy@ 00000001400421b8     libucrtd:nlsdata.obj
 0002:000071c0       ??_C@_17KCJGOCPB@?$AAJ?$AAu?$AAn@ 00000001400421c0     libucrtd:nlsdata.obj
 0002:000071c8       ??_C@_17IJPCKHK@?$AAJ?$AAu?$AAl@ 00000001400421c8     libucrtd:nlsdata.obj
 0002:000071d0       ??_C@_17ICPELBCN@?$AAA?$AAu?$AAg@ 00000001400421d0     libucrtd:nlsdata.obj
 0002:000071d8       ??_C@_17HCHCOKMG@?$AAS?$AAe?$AAp@ 00000001400421d8     libucrtd:nlsdata.obj
 0002:000071e0       ??_C@_17FNLKOI@?$AAO?$AAc?$AAt@ 00000001400421e0     libucrtd:nlsdata.obj
 0002:000071e8       ??_C@_17BBDMLCIG@?$AAN?$AAo?$AAv@ 00000001400421e8     libucrtd:nlsdata.obj
 0002:000071f0       ??_C@_17EGKACKIF@?$AAD?$AAe?$AAc@ 00000001400421f0     libucrtd:nlsdata.obj
 0002:000071f8       ??_C@_1BA@EFMEIEBA@?$AAJ?$AAa?$AAn?$AAu?$AAa?$AAr?$AAy@ 00000001400421f8     libucrtd:nlsdata.obj
 0002:00007208       ??_C@_1BC@JGDDFFAM@?$AAF?$AAe?$AAb?$AAr?$AAu?$AAa?$AAr?$AAy@ 0000000140042208     libucrtd:nlsdata.obj
 0002:00007220       ??_C@_1M@IKEENEDF@?$AAM?$AAa?$AAr?$AAc?$AAh@ 0000000140042220     libucrtd:nlsdata.obj
 0002:00007230       ??_C@_1M@GJNLMHFD@?$AAA?$AAp?$AAr?$AAi?$AAl@ 0000000140042230     libucrtd:nlsdata.obj
 0002:00007240       ??_C@_19EPFLPGAP@?$AAJ?$AAu?$AAn?$AAe@ 0000000140042240     libucrtd:nlsdata.obj
 0002:00007250       ??_C@_19BIFMLPCD@?$AAJ?$AAu?$AAl?$AAy@ 0000000140042250     libucrtd:nlsdata.obj
 0002:00007260       ??_C@_1O@PAHLKOAC@?$AAA?$AAu?$AAg?$AAu?$AAs?$AAt@ 0000000140042260     libucrtd:nlsdata.obj
 0002:00007270       ??_C@_1BE@DKAAMBJL@?$AAS?$AAe?$AAp?$AAt?$AAe?$AAm?$AAb?$AAe?$AAr@ 0000000140042270     libucrtd:nlsdata.obj
 0002:00007288       ??_C@_1BA@EPANDLNG@?$AAO?$AAc?$AAt?$AAo?$AAb?$AAe?$AAr@ 0000000140042288     libucrtd:nlsdata.obj
 0002:00007298       ??_C@_1BC@BGLIFPF@?$AAN?$AAo?$AAv?$AAe?$AAm?$AAb?$AAe?$AAr@ 0000000140042298     libucrtd:nlsdata.obj
 0002:000072b0       ??_C@_1BC@FEMKIFH@?$AAD?$AAe?$AAc?$AAe?$AAm?$AAb?$AAe?$AAr@ 00000001400422b0     libucrtd:nlsdata.obj
 0002:000072c4       ??_C@_15ODEHAHHF@?$AAA?$AAM@ 00000001400422c4     libucrtd:nlsdata.obj
 0002:000072cc       ??_C@_15CLMNNGEL@?$AAP?$AAM@ 00000001400422cc     libucrtd:nlsdata.obj
 0002:000072d8       ??_C@_1BC@IEBCMHCM@?$AAM?$AAM?$AA?1?$AAd?$AAd?$AA?1?$AAy?$AAy@ 00000001400422d8     libucrtd:nlsdata.obj
 0002:000072f0       ??_C@_1CI@KNAKOEBC@?$AAd?$AAd?$AAd?$AAd?$AA?0?$AA?5?$AAM?$AAM?$AAM?$AAM?$AA?5?$AAd?$AAd?$AA?0?$AA?5@ 00000001400422f0     libucrtd:nlsdata.obj
 0002:00007318       ??_C@_1BC@GDGBMEMK@?$AAH?$AAH?$AA?3?$AAm?$AAm?$AA?3?$AAs?$AAs@ 0000000140042318     libucrtd:nlsdata.obj
 0002:00007330       ??_C@_1M@BMHNFIME@?$AAe?$AAn?$AA?9?$AAU?$AAS@ 0000000140042330     libucrtd:nlsdata.obj
 0002:00007340       __newctype                 0000000140042340     libucrtd:ctype.obj
 0002:00007640       __newclmap                 0000000140042640     libucrtd:ctype.obj
 0002:000077c0       __newcumap                 00000001400427c0     libucrtd:ctype.obj
 0002:00007940       _wctype                    0000000140042940     libucrtd:ctype.obj
 0002:00007b48       ??_C@_1CI@JELMFMDH@?$AAc?$AA?5?$AA?$DO?$AA?$DN?$AA?5?$AA?9?$AA1?$AA?5?$AA?$CG?$AA?$CG?$AA?5?$AAc?$AA?5?$AA?$DM?$AA?$DN@ 0000000140042b48     libucrtd:isctype.obj
 0002:00007b70       ??_C@_1GG@KPBGDFHJ@?$AAm?$AAi?$AAn?$AAk?$AAe?$AAr?$AAn?$AAe?$AAl?$AA?2?$AAc?$AAr?$AAt?$AAs?$AA?2@ 0000000140042b70     libucrtd:isctype.obj
 0002:00007be0       ??_C@_1FE@KNPCCODH@?$AA?$CI?$AA?$CC?$AAC?$AAo?$AAr?$AAr?$AAu?$AAp?$AAt?$AAe?$AAd?$AA?5?$AAp?$AAo?$AAi@ 0000000140042be0     libucrtd:getstringtypea.obj
 0002:00007c40       ??_C@_1EM@GPJLADAA@?$AAV?$AAC?$AAC?$AAR?$AAT?$AA?2?$AAv?$AAc?$AAr?$AAu?$AAn?$AAt?$AAi?$AAm?$AAe@ 0000000140042c40     libucrtd:getstringtypea.obj
 0002:00007c90       ??_C@_0DJ@HCPJODDK@minkernel?2crts?2ucrt?2src?2appcrt?2@ 0000000140042c90     libucrtd:getstringtypea.obj
 0002:00007cd0       ??_C@_1BKC@NBNHJIDM@?$AA?$CI?$AAp?$AAt?$AAl?$AAo?$AAc?$AAi?$AA?9?$AA?$DO?$AAl?$AAc?$AA_?$AAc?$AAa?$AAt@ 0000000140042cd0     libucrtd:locale_refcounting.obj
 0002:00007e80       ??_C@_1HK@HCNMEOLA@?$AAm?$AAi?$AAn?$AAk?$AAe?$AAr?$AAn?$AAe?$AAl?$AA?2?$AAc?$AAr?$AAt?$AAs?$AA?2@ 0000000140042e80     libucrtd:locale_refcounting.obj
 0002:00007efc       ??_C@_15PJPFLCCM@?$AAu?$AAk@ 0000000140042efc     libucrtd:get_qualified_locale.obj
 0002:00007fb0       ??_C@_1EA@JGEFHKEI@?$AAa?$AAp?$AAi?$AA?9?$AAm?$AAs?$AA?9?$AAw?$AAi?$AAn?$AA?9?$AAc?$AAo?$AAr?$AAe@ 0000000140042fb0     libucrtd:winapi_thunks.obj
 0002:00007ff0       ??_C@_1DI@IJCEHOCB@?$AAa?$AAp?$AAi?$AA?9?$AAm?$AAs?$AA?9?$AAw?$AAi?$AAn?$AA?9?$AAc?$AAo?$AAr?$AAe@ 0000000140042ff0     libucrtd:winapi_thunks.obj
 0002:00008030       ??_C@_1EI@MPIAOHOC@?$AAa?$AAp?$AAi?$AA?9?$AAm?$AAs?$AA?9?$AAw?$AAi?$AAn?$AA?9?$AAc?$AAo?$AAr?$AAe@ 0000000140043030     libucrtd:winapi_thunks.obj
 0002:00008080       ??_C@_1FK@FPHCKFIE@?$AAa?$AAp?$AAi?$AA?9?$AAm?$AAs?$AA?9?$AAw?$AAi?$AAn?$AA?9?$AAc?$AAo?$AAr?$AAe@ 0000000140043080     libucrtd:winapi_thunks.obj
 0002:000080e0       ??_C@_1EM@DILCGIIO@?$AAa?$AAp?$AAi?$AA?9?$AAm?$AAs?$AA?9?$AAw?$AAi?$AAn?$AA?9?$AAc?$AAo?$AAr?$AAe@ 00000001400430e0     libucrtd:winapi_thunks.obj
 0002:00008130       ??_C@_1DM@LNCGDDPN@?$AAa?$AAp?$AAi?$AA?9?$AAm?$AAs?$AA?9?$AAw?$AAi?$AAn?$AA?9?$AAc?$AAo?$AAr?$AAe@ 0000000140043130     libucrtd:winapi_thunks.obj
 0002:00008170       ??_C@_1DO@FPAPJEMD@?$AAa?$AAp?$AAi?$AA?9?$AAm?$AAs?$AA?9?$AAw?$AAi?$AAn?$AA?9?$AAc?$AAo?$AAr?$AAe@ 0000000140043170     libucrtd:winapi_thunks.obj
 0002:000081b0       ??_C@_1DK@NDHNAHIO@?$AAa?$AAp?$AAi?$AA?9?$AAm?$AAs?$AA?9?$AAw?$AAi?$AAn?$AA?9?$AAc?$AAo?$AAr?$AAe@ 00000001400431b0     libucrtd:winapi_thunks.obj
 0002:000081f0       ??_C@_1DM@KGHDGBCM@?$AAa?$AAp?$AAi?$AA?9?$AAm?$AAs?$AA?9?$AAw?$AAi?$AAn?$AA?9?$AAc?$AAo?$AAr?$AAe@ 00000001400431f0     libucrtd:winapi_thunks.obj
 0002:00008230       ??_C@_1EO@IJIOEFOH@?$AAa?$AAp?$AAi?$AA?9?$AAm?$AAs?$AA?9?$AAw?$AAi?$AAn?$AA?9?$AAr?$AAt?$AAc?$AAo@ 0000000140043230     libucrtd:winapi_thunks.obj
 0002:00008280       ??_C@_1FG@HHGEKANL@?$AAa?$AAp?$AAi?$AA?9?$AAm?$AAs?$AA?9?$AAw?$AAi?$AAn?$AA?9?$AAs?$AAe?$AAc?$AAu@ 0000000140043280     libucrtd:winapi_thunks.obj
 0002:000082e0       ??_C@_1EG@DBIOJECG@?$AAe?$AAx?$AAt?$AA?9?$AAm?$AAs?$AA?9?$AAw?$AAi?$AAn?$AA?9?$AAn?$AAt?$AAu?$AAs@ 00000001400432e0     libucrtd:winapi_thunks.obj
 0002:00008330       ??_C@_1EO@FIHMJCLF@?$AAe?$AAx?$AAt?$AA?9?$AAm?$AAs?$AA?9?$AAw?$AAi?$AAn?$AA?9?$AAn?$AAt?$AAu?$AAs@ 0000000140043330     libucrtd:winapi_thunks.obj
 0002:00008380       ??_C@_1BC@DNHGCMLG@?$AAa?$AAd?$AAv?$AAa?$AAp?$AAi?$AA3?$AA2@ 0000000140043380     libucrtd:winapi_thunks.obj
 0002:00008398       ??_C@_1M@OAIMIKLP@?$AAn?$AAt?$AAd?$AAl?$AAl@ 0000000140043398     libucrtd:winapi_thunks.obj
 0002:000083b0       ??_C@_1EG@DPGNFKGC@?$AAa?$AAp?$AAi?$AA?9?$AAm?$AAs?$AA?9?$AAw?$AAi?$AAn?$AA?9?$AAa?$AAp?$AAp?$AAm@ 00000001400433b0     libucrtd:winapi_thunks.obj
 0002:000083f8       ??_C@_1O@BCCLBEOE@?$AAu?$AAs?$AAe?$AAr?$AA3?$AA2@ 00000001400433f8     libucrtd:winapi_thunks.obj
 0002:00008408       ??_C@_1BA@IAIFMGEF@?$AAe?$AAx?$AAt?$AA?9?$AAm?$AAs?$AA?9@ 0000000140043408     libucrtd:winapi_thunks.obj
 0002:00008420       ??_C@_1HE@OILMBOBA@?$AAm?$AAi?$AAn?$AAk?$AAe?$AAr?$AAn?$AAe?$AAl?$AA?2?$AAc?$AAr?$AAt?$AAs?$AA?2@ 0000000140043420     libucrtd:winapi_thunks.obj
 0002:00008498       ??_C@_0BA@FHFNEAED@AreFileApisANSI@ 0000000140043498     libucrtd:winapi_thunks.obj
 0002:000084d0       ??_C@_0BA@HNOPNCHB@GetActiveWindow@ 00000001400434d0     libucrtd:winapi_thunks.obj
 0002:000084e8       ??_C@_0BD@HHGDFDBJ@GetLastActivePopup@ 00000001400434e8     libucrtd:winapi_thunks.obj
 0002:00008508       ??_C@_0BI@DFKBFLJE@GetProcessWindowStation@ 0000000140043508     libucrtd:winapi_thunks.obj
 0002:00008528       ??_C@_0BK@DEKFELLI@GetUserObjectInformationW@ 0000000140043528     libucrtd:winapi_thunks.obj
 0002:00008558       ??_C@_0O@KKBNKAPF@LCMapStringEx@ 0000000140043558     libucrtd:winapi_thunks.obj
 0002:00008570       ??_C@_0BB@HBDEELFH@LocaleNameToLCID@ 0000000140043570     libucrtd:winapi_thunks.obj
 0002:00008590       ??_C@_0M@CHKKJDAI@MessageBoxA@ 0000000140043590     libucrtd:winapi_thunks.obj
 0002:000085a8       ??_C@_0M@DLDCCGNP@MessageBoxW@ 00000001400435a8     libucrtd:winapi_thunks.obj
 0002:000085b8       ??_C@_0CF@OJOFEIGO@AppPolicyGetProcessTerminationM@ 00000001400435b8     libucrtd:winapi_thunks.obj
 0002:000085e8       ??_C@_0CE@OICFMIKE@AppPolicyGetShowDeveloperDiagno@ 00000001400435e8     libucrtd:winapi_thunks.obj
 0002:00008610       ??_C@_0BL@ODDJNEDA@AppPolicyGetWindowingModel@ 0000000140043610     libucrtd:winapi_thunks.obj
 0002:00008630       ??_C@_1DA@NBILLKNO@?$AAl?$AAo?$AAc?$AAa?$AAl?$AA_?$AAa?$AAc?$AAt?$AAi?$AAo?$AAn?$AA?5?$AA?$CB?$AA?$DN@ 0000000140043630     libucrtd:signal.obj
 0002:00008660       ??_C@_1FO@CCGDPEKE@?$AAm?$AAi?$AAn?$AAk?$AAe?$AAr?$AAn?$AAe?$AAl?$AA?2?$AAc?$AAr?$AAt?$AAs?$AA?2@ 0000000140043660     libucrtd:signal.obj
 0002:000086c0       ??_C@_1M@DMJEIKHL@?$AAr?$AAa?$AAi?$AAs?$AAe@ 00000001400436c0     libucrtd:signal.obj
 0002:000086d0       ??_C@_1DO@MLNEDKGB@?$AA?$CI?$AA?$CC?$AAI?$AAn?$AAv?$AAa?$AAl?$AAi?$AAd?$AA?5?$AAs?$AAi?$AAg?$AAn?$AAa@ 00000001400436d0     libucrtd:signal.obj
 0002:00008710       ??_C@_1DC@OGOLMDEL@?$AAp?$AAu?$AAb?$AAl?$AAi?$AAc?$AA_?$AAs?$AAt?$AAr?$AAe?$AAa?$AAm?$AA?5?$AA?$CB@ 0000000140043710     libucrtd:_sftbuf.obj
 0002:00008750       ??_C@_1FO@GEKPJHID@?$AAm?$AAi?$AAn?$AAk?$AAe?$AAr?$AAn?$AAe?$AAl?$AA?2?$AAc?$AAr?$AAt?$AAs?$AA?2@ 0000000140043750     libucrtd:expand.obj
 0002:000087b0       ??_C@_1BK@JMCGJOCC@?$AA_?$AAe?$AAx?$AAp?$AAa?$AAn?$AAd?$AA_?$AAb?$AAa?$AAs?$AAe@ 00000001400437b0     libucrtd:expand.obj
 0002:000087d0       ??_C@_1BBC@DECGKMGJ@?$AA_?$AAl?$AAo?$AAc?$AA_?$AAu?$AAp?$AAd?$AAa?$AAt?$AAe?$AA?4?$AAG?$AAe?$AAt@ 00000001400437d0     libucrtd:mbtowc.obj
 0002:000088f0       ??_C@_1GE@CGIHMDEJ@?$AAm?$AAi?$AAn?$AAk?$AAe?$AAr?$AAn?$AAe?$AAl?$AA?2?$AAc?$AAr?$AAt?$AAs?$AA?2@ 00000001400438f0     libucrtd:mbtowc.obj
 0002:00008960       ??_C@_1HA@KNBGJAIN@?$AAU?$AAT?$AAF?$AA?9?$AA8?$AA?5?$AAi?$AAs?$AAn?$AA?8?$AAt?$AA?5?$AAs?$AAu?$AAp@ 0000000140043960     libucrtd:mbtowc.obj
 0002:000089d0       ??_C@_1BBA@EIIJPPL@?$AA_?$AAl?$AAo?$AAc?$AA_?$AAu?$AAp?$AAd?$AAa?$AAt?$AAe?$AA?4?$AAG?$AAe?$AAt@ 00000001400439d0     libucrtd:mbtowc.obj
 0002:00008ae0       ??_C@_1IE@CDCHDACI@?$AA_?$AAl?$AAo?$AAc?$AA_?$AAu?$AAp?$AAd?$AAa?$AAt?$AAe?$AA?4?$AAG?$AAe?$AAt@ 0000000140043ae0     libucrtd:mbtowc.obj
 0002:00008b68       ??_C@_1DK@NBNOAGKB@?$AAd?$AAe?$AAs?$AAt?$AAi?$AAn?$AAa?$AAt?$AAi?$AAo?$AAn?$AA_?$AAc?$AAo?$AAu@ 0000000140043b68     libucrtd:wctomb.obj
 0002:00008bb0       ??_C@_1GE@FCCEPHFG@?$AAm?$AAi?$AAn?$AAk?$AAe?$AAr?$AAn?$AAe?$AAl?$AA?2?$AAc?$AAr?$AAt?$AAs?$AA?2@ 0000000140043bb0     libucrtd:wctomb.obj
 0002:00008c18       ??_C@_1BI@IEADNOHF@?$AA_?$AAw?$AAc?$AAt?$AAo?$AAm?$AAb?$AA_?$AAs?$AA_?$AAl@ 0000000140043c18     libucrtd:wctomb.obj
 0002:00008c30       ??_C@_1CM@ENFEGCNE@?$AAd?$AAe?$AAs?$AAt?$AAi?$AAn?$AAa?$AAt?$AAi?$AAo?$AAn?$AA_?$AAc?$AAo?$AAu@ 0000000140043c30     libucrtd:wctomb.obj
 0002:00008d10       ??_C@_03OEIAHPBN@INF@      0000000140043d10     libucrtd:cvt.obj
 0002:00008d14       ??_C@_03OJHLLCGB@inf@      0000000140043d14     libucrtd:cvt.obj
 0002:00008d18       ??_C@_03LKNCIKJB@NAN@      0000000140043d18     libucrtd:cvt.obj
 0002:00008d1c       ??_C@_03LHCJEHON@nan@      0000000140043d1c     libucrtd:cvt.obj
 0002:00008d20       ??_C@_09OFJJIMPC@NAN?$CISNAN?$CJ@ 0000000140043d20     libucrtd:cvt.obj
 0002:00008d30       ??_C@_09IPFBKMDL@nan?$CIsnan?$CJ@ 0000000140043d30     libucrtd:cvt.obj
 0002:00008d40       ??_C@_08IKHNHAJ@NAN?$CIIND?$CJ@ 0000000140043d40     libucrtd:cvt.obj
 0002:00008d50       ??_C@_08OFCDMILK@nan?$CIind?$CJ@ 0000000140043d50     libucrtd:cvt.obj
 0002:00008d60       ??_C@_1FO@GKAKAPLI@?$AAm?$AAi?$AAn?$AAk?$AAe?$AAr?$AAn?$AAe?$AAl?$AA?2?$AAc?$AAr?$AAt?$AAs?$AA?2@ 0000000140043d60     libucrtd:cvt.obj
 0002:00008dc0       ??_C@_1DE@EHGIGIDK@?$AAf?$AAp?$AA_?$AAf?$AAo?$AAr?$AAm?$AAa?$AAt?$AA_?$AAn?$AAa?$AAn?$AA_?$AAo@ 0000000140043dc0     libucrtd:cvt.obj
 0002:00008e00       ??_C@_1LI@PCMLJPCO@?$AAs?$AAt?$AAr?$AAc?$AAp?$AAy?$AA_?$AAs?$AA?$CI?$AA?5?$AAr?$AAe?$AAs?$AAu?$AAl@ 0000000140043e00     libucrtd:cvt.obj
 0002:00008ec0       ??_C@_1KO@LJHOFBCD@?$AAr?$AAe?$AAs?$AAu?$AAl?$AAt?$AA_?$AAb?$AAu?$AAf?$AAf?$AAe?$AAr?$AA_?$AAc@ 0000000140043ec0     libucrtd:cvt.obj
 0002:00008f70       ??_C@_1CK@BOLHOMFO@?$AAf?$AAp?$AA_?$AAf?$AAo?$AAr?$AAm?$AAa?$AAt?$AA_?$AAe?$AA_?$AAi?$AAn?$AAt@ 0000000140043f70     libucrtd:cvt.obj
 0002:00008fa0       ??_C@_1BBE@LHDOMEDC@?$AAs?$AAt?$AAr?$AAc?$AAp?$AAy?$AA_?$AAs?$AA?$CI?$AA?5?$AAp?$AA?0?$AA?5?$AAr?$AAe@ 0000000140043fa0     libucrtd:cvt.obj
 0002:000090b4       ??_C@_05KLBDPFGC@e?$CL000@ 00000001400440b4     libucrtd:cvt.obj
 0002:000090c0       ??_C@_1IC@FILKPBAB@?$AAr?$AAe?$AAs?$AAu?$AAl?$AAt?$AA_?$AAb?$AAu?$AAf?$AAf?$AAe?$AAr?$AA_?$AAc@ 00000001400440c0     libucrtd:cvt.obj
 0002:00009148       ??_C@_1BI@PNBDLNBB@?$AAf?$AAp?$AA_?$AAf?$AAo?$AAr?$AAm?$AAa?$AAt?$AA_?$AAa@ 0000000140044148     libucrtd:cvt.obj
 0002:00009160       ??_C@_1DC@MGKAFPFD@?$AAr?$AAe?$AAs?$AAu?$AAl?$AAt?$AA_?$AAb?$AAu?$AAf?$AAf?$AAe?$AAr?$AA?5?$AA?$CB@ 0000000140044160     libucrtd:cvt.obj
 0002:00009198       ??_C@_1CC@LDAHJAKK@?$AA_?$AA_?$AAa?$AAc?$AAr?$AAt?$AA_?$AAf?$AAp?$AA_?$AAf?$AAo?$AAr?$AAm?$AAa@ 0000000140044198     libucrtd:cvt.obj
 0002:000091c0       ??_C@_1DA@NMLJJOCO@?$AAr?$AAe?$AAs?$AAu?$AAl?$AAt?$AA_?$AAb?$AAu?$AAf?$AAf?$AAe?$AAr?$AA_?$AAc@ 00000001400441c0     libucrtd:cvt.obj
 0002:000091f0       ??_C@_1DE@MNOPBCOK@?$AAs?$AAc?$AAr?$AAa?$AAt?$AAc?$AAh?$AA_?$AAb?$AAu?$AAf?$AAf?$AAe?$AAr?$AA?5@ 00000001400441f0     libucrtd:cvt.obj
 0002:00009228       ??_C@_1DC@CKBKNFKH@?$AAs?$AAc?$AAr?$AAa?$AAt?$AAc?$AAh?$AA_?$AAb?$AAu?$AAf?$AAf?$AAe?$AAr?$AA_@ 0000000140044228     libucrtd:cvt.obj
 0002:00009260       ??_C@_1EI@JAHBOGIM@?$AA?$CI?$AA?$CC?$AAU?$AAn?$AAs?$AAu?$AAp?$AAp?$AAo?$AAr?$AAt?$AAe?$AAd?$AA?5?$AAf@ 0000000140044260     libucrtd:cvt.obj
 0002:000092a8       ??_C@_1BO@MHPFFFJJ@?$AAs?$AAt?$AAr?$AAe?$AAa?$AAm?$AA?4?$AAv?$AAa?$AAl?$AAi?$AAd?$AA?$CI?$AA?$CJ@ 00000001400442a8     libucrtd:fileno.obj
 0002:000092d0       ??_C@_1GA@KCAHHNGP@?$AAm?$AAi?$AAn?$AAk?$AAe?$AAr?$AAn?$AAe?$AAl?$AA?2?$AAc?$AAr?$AAt?$AAs?$AA?2@ 00000001400442d0     libucrtd:fileno.obj
 0002:00009330       ??_C@_1BA@JGHIEKKM@?$AA_?$AAf?$AAi?$AAl?$AAe?$AAn?$AAo@ 0000000140044330     libucrtd:fileno.obj
 0002:00009340       ??_C@_0CP@GDJHIDC@minkernel?2crts?2ucrt?2src?2appcrt?2@ 0000000140044340     libucrtd:_file.obj
 0002:00009370       ??_C@_1GA@LFAOKOOP@?$AAm?$AAi?$AAn?$AAk?$AAe?$AAr?$AAn?$AAe?$AAl?$AA?2?$AAc?$AAr?$AAt?$AAs?$AA?2@ 0000000140044370     libucrtd:dbgrptt.obj
 0002:000093d0       ??_C@_1CA@KHJHLKA@?$AA_?$AAV?$AAC?$AAr?$AAt?$AAD?$AAb?$AAg?$AAR?$AAe?$AAp?$AAo?$AAr?$AAt?$AAA@ 00000001400443d0     libucrtd:dbgrptt.obj
 0002:000093f0       ??_C@_1FA@JPHJBHEM@?$AA_?$AAi?$AAt?$AAo?$AAa?$AA_?$AAs?$AA?$CI?$AAn?$AAL?$AAi?$AAn?$AAe?$AA?0?$AA?5@ 00000001400443f0     libucrtd:dbgrptt.obj
 0002:00009440       ??_C@_0CG@BNGLOCEO@Second?5Chance?5Assertion?5Failed?3@ 0000000140044440     libucrtd:dbgrptt.obj
 0002:00009468       ??_C@_0P@DFJNDPOP@?$DMfile?5unknown?$DO@ 0000000140044468     libucrtd:dbgrptt.obj
 0002:00009478       ??_C@_07BHGABMGB@?0?5Line?5@ 0000000140044478     libucrtd:dbgrptt.obj
 0002:00009480       ??_C@_01EEMJAFIK@?6@       0000000140044480     libucrtd:dbgrptt.obj
 0002:00009490       ??_C@_1JI@GAALPGBM@?$AAs?$AAt?$AAr?$AAc?$AAp?$AAy?$AA_?$AAs?$AA?$CI?$AAs?$AAz?$AAU?$AAs?$AAe?$AAr@ 0000000140044490     libucrtd:dbgrptt.obj
 0002:00009528       ??_C@_0CL@EACFGMNB@_CrtDbgReport?3?5String?5too?5long?5@ 0000000140044528     libucrtd:dbgrptt.obj
 0002:00009560       ??_C@_1KK@GIGAEDMO@?$AAs?$AAt?$AAr?$AAc?$AAp?$AAy?$AA_?$AAs?$AA?$CI?$AAs?$AAz?$AAL?$AAi?$AAn?$AAe@ 0000000140044560     libucrtd:dbgrptt.obj
 0002:00009610       ??_C@_0BD@CAENFOHP@Assertion?5failed?3?5@ 0000000140044610     libucrtd:dbgrptt.obj
 0002:00009628       ??_C@_0BC@LAIDCHCH@Assertion?5failed?$CB@ 0000000140044628     libucrtd:dbgrptt.obj
 0002:00009640       ??_C@_1FK@NPGBPOFO@?$AAs?$AAt?$AAr?$AAc?$AAa?$AAt?$AA_?$AAs?$AA?$CI?$AAs?$AAz?$AAL?$AAi?$AAn?$AAe@ 0000000140044640     libucrtd:dbgrptt.obj
 0002:000096a0       ??_C@_1EI@CACDLAFK@?$AAs?$AAt?$AAr?$AAc?$AAa?$AAt?$AA_?$AAs?$AA?$CI?$AAs?$AAz?$AAL?$AAi?$AAn?$AAe@ 00000001400446a0     libucrtd:dbgrptt.obj
 0002:000096e8       ??_C@_01LIIJDEN@?$AN@      00000001400446e8     libucrtd:dbgrptt.obj
 0002:000096f0       ??_C@_1EI@LDHJEDO@?$AAs?$AAt?$AAr?$AAc?$AAa?$AAt?$AA_?$AAs?$AA?$CI?$AAs?$AAz?$AAL?$AAi?$AAn?$AAe@ 00000001400446f0     libucrtd:dbgrptt.obj
 0002:00009738       ??_C@_0M@IPILFDFN@?$CFs?$CI?$CFd?$CJ?5?3?5?$CFs@ 0000000140044738     libucrtd:dbgrptt.obj
 0002:00009750       ??_C@_1JG@CPKCIOEE@?$AAs?$AAt?$AAr?$AAc?$AAp?$AAy?$AA_?$AAs?$AA?$CI?$AAs?$AAz?$AAO?$AAu?$AAt?$AAM@ 0000000140044750     libucrtd:dbgrptt.obj
 0002:000097f0       ??_C@_1FI@IBIOIHEG@?$AAs?$AAt?$AAr?$AAc?$AAp?$AAy?$AA_?$AAs?$AA?$CI?$AAs?$AAz?$AAO?$AAu?$AAt?$AAM@ 00000001400447f0     libucrtd:dbgrptt.obj
 0002:00009850       ??_C@_1IM@OOKIFKOH@?$AAe?$AA?5?$AA?$DN?$AA?5?$AAm?$AAb?$AAs?$AAt?$AAo?$AAw?$AAc?$AAs?$AA_?$AAs?$AA?$CI@ 0000000140044850     libucrtd:dbgrptt.obj
 0002:000098e0       ??_C@_1MC@IGEECMDB@?$AAw?$AAc?$AAs?$AAc?$AAp?$AAy?$AA_?$AAs?$AA?$CI?$AAs?$AAz?$AAO?$AAu?$AAt?$AAM@ 00000001400448e0     libucrtd:dbgrptt.obj
 0002:000099b0       ??_C@_1HO@PJOFIKFE@?$AA_?$AAC?$AAr?$AAt?$AAD?$AAb?$AAg?$AAR?$AAe?$AAp?$AAo?$AAr?$AAt?$AA?3?$AA?5@ 00000001400449b0     libucrtd:dbgrptt.obj
 0002:00009a30       ??_C@_1CA@HPALHDOD@?$AA_?$AAV?$AAC?$AAr?$AAt?$AAD?$AAb?$AAg?$AAR?$AAe?$AAp?$AAo?$AAr?$AAt?$AAW@ 0000000140044a30     libucrtd:dbgrptt.obj
 0002:00009a50       ??_C@_1FA@CNLLOMHI@?$AA_?$AAi?$AAt?$AAo?$AAw?$AA_?$AAs?$AA?$CI?$AAn?$AAL?$AAi?$AAn?$AAe?$AA?0?$AA?5@ 0000000140044a50     libucrtd:dbgrptt.obj
 0002:00009aa0       ??_C@_1EM@MJFLEDMB@?$AAS?$AAe?$AAc?$AAo?$AAn?$AAd?$AA?5?$AAC?$AAh?$AAa?$AAn?$AAc?$AAe?$AA?5?$AAA@ 0000000140044aa0     libucrtd:dbgrptt.obj
 0002:00009af0       ??_C@_1BO@OCHMLCAG@?$AA?$DM?$AAf?$AAi?$AAl?$AAe?$AA?5?$AAu?$AAn?$AAk?$AAn?$AAo?$AAw?$AAn?$AA?$DO@ 0000000140044af0     libucrtd:dbgrptt.obj
 0002:00009b10       ??_C@_1BA@ELMMDCFC@?$AA?0?$AA?5?$AAL?$AAi?$AAn?$AAe?$AA?5@ 0000000140044b10     libucrtd:dbgrptt.obj
 0002:00009b20       ??_C@_13LBAGMAIH@?$AA?6@   0000000140044b20     libucrtd:dbgrptt.obj
 0002:00009b30       ??_C@_1JK@KHFABAEO@?$AAw?$AAc?$AAs?$AAc?$AAp?$AAy?$AA_?$AAs?$AA?$CI?$AAs?$AAz?$AAU?$AAs?$AAe?$AAr@ 0000000140044b30     libucrtd:dbgrptt.obj
 0002:00009bd0       ??_C@_1KO@DGAHENCH@?$AAw?$AAc?$AAs?$AAc?$AAp?$AAy?$AA_?$AAs?$AA?$CI?$AAs?$AAz?$AAL?$AAi?$AAn?$AAe@ 0000000140044bd0     libucrtd:dbgrptt.obj
 0002:00009c80       ??_C@_1CG@FFFGGODN@?$AAA?$AAs?$AAs?$AAe?$AAr?$AAt?$AAi?$AAo?$AAn?$AA?5?$AAf?$AAa?$AAi?$AAl?$AAe@ 0000000140044c80     libucrtd:dbgrptt.obj
 0002:00009ca8       ??_C@_1CE@OJBNHDMO@?$AAA?$AAs?$AAs?$AAe?$AAr?$AAt?$AAi?$AAo?$AAn?$AA?5?$AAf?$AAa?$AAi?$AAl?$AAe@ 0000000140044ca8     libucrtd:dbgrptt.obj
 0002:00009cd0       ??_C@_1FK@HPADHBBD@?$AAw?$AAc?$AAs?$AAc?$AAa?$AAt?$AA_?$AAs?$AA?$CI?$AAs?$AAz?$AAL?$AAi?$AAn?$AAe@ 0000000140044cd0     libucrtd:dbgrptt.obj
 0002:00009d30       ??_C@_1EK@NMDFGHMF@?$AAw?$AAc?$AAs?$AAc?$AAa?$AAt?$AA_?$AAs?$AA?$CI?$AAs?$AAz?$AAL?$AAi?$AAn?$AAe@ 0000000140044d30     libucrtd:dbgrptt.obj
 0002:00009d7c       ??_C@_13CMNBPIDO@?$AA?$AN@ 0000000140044d7c     libucrtd:dbgrptt.obj
 0002:00009d80       ??_C@_1EK@PHCBEDKB@?$AAw?$AAc?$AAs?$AAc?$AAa?$AAt?$AA_?$AAs?$AA?$CI?$AAs?$AAz?$AAL?$AAi?$AAn?$AAe@ 0000000140044d80     libucrtd:dbgrptt.obj
 0002:00009dd0       ??_C@_1BM@GIBPMLNL@?$AA?$CF?$AAl?$AAs?$AA?$CI?$AA?$CF?$AAd?$AA?$CJ?$AA?5?$AA?3?$AA?5?$AA?$CF?$AAl?$AAs@ 0000000140044dd0     libucrtd:dbgrptt.obj
 0002:00009df0       ??_C@_1JI@EACPGHID@?$AAw?$AAc?$AAs?$AAc?$AAp?$AAy?$AA_?$AAs?$AA?$CI?$AAs?$AAz?$AAO?$AAu?$AAt?$AAM@ 0000000140044df0     libucrtd:dbgrptt.obj
 0002:00009e90       ??_C@_1FI@DBAIJPJE@?$AAw?$AAc?$AAs?$AAc?$AAp?$AAy?$AA_?$AAs?$AA?$CI?$AAs?$AAz?$AAO?$AAu?$AAt?$AAM@ 0000000140044e90     libucrtd:dbgrptt.obj
 0002:00009ef0       ??_C@_1IK@LEBMBAP@?$AAw?$AAc?$AAs?$AAt?$AAo?$AAm?$AAb?$AAs?$AA_?$AAs?$AA?$CI?$AAn?$AAu?$AAl?$AAl@ 0000000140044ef0     libucrtd:dbgrptt.obj
 0002:00009f80       ??_C@_1MA@LBAMNNOB@?$AAs?$AAt?$AAr?$AAc?$AAp?$AAy?$AA_?$AAs?$AA?$CI?$AAs?$AAz?$AAO?$AAu?$AAt?$AAM@ 0000000140044f80     libucrtd:dbgrptt.obj
 0002:0000a040       ??_C@_0DP@GNPEPHJD@_CrtDbgReport?3?5String?5too?5long?5@ 0000000140045040     libucrtd:dbgrptt.obj
 0002:0000a080       ??_C@_1IE@CPGKIAGP@?$AAw?$AAc?$AAs?$AAt?$AAo?$AAm?$AAb?$AAs?$AA_?$AAs?$AA?$CI?$AA?$CG?$AAr?$AAe?$AAt@ 0000000140045080     libucrtd:dbgrptt.obj
 0002:0000a130       ??_C@_1DI@OOEEHOBJ@?$AAb?$AAa?$AAs?$AAe?$AA?5?$AA?$CB?$AA?$DN?$AA?5?$AAn?$AAu?$AAl?$AAl?$AAp?$AAt?$AAr@ 0000000140045130     libucrtd:qsort.obj
 0002:0000a170       ??_C@_1GA@KPPCKKGE@?$AAm?$AAi?$AAn?$AAk?$AAe?$AAr?$AAn?$AAe?$AAl?$AA?2?$AAc?$AAr?$AAt?$AAs?$AA?2@ 0000000140045170     libucrtd:qsort.obj
 0002:0000a1d0       ??_C@_1M@INMHODIG@?$AAq?$AAs?$AAo?$AAr?$AAt@ 00000001400451d0     libucrtd:qsort.obj
 0002:0000a1e0       ??_C@_1BE@NJBEBBME@?$AAw?$AAi?$AAd?$AAt?$AAh?$AA?5?$AA?$DO?$AA?5?$AA0@ 00000001400451e0     libucrtd:qsort.obj
 0002:0000a1f8       ??_C@_1CA@LIDFOMIN@?$AAc?$AAo?$AAm?$AAp?$AA?5?$AA?$CB?$AA?$DN?$AA?5?$AAn?$AAu?$AAl?$AAl?$AAp?$AAt?$AAr@ 00000001400451f8     libucrtd:qsort.obj
 0002:0000a218       ??_C@_1CE@BLLJFLOH@?$AAs?$AAt?$AAr?$AAi?$AAn?$AAg?$AA?5?$AA?$CB?$AA?$DN?$AA?5?$AAn?$AAu?$AAl?$AAl?$AAp@ 0000000140045218     libucrtd:mbsdec.obj
 0002:0000a240       ??_C@_1GO@DDOMFNGF@?$AAm?$AAi?$AAn?$AAk?$AAe?$AAr?$AAn?$AAe?$AAl?$AA?2?$AAc?$AAr?$AAt?$AAs?$AA?2@ 0000000140045240     libucrtd:mbsdec.obj
 0002:0000a2b0       ??_C@_1BE@KLNCOLCD@?$AA_?$AAm?$AAb?$AAs?$AAd?$AAe?$AAc?$AA_?$AAl@ 00000001400452b0     libucrtd:mbsdec.obj
 0002:0000a2c8       ??_C@_1CG@CMGPGAOD@?$AAc?$AAu?$AAr?$AAr?$AAe?$AAn?$AAt?$AA?5?$AA?$CB?$AA?$DN?$AA?5?$AAn?$AAu?$AAl?$AAl@ 00000001400452c8     libucrtd:mbsdec.obj
 0002:0000a2f0       ??_C@_0DH@IKPCBLP@minkernel?2crts?2ucrt?2src?2appcrt?2@ 00000001400452f0     libucrtd:lcmapstringa.obj
 0002:0000a328       ??_C@_1CE@MCCHPLBM@?$AAb?$AAu?$AAf?$AAf?$AAe?$AAr?$AA?5?$AA?$CB?$AA?$DN?$AA?5?$AAn?$AAu?$AAl?$AAl?$AAp@ 0000000140045328     libucrtd:xtoa.obj
 0002:0000a350       ??_C@_1GA@HBEFGMHK@?$AAm?$AAi?$AAn?$AAk?$AAe?$AAr?$AAn?$AAe?$AAl?$AA?2?$AAc?$AAr?$AAt?$AAs?$AA?2@ 0000000140045350     libucrtd:xtoa.obj
 0002:0000a3b0       ??_C@_1BM@HMPEMLNP@?$AAc?$AAo?$AAm?$AAm?$AAo?$AAn?$AA_?$AAx?$AAt?$AAo?$AAx?$AA_?$AAs@ 00000001400453b0     libucrtd:xtoa.obj
 0002:0000a3d0       ??_C@_1CC@ONIJBMJF@?$AAb?$AAu?$AAf?$AAf?$AAe?$AAr?$AA_?$AAc?$AAo?$AAu?$AAn?$AAt?$AA?5?$AA?$DO?$AA?5@ 00000001400453d0     libucrtd:xtoa.obj
 0002:0000a400       ??_C@_1HA@JFIOFNKD@?$AAb?$AAu?$AAf?$AAf?$AAe?$AAr?$AA_?$AAc?$AAo?$AAu?$AAn?$AAt?$AA?5?$AA?$DO?$AA?5@ 0000000140045400     libucrtd:xtoa.obj
 0002:0000a470       ??_C@_1DE@PCJGDBBD@?$AA2?$AA?5?$AA?$DM?$AA?$DN?$AA?5?$AAr?$AAa?$AAd?$AAi?$AAx?$AA?5?$AA?$CG?$AA?$CG?$AA?5?$AAr@ 0000000140045470     libucrtd:xtoa.obj
 0002:0000a4a8       ??_C@_1CM@LONILNIJ@?$AAl?$AAe?$AAn?$AAg?$AAt?$AAh?$AA?5?$AA?$DM?$AA?5?$AAb?$AAu?$AAf?$AAf?$AAe?$AAr@ 00000001400454a8     libucrtd:xtoa.obj
 0002:0000a4d8       ??_C@_1BI@OLPLFKOE@?$AAc?$AAo?$AAm?$AAm?$AAo?$AAn?$AA_?$AAx?$AAt?$AAo?$AAx@ 00000001400454d8     libucrtd:xtoa.obj
 0002:0000b330       ??_C@_15EMKDOKLE@?$AAa?$AAr@ 0000000140046330     libucrtd:lcidtoname_downlevel.obj
 0002:0000b338       ??_C@_15KNPADPLH@?$AAb?$AAg@ 0000000140046338     libucrtd:lcidtoname_downlevel.obj
 0002:0000b340       ??_C@_15EDMHLDMO@?$AAc?$AAa@ 0000000140046340     libucrtd:lcidtoname_downlevel.obj
 0002:0000b348       ??_C@_1O@BPEAJADD@?$AAz?$AAh?$AA?9?$AAC?$AAH?$AAS@ 0000000140046348     libucrtd:lcidtoname_downlevel.obj
 0002:0000b358       ??_C@_15LJNHCMNK@?$AAc?$AAs@ 0000000140046358     libucrtd:lcidtoname_downlevel.obj
 0002:0000b360       ??_C@_15FOMCIDHG@?$AAd?$AAa@ 0000000140046360     libucrtd:lcidtoname_downlevel.obj
 0002:0000b368       ??_C@_15NBKABECB@?$AAd?$AAe@ 0000000140046368     libucrtd:lcidtoname_downlevel.obj
 0002:0000b370       ??_C@_15GHPEIIAO@?$AAe?$AAl@ 0000000140046370     libucrtd:lcidtoname_downlevel.obj
 0002:0000b378       ??_C@_15MNPNEAIF@?$AAe?$AAn@ 0000000140046378     libucrtd:lcidtoname_downlevel.obj
 0002:0000b380       ??_C@_15GPIOMPMH@?$AAe?$AAs@ 0000000140046380     libucrtd:lcidtoname_downlevel.obj
 0002:0000b388       ??_C@_15NGLOAKJC@?$AAf?$AAi@ 0000000140046388     libucrtd:lcidtoname_downlevel.obj
 0002:0000b390       ??_C@_15FBKGNKAM@?$AAf?$AAr@ 0000000140046390     libucrtd:lcidtoname_downlevel.obj
 0002:0000b398       ??_C@_15KGGCNEFK@?$AAh?$AAe@ 0000000140046398     libucrtd:lcidtoname_downlevel.obj
 0002:0000b3a0       ??_C@_15PGHLIDMF@?$AAh?$AAu@ 00000001400463a0     libucrtd:lcidtoname_downlevel.obj
 0002:0000b3a8       ??_C@_15BIEMAPLM@?$AAi?$AAs@ 00000001400463a8     libucrtd:lcidtoname_downlevel.obj
 0002:0000b3b0       ??_C@_15IFJLDHAF@?$AAi?$AAt@ 00000001400463b0     libucrtd:lcidtoname_downlevel.obj
 0002:0000b3b8       ??_C@_15GEMIOCAG@?$AAj?$AAa@ 00000001400463b8     libucrtd:lcidtoname_downlevel.obj
 0002:0000b3c0       ??_C@_15EPELEGJA@?$AAk?$AAo@ 00000001400463c0     libucrtd:lcidtoname_downlevel.obj
 0002:0000b3c8       ??_C@_15NDDHIMN@?$AAn?$AAl@ 00000001400463c8     libucrtd:lcidtoname_downlevel.obj
 0002:0000b3d0       ??_C@_15BPIGNHCD@?$AAn?$AAo@ 00000001400463d0     libucrtd:lcidtoname_downlevel.obj
 0002:0000b3d8       ??_C@_15DEOPBLCG@?$AAp?$AAl@ 00000001400463d8     libucrtd:lcidtoname_downlevel.obj
 0002:0000b3e0       ??_C@_15KBECGEFG@?$AAp?$AAt@ 00000001400463e0     libucrtd:lcidtoname_downlevel.obj
 0002:0000b3e8       ??_C@_15GLJCBFMD@?$AAr?$AAo@ 00000001400463e8     libucrtd:lcidtoname_downlevel.obj
 0002:0000b3f0       ??_C@_15FEDGKCDI@?$AAr?$AAu@ 00000001400463f0     libucrtd:lcidtoname_downlevel.obj
 0002:0000b3f8       ??_C@_15GLKMLLHM@?$AAh?$AAr@ 00000001400463f8     libucrtd:lcidtoname_downlevel.obj
 0002:0000b400       ??_C@_15CPKMFBDB@?$AAs?$AAk@ 0000000140046400     libucrtd:lcidtoname_downlevel.obj
 0002:0000b408       ??_C@_15BAAIOGMK@?$AAs?$AAq@ 0000000140046408     libucrtd:lcidtoname_downlevel.obj
 0002:0000b410       ??_C@_15INNPNOHD@?$AAs?$AAv@ 0000000140046410     libucrtd:lcidtoname_downlevel.obj
 0002:0000b418       ??_C@_15CABMMOGH@?$AAt?$AAh@ 0000000140046418     libucrtd:lcidtoname_downlevel.obj
 0002:0000b420       ??_C@_15BPLIHJJM@?$AAt?$AAr@ 0000000140046420     libucrtd:lcidtoname_downlevel.obj
 0002:0000b428       ??_C@_15NEOEKKDJ@?$AAu?$AAr@ 0000000140046428     libucrtd:lcidtoname_downlevel.obj
 0002:0000b430       ??_C@_15NFICGAJK@?$AAi?$AAd@ 0000000140046430     libucrtd:lcidtoname_downlevel.obj
 0002:0000b438       ??_C@_15HPJPHDM@?$AAb?$AAe@ 0000000140046438     libucrtd:lcidtoname_downlevel.obj
 0002:0000b440       ??_C@_15LCHLGJII@?$AAs?$AAl@ 0000000140046440     libucrtd:lcidtoname_downlevel.obj
 0002:0000b448       ??_C@_15PCFJPHHO@?$AAe?$AAt@ 0000000140046448     libucrtd:lcidtoname_downlevel.obj
 0002:0000b450       ??_C@_15HPFPGODN@?$AAl?$AAv@ 0000000140046450     libucrtd:lcidtoname_downlevel.obj
 0002:0000b458       ??_C@_15NFFGKGLG@?$AAl?$AAt@ 0000000140046458     libucrtd:lcidtoname_downlevel.obj
 0002:0000b460       ??_C@_15BDAKCCHN@?$AAf?$AAa@ 0000000140046460     libucrtd:lcidtoname_downlevel.obj
 0002:0000b468       ??_C@_15NFGIAIAJ@?$AAv?$AAi@ 0000000140046468     libucrtd:lcidtoname_downlevel.obj
 0002:0000b470       ??_C@_15LMKNDMHN@?$AAh?$AAy@ 0000000140046470     libucrtd:lcidtoname_downlevel.obj
 0002:0000b478       ??_C@_15IJBHMCFL@?$AAa?$AAz@ 0000000140046478     libucrtd:lcidtoname_downlevel.obj
 0002:0000b480       ??_C@_15EKOFJABL@?$AAe?$AAu@ 0000000140046480     libucrtd:lcidtoname_downlevel.obj
 0002:0000b488       ??_C@_15BGHADCNK@?$AAm?$AAk@ 0000000140046488     libucrtd:lcidtoname_downlevel.obj
 0002:0000b490       ??_C@_15JDNICKHM@?$AAa?$AAf@ 0000000140046490     libucrtd:lcidtoname_downlevel.obj
 0002:0000b498       ??_C@_15KPJEDBKD@?$AAk?$AAa@ 0000000140046498     libucrtd:lcidtoname_downlevel.obj
 0002:0000b4a0       ??_C@_15PDNFFFEO@?$AAf?$AAo@ 00000001400464a0     libucrtd:lcidtoname_downlevel.obj
 0002:0000b4a8       ??_C@_15OMLEGLOC@?$AAh?$AAi@ 00000001400464a8     libucrtd:lcidtoname_downlevel.obj
 0002:0000b4b0       ??_C@_15IDNNENKK@?$AAm?$AAs@ 00000001400464b0     libucrtd:lcidtoname_downlevel.obj
 0002:0000b4b8       ??_C@_15MACJNBMH@?$AAk?$AAk@ 00000001400464b8     libucrtd:lcidtoname_downlevel.obj
 0002:0000b4c0       ??_C@_15DKDJEOND@?$AAk?$AAy@ 00000001400464c0     libucrtd:lcidtoname_downlevel.obj
 0002:0000b4c8       ??_C@_15DFGDLJBG@?$AAs?$AAw@ 00000001400464c8     libucrtd:lcidtoname_downlevel.obj
 0002:0000b4d0       ??_C@_15BBFAICNG@?$AAu?$AAz@ 00000001400464d0     libucrtd:lcidtoname_downlevel.obj
 0002:0000b4d8       ??_C@_15DKNDCGEA@?$AAt?$AAt@ 00000001400464d8     libucrtd:lcidtoname_downlevel.obj
 0002:0000b4e0       ??_C@_15MGIFMDPL@?$AAp?$AAa@ 00000001400464e0     libucrtd:lcidtoname_downlevel.obj
 0002:0000b4e8       ??_C@_15HCNDBBA@?$AAg?$AAu@ 00000001400464e8     libucrtd:lcidtoname_downlevel.obj
 0002:0000b4f0       ??_C@_15FNBEIBON@?$AAt?$AAa@ 00000001400464f0     libucrtd:lcidtoname_downlevel.obj
 0002:0000b4f8       ??_C@_15NCHGBGLK@?$AAt?$AAe@ 00000001400464f8     libucrtd:lcidtoname_downlevel.obj
 0002:0000b500       ??_C@_15PHPHCBPF@?$AAk?$AAn@ 0000000140046500     libucrtd:lcidtoname_downlevel.obj
 0002:0000b508       ??_C@_15DLGBCKMP@?$AAm?$AAr@ 0000000140046508     libucrtd:lcidtoname_downlevel.obj
 0002:0000b510       ??_C@_15EABBLBFF@?$AAs?$AAa@ 0000000140046510     libucrtd:lcidtoname_downlevel.obj
 0002:0000b518       ??_C@_15CBKOMCOI@?$AAm?$AAn@ 0000000140046518     libucrtd:lcidtoname_downlevel.obj
 0002:0000b520       ??_C@_15CKDMCJAF@?$AAg?$AAl@ 0000000140046520     libucrtd:lcidtoname_downlevel.obj
 0002:0000b528       ??_C@_17CNJFBPG@?$AAk?$AAo?$AAk@ 0000000140046528     libucrtd:lcidtoname_downlevel.obj
 0002:0000b530       ??_C@_17FFBJICPL@?$AAs?$AAy?$AAr@ 0000000140046530     libucrtd:lcidtoname_downlevel.obj
 0002:0000b538       ??_C@_17KPNDCPAF@?$AAd?$AAi?$AAv@ 0000000140046538     libucrtd:lcidtoname_downlevel.obj
 0002:0000b540       ??_C@_1M@OKAHONE@?$AAa?$AAr?$AA?9?$AAS?$AAA@ 0000000140046540     libucrtd:lcidtoname_downlevel.obj
 0002:0000b550       ??_C@_1M@FFFIGIGK@?$AAb?$AAg?$AA?9?$AAB?$AAG@ 0000000140046550     libucrtd:lcidtoname_downlevel.obj
 0002:0000b560       ??_C@_1M@BJNKEDC@?$AAc?$AAa?$AA?9?$AAE?$AAS@ 0000000140046560     libucrtd:lcidtoname_downlevel.obj
 0002:0000b570       ??_C@_1M@IJJHFJHA@?$AAc?$AAs?$AA?9?$AAC?$AAZ@ 0000000140046570     libucrtd:lcidtoname_downlevel.obj
 0002:0000b580       ??_C@_1M@CLPEOBGI@?$AAd?$AAa?$AA?9?$AAD?$AAK@ 0000000140046580     libucrtd:lcidtoname_downlevel.obj
 0002:0000b590       ??_C@_1M@MCMADGCB@?$AAd?$AAe?$AA?9?$AAD?$AAE@ 0000000140046590     libucrtd:lcidtoname_downlevel.obj
 0002:0000b5a0       ??_C@_1M@OOCKEMAM@?$AAe?$AAl?$AA?9?$AAG?$AAR@ 00000001400465a0     libucrtd:lcidtoname_downlevel.obj
 0002:0000b5b0       ??_C@_1M@DDNJFGID@?$AAf?$AAi?$AA?9?$AAF?$AAI@ 00000001400465b0     libucrtd:lcidtoname_downlevel.obj
 0002:0000b5c0       ??_C@_1M@GLIPPMAC@?$AAf?$AAr?$AA?9?$AAF?$AAR@ 00000001400465c0     libucrtd:lcidtoname_downlevel.obj
 0002:0000b5d0       ??_C@_1M@GFMCHPE@?$AAh?$AAe?$AA?9?$AAI?$AAL@ 00000001400465d0     libucrtd:lcidtoname_downlevel.obj
 0002:0000b5e0       ??_C@_1M@MHLPGNKM@?$AAh?$AAu?$AA?9?$AAH?$AAU@ 00000001400465e0     libucrtd:lcidtoname_downlevel.obj
 0002:0000b5f0       ??_C@_1M@LPDDNNPN@?$AAi?$AAs?$AA?9?$AAI?$AAS@ 00000001400465f0     libucrtd:lcidtoname_downlevel.obj
 0002:0000b600       ??_C@_1M@MADIPODN@?$AAi?$AAt?$AA?9?$AAI?$AAT@ 0000000140046600     libucrtd:lcidtoname_downlevel.obj
 0002:0000b610       ??_C@_1M@IHBJJGG@?$AAn?$AAl?$AA?9?$AAN?$AAL@ 0000000140046610     libucrtd:lcidtoname_downlevel.obj
 0002:0000b620       ??_C@_1M@EANAGDL@?$AAn?$AAb?$AA?9?$AAN?$AAO@ 0000000140046620     libucrtd:lcidtoname_downlevel.obj
 0002:0000b630       ??_C@_1M@NEIEMEGP@?$AAp?$AAl?$AA?9?$AAP?$AAL@ 0000000140046630     libucrtd:lcidtoname_downlevel.obj
 0002:0000b640       ??_C@_1M@BOCFIGEP@?$AAp?$AAt?$AA?9?$AAB?$AAR@ 0000000140046640     libucrtd:lcidtoname_downlevel.obj
 0002:0000b650       ??_C@_1M@IMPFOPBG@?$AAr?$AAo?$AA?9?$AAR?$AAO@ 0000000140046650     libucrtd:lcidtoname_downlevel.obj
 0002:0000b660       ??_C@_1M@IDNNEJMM@?$AAr?$AAu?$AA?9?$AAR?$AAU@ 0000000140046660     libucrtd:lcidtoname_downlevel.obj
 0002:0000b670       ??_C@_1M@LILEEOGM@?$AAh?$AAr?$AA?9?$AAH?$AAR@ 0000000140046670     libucrtd:lcidtoname_downlevel.obj
 0002:0000b680       ??_C@_1M@FKIFEHPB@?$AAs?$AAk?$AA?9?$AAS?$AAK@ 0000000140046680     libucrtd:lcidtoname_downlevel.obj
 0002:0000b690       ??_C@_1M@LJMAMNPJ@?$AAs?$AAq?$AA?9?$AAA?$AAL@ 0000000140046690     libucrtd:lcidtoname_downlevel.obj
 0002:0000b6a0       ??_C@_1M@GIAKDKJK@?$AAs?$AAv?$AA?9?$AAS?$AAE@ 00000001400466a0     libucrtd:lcidtoname_downlevel.obj
 0002:0000b6b0       ??_C@_1M@MKJKIKCL@?$AAt?$AAh?$AA?9?$AAT?$AAH@ 00000001400466b0     libucrtd:lcidtoname_downlevel.obj
 0002:0000b6c0       ??_C@_1M@MFLCCMPB@?$AAt?$AAr?$AA?9?$AAT?$AAR@ 00000001400466c0     libucrtd:lcidtoname_downlevel.obj
 0002:0000b6d0       ??_C@_1M@OIJHDKJN@?$AAu?$AAr?$AA?9?$AAP?$AAK@ 00000001400466d0     libucrtd:lcidtoname_downlevel.obj
 0002:0000b6e0       ??_C@_1M@LHIPCIEK@?$AAi?$AAd?$AA?9?$AAI?$AAD@ 00000001400466e0     libucrtd:lcidtoname_downlevel.obj
 0002:0000b6f0       ??_C@_1M@MFMOBGI@?$AAu?$AAk?$AA?9?$AAU?$AAA@ 00000001400466f0     libucrtd:lcidtoname_downlevel.obj
 0002:0000b700       ??_C@_1M@OBGLJIPL@?$AAb?$AAe?$AA?9?$AAB?$AAY@ 0000000140046700     libucrtd:lcidtoname_downlevel.obj
 0002:0000b710       ??_C@_1M@BCFAJEAD@?$AAs?$AAl?$AA?9?$AAS?$AAI@ 0000000140046710     libucrtd:lcidtoname_downlevel.obj
 0002:0000b720       ??_C@_1M@FKFFEDDN@?$AAe?$AAt?$AA?9?$AAE?$AAE@ 0000000140046720     libucrtd:lcidtoname_downlevel.obj
 0002:0000b730       ??_C@_1M@KGKKAACI@?$AAl?$AAv?$AA?9?$AAL?$AAV@ 0000000140046730     libucrtd:lcidtoname_downlevel.obj
 0002:0000b740       ??_C@_1M@IFGBIJO@?$AAl?$AAt?$AA?9?$AAL?$AAT@ 0000000140046740     libucrtd:lcidtoname_downlevel.obj
 0002:0000b750       ??_C@_1M@FGEAHEDM@?$AAf?$AAa?$AA?9?$AAI?$AAR@ 0000000140046750     libucrtd:lcidtoname_downlevel.obj
 0002:0000b760       ??_C@_1M@KBMAIBFN@?$AAv?$AAi?$AA?9?$AAV?$AAN@ 0000000140046760     libucrtd:lcidtoname_downlevel.obj
 0002:0000b770       ??_C@_1M@GPCBKDJK@?$AAh?$AAy?$AA?9?$AAA?$AAM@ 0000000140046770     libucrtd:lcidtoname_downlevel.obj
 0002:0000b780       ??_C@_1BG@BECMDDJB@?$AAa?$AAz?$AA?9?$AAA?$AAZ?$AA?9?$AAL?$AAa?$AAt?$AAn@ 0000000140046780     libucrtd:lcidtoname_downlevel.obj
 0002:0000b798       ??_C@_1M@MAOFCAEA@?$AAe?$AAu?$AA?9?$AAE?$AAS@ 0000000140046798     libucrtd:lcidtoname_downlevel.obj
 0002:0000b7a8       ??_C@_1M@IGHABKPI@?$AAm?$AAk?$AA?9?$AAM?$AAK@ 00000001400467a8     libucrtd:lcidtoname_downlevel.obj
 0002:0000b7b8       ??_C@_1M@IAIGNEJG@?$AAt?$AAn?$AA?9?$AAZ?$AAA@ 00000001400467b8     libucrtd:lcidtoname_downlevel.obj
 0002:0000b7c8       ??_C@_1M@IIJCOJFA@?$AAx?$AAh?$AA?9?$AAZ?$AAA@ 00000001400467c8     libucrtd:lcidtoname_downlevel.obj
 0002:0000b7d8       ??_C@_1M@LGPJHNJH@?$AAz?$AAu?$AA?9?$AAZ?$AAA@ 00000001400467d8     libucrtd:lcidtoname_downlevel.obj
 0002:0000b7e8       ??_C@_1M@HOKAOIO@?$AAa?$AAf?$AA?9?$AAZ?$AAA@ 00000001400467e8     libucrtd:lcidtoname_downlevel.obj
 0002:0000b7f8       ??_C@_1M@DPCLHLIE@?$AAk?$AAa?$AA?9?$AAG?$AAE@ 00000001400467f8     libucrtd:lcidtoname_downlevel.obj
 0002:0000b808       ??_C@_1M@BLKMHJBI@?$AAf?$AAo?$AA?9?$AAF?$AAO@ 0000000140046808     libucrtd:lcidtoname_downlevel.obj
 0002:0000b818       ??_C@_1M@LGGJAPPB@?$AAh?$AAi?$AA?9?$AAI?$AAN@ 0000000140046818     libucrtd:lcidtoname_downlevel.obj
 0002:0000b828       ??_C@_1M@FIKPIHFE@?$AAm?$AAt?$AA?9?$AAM?$AAT@ 0000000140046828     libucrtd:lcidtoname_downlevel.obj
 0002:0000b838       ??_C@_1M@HEGGPBFA@?$AAs?$AAe?$AA?9?$AAN?$AAO@ 0000000140046838     libucrtd:lcidtoname_downlevel.obj
 0002:0000b848       ??_C@_1M@EIBJEEPA@?$AAm?$AAs?$AA?9?$AAM?$AAY@ 0000000140046848     libucrtd:lcidtoname_downlevel.obj
 0002:0000b858       ??_C@_1M@FHLBGMPP@?$AAk?$AAk?$AA?9?$AAK?$AAZ@ 0000000140046858     libucrtd:lcidtoname_downlevel.obj
 0002:0000b868       ??_C@_1M@NGJJLCGI@?$AAk?$AAy?$AA?9?$AAK?$AAG@ 0000000140046868     libucrtd:lcidtoname_downlevel.obj
 0002:0000b878       ??_C@_1M@GIENNBFC@?$AAs?$AAw?$AA?9?$AAK?$AAE@ 0000000140046878     libucrtd:lcidtoname_downlevel.obj
 0002:0000b888       ??_C@_1BG@NDGMJIMJ@?$AAu?$AAz?$AA?9?$AAU?$AAZ?$AA?9?$AAL?$AAa?$AAt?$AAn@ 0000000140046888     libucrtd:lcidtoname_downlevel.obj
 0002:0000b8a0       ??_C@_1M@IDCCIHBC@?$AAt?$AAt?$AA?9?$AAR?$AAU@ 00000001400468a0     libucrtd:lcidtoname_downlevel.obj
 0002:0000b8b0       ??_C@_1M@LOICPMOJ@?$AAb?$AAn?$AA?9?$AAI?$AAN@ 00000001400468b0     libucrtd:lcidtoname_downlevel.obj
 0002:0000b8c0       ??_C@_1M@KPKKNEAH@?$AAp?$AAa?$AA?9?$AAI?$AAN@ 00000001400468c0     libucrtd:lcidtoname_downlevel.obj
 0002:0000b8d0       ??_C@_1M@PJGPPBOG@?$AAg?$AAu?$AA?9?$AAI?$AAN@ 00000001400468d0     libucrtd:lcidtoname_downlevel.obj
 0002:0000b8e0       ??_C@_1M@KMKMOPHI@?$AAt?$AAa?$AA?9?$AAI?$AAN@ 00000001400468e0     libucrtd:lcidtoname_downlevel.obj
 0002:0000b8f0       ??_C@_1M@KFEHEPAC@?$AAt?$AAe?$AA?9?$AAI?$AAN@ 00000001400468f0     libucrtd:lcidtoname_downlevel.obj
 0002:0000b900       ??_C@_1M@CDCLMGHI@?$AAk?$AAn?$AA?9?$AAI?$AAN@ 0000000140046900     libucrtd:lcidtoname_downlevel.obj
 0002:0000b910       ??_C@_1M@MIODLDKF@?$AAm?$AAl?$AA?9?$AAI?$AAN@ 0000000140046910     libucrtd:lcidtoname_downlevel.obj
 0002:0000b920       ??_C@_1M@PBIEACPO@?$AAm?$AAr?$AA?9?$AAI?$AAN@ 0000000140046920     libucrtd:lcidtoname_downlevel.obj
 0002:0000b930       ??_C@_1M@NIDEAGPH@?$AAs?$AAa?$AA?9?$AAI?$AAN@ 0000000140046930     libucrtd:lcidtoname_downlevel.obj
 0002:0000b940       ??_C@_1M@FHIHCBIO@?$AAm?$AAn?$AA?9?$AAM?$AAN@ 0000000140046940     libucrtd:lcidtoname_downlevel.obj
 0002:0000b950       ??_C@_1M@JAIJPENP@?$AAc?$AAy?$AA?9?$AAG?$AAB@ 0000000140046950     libucrtd:lcidtoname_downlevel.obj
 0002:0000b960       ??_C@_1M@PHGFBEPN@?$AAg?$AAl?$AA?9?$AAE?$AAS@ 0000000140046960     libucrtd:lcidtoname_downlevel.obj
 0002:0000b970       ??_C@_1O@KPIPDNCP@?$AAk?$AAo?$AAk?$AA?9?$AAI?$AAN@ 0000000140046970     libucrtd:lcidtoname_downlevel.obj
 0002:0000b980       ??_C@_1O@KNHJLDJA@?$AAs?$AAy?$AAr?$AA?9?$AAS?$AAY@ 0000000140046980     libucrtd:lcidtoname_downlevel.obj
 0002:0000b990       ??_C@_1O@MKEKBLAH@?$AAd?$AAi?$AAv?$AA?9?$AAM?$AAV@ 0000000140046990     libucrtd:lcidtoname_downlevel.obj
 0002:0000b9a0       ??_C@_1O@OHDCKDDF@?$AAq?$AAu?$AAz?$AA?9?$AAB?$AAO@ 00000001400469a0     libucrtd:lcidtoname_downlevel.obj
 0002:0000b9b0       ??_C@_1M@LEPJNLFD@?$AAn?$AAs?$AA?9?$AAZ?$AAA@ 00000001400469b0     libucrtd:lcidtoname_downlevel.obj
 0002:0000b9c0       ??_C@_1M@OMLEIIJB@?$AAm?$AAi?$AA?9?$AAN?$AAZ@ 00000001400469c0     libucrtd:lcidtoname_downlevel.obj
 0002:0000b9d0       ??_C@_1M@PMPEAILG@?$AAa?$AAr?$AA?9?$AAI?$AAQ@ 00000001400469d0     libucrtd:lcidtoname_downlevel.obj
 0002:0000b9e0       ??_C@_1M@CNKPNOEE@?$AAd?$AAe?$AA?9?$AAC?$AAH@ 00000001400469e0     libucrtd:lcidtoname_downlevel.obj
 0002:0000b9f0       ??_C@_1M@LKMGMLKO@?$AAe?$AAn?$AA?9?$AAG?$AAB@ 00000001400469f0     libucrtd:lcidtoname_downlevel.obj
 0002:0000ba00       ??_C@_1M@PGKJFFGL@?$AAe?$AAs?$AA?9?$AAM?$AAX@ 0000000140046a00     libucrtd:lcidtoname_downlevel.obj
 0002:0000ba10       ??_C@_1M@DNNANBDC@?$AAf?$AAr?$AA?9?$AAB?$AAE@ 0000000140046a10     libucrtd:lcidtoname_downlevel.obj
 0002:0000ba20       ??_C@_1M@HLGMDFHM@?$AAi?$AAt?$AA?9?$AAC?$AAH@ 0000000140046a20     libucrtd:lcidtoname_downlevel.obj
 0002:0000ba30       ??_C@_1M@CLLBGJH@?$AAn?$AAl?$AA?9?$AAB?$AAE@ 0000000140046a30     libucrtd:lcidtoname_downlevel.obj
 0002:0000ba40       ??_C@_1M@BODBOGLF@?$AAn?$AAn?$AA?9?$AAN?$AAO@ 0000000140046a40     libucrtd:lcidtoname_downlevel.obj
 0002:0000ba50       ??_C@_1M@HFFAHKAD@?$AAp?$AAt?$AA?9?$AAP?$AAT@ 0000000140046a50     libucrtd:lcidtoname_downlevel.obj
 0002:0000ba60       ??_C@_1BG@LNOAKHIE@?$AAs?$AAr?$AA?9?$AAS?$AAP?$AA?9?$AAL?$AAa?$AAt?$AAn@ 0000000140046a60     libucrtd:lcidtoname_downlevel.obj
 0002:0000ba78       ??_C@_1M@HBMHBGAK@?$AAs?$AAv?$AA?9?$AAF?$AAI@ 0000000140046a78     libucrtd:lcidtoname_downlevel.obj
 0002:0000ba88       ??_C@_1BG@DGCJGJBE@?$AAa?$AAz?$AA?9?$AAA?$AAZ?$AA?9?$AAC?$AAy?$AAr?$AAl@ 0000000140046a88     libucrtd:lcidtoname_downlevel.obj
 0002:0000baa0       ??_C@_1M@KEJDAAHB@?$AAs?$AAe?$AA?9?$AAS?$AAE@ 0000000140046aa0     libucrtd:lcidtoname_downlevel.obj
 0002:0000bab0       ??_C@_1M@HEIBJJAD@?$AAm?$AAs?$AA?9?$AAB?$AAN@ 0000000140046ab0     libucrtd:lcidtoname_downlevel.obj
 0002:0000bac0       ??_C@_1BG@PBGJMCEM@?$AAu?$AAz?$AA?9?$AAU?$AAZ?$AA?9?$AAC?$AAy?$AAr?$AAl@ 0000000140046ac0     libucrtd:lcidtoname_downlevel.obj
 0002:0000bad8       ??_C@_1O@LAOBCMDF@?$AAq?$AAu?$AAz?$AA?9?$AAE?$AAC@ 0000000140046ad8     libucrtd:lcidtoname_downlevel.obj
 0002:0000bae8       ??_C@_1M@POEEMAIO@?$AAa?$AAr?$AA?9?$AAE?$AAG@ 0000000140046ae8     libucrtd:lcidtoname_downlevel.obj
 0002:0000baf8       ??_C@_1M@EFAKDEDL@?$AAz?$AAh?$AA?9?$AAH?$AAK@ 0000000140046af8     libucrtd:lcidtoname_downlevel.obj
 0002:0000bb08       ??_C@_1M@HKKIJHGI@?$AAd?$AAe?$AA?9?$AAA?$AAT@ 0000000140046b08     libucrtd:lcidtoname_downlevel.obj
 0002:0000bb18       ??_C@_1M@KBFBEHJF@?$AAe?$AAn?$AA?9?$AAA?$AAU@ 0000000140046b18     libucrtd:lcidtoname_downlevel.obj
 0002:0000bb28       ??_C@_1M@MNPLFAAH@?$AAe?$AAs?$AA?9?$AAE?$AAS@ 0000000140046b28     libucrtd:lcidtoname_downlevel.obj
 0002:0000bb38       ??_C@_1M@HJOOJFMA@?$AAf?$AAr?$AA?9?$AAC?$AAA@ 0000000140046b38     libucrtd:lcidtoname_downlevel.obj
 0002:0000bb48       ??_C@_1BG@JPOFPNAB@?$AAs?$AAr?$AA?9?$AAS?$AAP?$AA?9?$AAC?$AAy?$AAr?$AAl@ 0000000140046b48     libucrtd:lcidtoname_downlevel.obj
 0002:0000bb60       ??_C@_1M@LNFOCMOB@?$AAs?$AAe?$AA?9?$AAF?$AAI@ 0000000140046b60     libucrtd:lcidtoname_downlevel.obj
 0002:0000bb70       ??_C@_1O@MGJBOAMB@?$AAq?$AAu?$AAz?$AA?9?$AAP?$AAE@ 0000000140046b70     libucrtd:lcidtoname_downlevel.obj
 0002:0000bb80       ??_C@_1M@GJINLBOK@?$AAa?$AAr?$AA?9?$AAL?$AAY@ 0000000140046b80     libucrtd:lcidtoname_downlevel.obj
 0002:0000bb90       ??_C@_1M@GGMNHJNL@?$AAz?$AAh?$AA?9?$AAS?$AAG@ 0000000140046b90     libucrtd:lcidtoname_downlevel.obj
 0002:0000bba0       ??_C@_1M@HOIKODND@?$AAd?$AAe?$AA?9?$AAL?$AAU@ 0000000140046ba0     libucrtd:lcidtoname_downlevel.obj
 0002:0000bbb0       ??_C@_1M@DDOCCGFG@?$AAe?$AAn?$AA?9?$AAC?$AAA@ 0000000140046bb0     libucrtd:lcidtoname_downlevel.obj
 0002:0000bbc0       ??_C@_1M@BNOEMJLF@?$AAe?$AAs?$AA?9?$AAG?$AAT@ 0000000140046bc0     libucrtd:lcidtoname_downlevel.obj
 0002:0000bbd0       ??_C@_1M@EOGNKEK@?$AAf?$AAr?$AA?9?$AAC?$AAH@ 0000000140046bd0     libucrtd:lcidtoname_downlevel.obj
 0002:0000bbe0       ??_C@_1M@FLIDJFHL@?$AAh?$AAr?$AA?9?$AAB?$AAA@ 0000000140046be0     libucrtd:lcidtoname_downlevel.obj
 0002:0000bbf0       ??_C@_1O@FMCELNAJ@?$AAs?$AAm?$AAj?$AA?9?$AAN?$AAO@ 0000000140046bf0     libucrtd:lcidtoname_downlevel.obj
 0002:0000bc00       ??_C@_1M@JHGLJMGJ@?$AAa?$AAr?$AA?9?$AAD?$AAZ@ 0000000140046c00     libucrtd:lcidtoname_downlevel.obj
 0002:0000bc10       ??_C@_1M@JKKFDCNP@?$AAz?$AAh?$AA?9?$AAM?$AAO@ 0000000140046c10     libucrtd:lcidtoname_downlevel.obj
 0002:0000bc20       ??_C@_1M@GEEFALPE@?$AAd?$AAe?$AA?9?$AAL?$AAI@ 0000000140046c20     libucrtd:lcidtoname_downlevel.obj
 0002:0000bc30       ??_C@_1M@IGEOFBG@?$AAe?$AAn?$AA?9?$AAN?$AAZ@ 0000000140046c30     libucrtd:lcidtoname_downlevel.obj
 0002:0000bc40       ??_C@_1M@KDBONEHP@?$AAe?$AAs?$AA?9?$AAC?$AAR@ 0000000140046c40     libucrtd:lcidtoname_downlevel.obj
 0002:0000bc50       ??_C@_1M@FHMDOHNN@?$AAf?$AAr?$AA?9?$AAL?$AAU@ 0000000140046c50     libucrtd:lcidtoname_downlevel.obj
 0002:0000bc60       ??_C@_1BG@NFKKMAFG@?$AAb?$AAs?$AA?9?$AAB?$AAA?$AA?9?$AAL?$AAa?$AAt?$AAn@ 0000000140046c60     libucrtd:lcidtoname_downlevel.obj
 0002:0000bc78       ??_C@_1O@IMNBEMCI@?$AAs?$AAm?$AAj?$AA?9?$AAS?$AAE@ 0000000140046c78     libucrtd:lcidtoname_downlevel.obj
 0002:0000bc88       ??_C@_1M@DHHMBNDP@?$AAa?$AAr?$AA?9?$AAM?$AAA@ 0000000140046c88     libucrtd:lcidtoname_downlevel.obj
 0002:0000bc98       ??_C@_1M@BNBLJCGH@?$AAe?$AAn?$AA?9?$AAI?$AAE@ 0000000140046c98     libucrtd:lcidtoname_downlevel.obj
 0002:0000bca8       ??_C@_1M@GEPAFMDL@?$AAe?$AAs?$AA?9?$AAP?$AAA@ 0000000140046ca8     libucrtd:lcidtoname_downlevel.obj
 0002:0000bcb8       ??_C@_1M@OJONDMDL@?$AAf?$AAr?$AA?9?$AAM?$AAC@ 0000000140046cb8     libucrtd:lcidtoname_downlevel.obj
 0002:0000bcc8       ??_C@_1BG@OBCNFJB@?$AAs?$AAr?$AA?9?$AAB?$AAA?$AA?9?$AAL?$AAa?$AAt?$AAn@ 0000000140046cc8     libucrtd:lcidtoname_downlevel.obj
 0002:0000bce0       ??_C@_1O@KEMEEGPO@?$AAs?$AAm?$AAa?$AA?9?$AAN?$AAO@ 0000000140046ce0     libucrtd:lcidtoname_downlevel.obj
 0002:0000bcf0       ??_C@_1M@ELMGFODK@?$AAa?$AAr?$AA?9?$AAT?$AAN@ 0000000140046cf0     libucrtd:lcidtoname_downlevel.obj
 0002:0000bd00       ??_C@_1M@BHDLHFAF@?$AAe?$AAn?$AA?9?$AAZ?$AAA@ 0000000140046d00     libucrtd:lcidtoname_downlevel.obj
 0002:0000bd10       ??_C@_1M@BMGIGLIF@?$AAe?$AAs?$AA?9?$AAD?$AAO@ 0000000140046d10     libucrtd:lcidtoname_downlevel.obj
 0002:0000bd20       ??_C@_1BG@CMBHIPBE@?$AAs?$AAr?$AA?9?$AAB?$AAA?$AA?9?$AAC?$AAy?$AAr?$AAl@ 0000000140046d20     libucrtd:lcidtoname_downlevel.obj
 0002:0000bd38       ??_C@_1O@HEDBLHNP@?$AAs?$AAm?$AAa?$AA?9?$AAS?$AAE@ 0000000140046d38     libucrtd:lcidtoname_downlevel.obj
 0002:0000bd48       ??_C@_1M@DAGCADIM@?$AAa?$AAr?$AA?9?$AAO?$AAM@ 0000000140046d48     libucrtd:lcidtoname_downlevel.obj
 0002:0000bd58       ??_C@_1M@FODLMICG@?$AAe?$AAn?$AA?9?$AAJ?$AAM@ 0000000140046d58     libucrtd:lcidtoname_downlevel.obj
 0002:0000bd68       ??_C@_1M@DNMLCIHB@?$AAe?$AAs?$AA?9?$AAV?$AAE@ 0000000140046d68     libucrtd:lcidtoname_downlevel.obj
 0002:0000bd78       ??_C@_1O@EOKHMKJK@?$AAs?$AAm?$AAs?$AA?9?$AAF?$AAI@ 0000000140046d78     libucrtd:lcidtoname_downlevel.obj
 0002:0000bd88       ??_C@_1M@CAFJMKOF@?$AAa?$AAr?$AA?9?$AAY?$AAE@ 0000000140046d88     libucrtd:lcidtoname_downlevel.obj
 0002:0000bd98       ??_C@_1M@CBFHIJLI@?$AAe?$AAn?$AA?9?$AAC?$AAB@ 0000000140046d98     libucrtd:lcidtoname_downlevel.obj
 0002:0000bda8       ??_C@_1M@BGNFLDN@?$AAe?$AAs?$AA?9?$AAC?$AAO@ 0000000140046da8     libucrtd:lcidtoname_downlevel.obj
 0002:0000bdb8       ??_C@_1O@JMPHMAMC@?$AAs?$AAm?$AAn?$AA?9?$AAF?$AAI@ 0000000140046db8     libucrtd:lcidtoname_downlevel.obj
 0002:0000bdc8       ??_C@_1M@JLANABKE@?$AAa?$AAr?$AA?9?$AAS?$AAY@ 0000000140046dc8     libucrtd:lcidtoname_downlevel.obj
 0002:0000bdd8       ??_C@_1M@HPKGCFGN@?$AAe?$AAn?$AA?9?$AAB?$AAZ@ 0000000140046dd8     libucrtd:lcidtoname_downlevel.obj
 0002:0000bde8       ??_C@_1M@OLJCMLGM@?$AAe?$AAs?$AA?9?$AAP?$AAE@ 0000000140046de8     libucrtd:lcidtoname_downlevel.obj
 0002:0000bdf8       ??_C@_1M@MKKGFKLE@?$AAa?$AAr?$AA?9?$AAJ?$AAO@ 0000000140046df8     libucrtd:lcidtoname_downlevel.obj
 0002:0000be08       ??_C@_1M@EKPGLDNI@?$AAe?$AAn?$AA?9?$AAT?$AAT@ 0000000140046e08     libucrtd:lcidtoname_downlevel.obj
 0002:0000be18       ??_C@_1M@OONGHFHE@?$AAe?$AAs?$AA?9?$AAA?$AAR@ 0000000140046e18     libucrtd:lcidtoname_downlevel.obj
 0002:0000be28       ??_C@_1M@OOJFGBHE@?$AAa?$AAr?$AA?9?$AAL?$AAB@ 0000000140046e28     libucrtd:lcidtoname_downlevel.obj
 0002:0000be38       ??_C@_1M@GCEJHNEG@?$AAe?$AAn?$AA?9?$AAZ?$AAW@ 0000000140046e38     libucrtd:lcidtoname_downlevel.obj
 0002:0000be48       ??_C@_1M@JNOCAHJI@?$AAe?$AAs?$AA?9?$AAE?$AAC@ 0000000140046e48     libucrtd:lcidtoname_downlevel.obj
 0002:0000be58       ??_C@_1M@JEFHPGGB@?$AAa?$AAr?$AA?9?$AAK?$AAW@ 0000000140046e58     libucrtd:lcidtoname_downlevel.obj
 0002:0000be68       ??_C@_1M@MLKIBJOJ@?$AAe?$AAn?$AA?9?$AAP?$AAH@ 0000000140046e68     libucrtd:lcidtoname_downlevel.obj
 0002:0000be78       ??_C@_1M@BDNIPEND@?$AAe?$AAs?$AA?9?$AAC?$AAL@ 0000000140046e78     libucrtd:lcidtoname_downlevel.obj
 0002:0000be88       ??_C@_1M@MPNMEKBD@?$AAa?$AAr?$AA?9?$AAA?$AAE@ 0000000140046e88     libucrtd:lcidtoname_downlevel.obj
 0002:0000be98       ??_C@_1M@KBJALCPI@?$AAe?$AAs?$AA?9?$AAU?$AAY@ 0000000140046e98     libucrtd:lcidtoname_downlevel.obj
 0002:0000bea8       ??_C@_1M@LLCCOAGA@?$AAa?$AAr?$AA?9?$AAB?$AAH@ 0000000140046ea8     libucrtd:lcidtoname_downlevel.obj
 0002:0000beb8       ??_C@_1M@PBFNCDEL@?$AAe?$AAs?$AA?9?$AAP?$AAY@ 0000000140046eb8     libucrtd:lcidtoname_downlevel.obj
 0002:0000bec8       ??_C@_1M@EDGINPNP@?$AAa?$AAr?$AA?9?$AAQ?$AAA@ 0000000140046ec8     libucrtd:lcidtoname_downlevel.obj
 0002:0000bed8       ??_C@_1M@MKDBIIJI@?$AAe?$AAs?$AA?9?$AAB?$AAO@ 0000000140046ed8     libucrtd:lcidtoname_downlevel.obj
 0002:0000bee8       ??_C@_1M@CPKKEBLD@?$AAe?$AAs?$AA?9?$AAS?$AAV@ 0000000140046ee8     libucrtd:lcidtoname_downlevel.obj
 0002:0000bef8       ??_C@_1M@NDBGMMJL@?$AAe?$AAs?$AA?9?$AAH?$AAN@ 0000000140046ef8     libucrtd:lcidtoname_downlevel.obj
 0002:0000bf08       ??_C@_1M@JIJIBHDP@?$AAe?$AAs?$AA?9?$AAN?$AAI@ 0000000140046f08     libucrtd:lcidtoname_downlevel.obj
 0002:0000bf18       ??_C@_1M@CGFMKEEK@?$AAe?$AAs?$AA?9?$AAP?$AAR@ 0000000140046f18     libucrtd:lcidtoname_downlevel.obj
 0002:0000bf28       ??_C@_1O@ICJHKIIK@?$AAz?$AAh?$AA?9?$AAC?$AAH?$AAT@ 0000000140046f28     libucrtd:lcidtoname_downlevel.obj
 0002:0000bf38       ??_C@_15CLNEJCE@?$AAs?$AAr@ 0000000140046f38     libucrtd:lcidtoname_downlevel.obj
 0002:0000cd80       ??_C@_1M@KAHEKEIG@?$AAa?$AAf?$AA?9?$AAz?$AAa@ 0000000140047d80     libucrtd:lcidtoname_downlevel.obj
 0002:0000cd90       ??_C@_1M@GIECOABL@?$AAa?$AAr?$AA?9?$AAa?$AAe@ 0000000140047d90     libucrtd:lcidtoname_downlevel.obj
 0002:0000cda0       ??_C@_1M@BMLMEKGI@?$AAa?$AAr?$AA?9?$AAb?$AAh@ 0000000140047da0     libucrtd:lcidtoname_downlevel.obj
 0002:0000cdb0       ??_C@_1M@DAPFDGGB@?$AAa?$AAr?$AA?9?$AAd?$AAz@ 0000000140047db0     libucrtd:lcidtoname_downlevel.obj
 0002:0000cdc0       ??_C@_1M@FJNKGKIG@?$AAa?$AAr?$AA?9?$AAe?$AAg@ 0000000140047dc0     libucrtd:lcidtoname_downlevel.obj
 0002:0000cdd0       ??_C@_1M@FLGKKCLO@?$AAa?$AAr?$AA?9?$AAi?$AAq@ 0000000140047dd0     libucrtd:lcidtoname_downlevel.obj
 0002:0000cde0       ??_C@_1M@GNDIPALM@?$AAa?$AAr?$AA?9?$AAj?$AAo@ 0000000140047de0     libucrtd:lcidtoname_downlevel.obj
 0002:0000cdf0       ??_C@_1M@DDMJFMGJ@?$AAa?$AAr?$AA?9?$AAk?$AAw@ 0000000140047df0     libucrtd:lcidtoname_downlevel.obj
 0002:0000ce00       ??_C@_1M@EJALMLHM@?$AAa?$AAr?$AA?9?$AAl?$AAb@ 0000000140047e00     libucrtd:lcidtoname_downlevel.obj
 0002:0000ce10       ??_C@_1M@MOBDBLOC@?$AAa?$AAr?$AA?9?$AAl?$AAy@ 0000000140047e10     libucrtd:lcidtoname_downlevel.obj
 0002:0000ce20       ??_C@_1M@JAOCLHDH@?$AAa?$AAr?$AA?9?$AAm?$AAa@ 0000000140047e20     libucrtd:lcidtoname_downlevel.obj
 0002:0000ce30       ??_C@_1M@JHPMKJIE@?$AAa?$AAr?$AA?9?$AAo?$AAm@ 0000000140047e30     libucrtd:lcidtoname_downlevel.obj
 0002:0000ce40       ??_C@_1M@OEPGHFNH@?$AAa?$AAr?$AA?9?$AAq?$AAa@ 0000000140047e40     libucrtd:lcidtoname_downlevel.obj
 0002:0000ce50       ??_C@_1M@KJDONENM@?$AAa?$AAr?$AA?9?$AAs?$AAa@ 0000000140047e50     libucrtd:lcidtoname_downlevel.obj
 0002:0000ce60       ??_C@_1M@DMJDKLKM@?$AAa?$AAr?$AA?9?$AAs?$AAy@ 0000000140047e60     libucrtd:lcidtoname_downlevel.obj
 0002:0000ce70       ??_C@_1M@OMFIPEDC@?$AAa?$AAr?$AA?9?$AAt?$AAn@ 0000000140047e70     libucrtd:lcidtoname_downlevel.obj
 0002:0000ce80       ??_C@_1M@IHMHGAON@?$AAa?$AAr?$AA?9?$AAy?$AAe@ 0000000140047e80     libucrtd:lcidtoname_downlevel.obj
 0002:0000ce90       ??_C@_1BG@KDCPGJGB@?$AAa?$AAz?$AA?9?$AAa?$AAz?$AA?9?$AAc?$AAy?$AAr?$AAl@ 0000000140047e90     libucrtd:lcidtoname_downlevel.obj
 0002:0000cea8       ??_C@_1BG@IBCKDDOE@?$AAa?$AAz?$AA?9?$AAa?$AAz?$AA?9?$AAl?$AAa?$AAt?$AAn@ 0000000140047ea8     libucrtd:lcidtoname_downlevel.obj
 0002:0000cec0       ??_C@_1M@EGPFDCPD@?$AAb?$AAe?$AA?9?$AAb?$AAy@ 0000000140047ec0     libucrtd:lcidtoname_downlevel.obj
 0002:0000ced0       ??_C@_1M@PCMGMCGC@?$AAb?$AAg?$AA?9?$AAb?$AAg@ 0000000140047ed0     libucrtd:lcidtoname_downlevel.obj
 0002:0000cee0       ??_C@_1M@BJBMFGOB@?$AAb?$AAn?$AA?9?$AAi?$AAn@ 0000000140047ee0     libucrtd:lcidtoname_downlevel.obj
 0002:0000cef0       ??_C@_1BG@EAKMMACD@?$AAb?$AAs?$AA?9?$AAb?$AAa?$AA?9?$AAl?$AAa?$AAt?$AAn@ 0000000140047ef0     libucrtd:lcidtoname_downlevel.obj
 0002:0000cf08       ??_C@_1M@KGADAODK@?$AAc?$AAa?$AA?9?$AAe?$AAs@ 0000000140047f08     libucrtd:lcidtoname_downlevel.obj
 0002:0000cf18       ??_C@_1M@COAJPDHI@?$AAc?$AAs?$AA?9?$AAc?$AAz@ 0000000140047f18     libucrtd:lcidtoname_downlevel.obj
 0002:0000cf28       ??_C@_1M@DHBHFONH@?$AAc?$AAy?$AA?9?$AAg?$AAb@ 0000000140047f28     libucrtd:lcidtoname_downlevel.obj
 0002:0000cf38       ??_C@_1M@IMGKELGA@?$AAd?$AAa?$AA?9?$AAd?$AAk@ 0000000140047f38     libucrtd:lcidtoname_downlevel.obj
 0002:0000cf48       ??_C@_1M@NNDGDNGA@?$AAd?$AAe?$AA?9?$AAa?$AAt@ 0000000140047f48     libucrtd:lcidtoname_downlevel.obj
 0002:0000cf58       ??_C@_1M@IKDBHEEM@?$AAd?$AAe?$AA?9?$AAc?$AAh@ 0000000140047f58     libucrtd:lcidtoname_downlevel.obj
 0002:0000cf68       ??_C@_1M@GFFOJMCJ@?$AAd?$AAe?$AA?9?$AAd?$AAe@ 0000000140047f68     libucrtd:lcidtoname_downlevel.obj
 0002:0000cf78       ??_C@_1M@MDNLKBPM@?$AAd?$AAe?$AA?9?$AAl?$AAi@ 0000000140047f78     libucrtd:lcidtoname_downlevel.obj
 0002:0000cf88       ??_C@_1M@NJBEEJNL@?$AAd?$AAe?$AA?9?$AAl?$AAu@ 0000000140047f88     libucrtd:lcidtoname_downlevel.obj
 0002:0000cf98       ??_C@_1O@GNNELBAP@?$AAd?$AAi?$AAv?$AA?9?$AAm?$AAv@ 0000000140047f98     libucrtd:lcidtoname_downlevel.obj
 0002:0000cfa8       ??_C@_1M@EJLEOGAE@?$AAe?$AAl?$AA?9?$AAg?$AAr@ 0000000140047fa8     libucrtd:lcidtoname_downlevel.obj
 0002:0000cfb8       ??_C@_1M@GMPONJN@?$AAe?$AAn?$AA?9?$AAa?$AAu@ 0000000140047fb8     libucrtd:lcidtoname_downlevel.obj
 0002:0000cfc8       ??_C@_1M@NIDIIPGF@?$AAe?$AAn?$AA?9?$AAb?$AAz@ 0000000140047fc8     libucrtd:lcidtoname_downlevel.obj
 0002:0000cfd8       ??_C@_1M@JEHMIMFO@?$AAe?$AAn?$AA?9?$AAc?$AAa@ 0000000140047fd8     libucrtd:lcidtoname_downlevel.obj
 0002:0000cfe8       ??_C@_1M@IGMJCDLA@?$AAe?$AAn?$AA?9?$AAc?$AAb@ 0000000140047fe8     libucrtd:lcidtoname_downlevel.obj
 0002:0000cff8       ??_C@_1M@BNFIGBKG@?$AAe?$AAn?$AA?9?$AAg?$AAb@ 0000000140047ff8     libucrtd:lcidtoname_downlevel.obj
 0002:0000d008       ??_C@_1M@LKIFDIGP@?$AAe?$AAn?$AA?9?$AAi?$AAe@ 0000000140048008     libucrtd:lcidtoname_downlevel.obj
 0002:0000d018       ??_C@_1M@PJKFGCCO@?$AAe?$AAn?$AA?9?$AAj?$AAm@ 0000000140048018     libucrtd:lcidtoname_downlevel.obj
 0002:0000d028       ??_C@_1M@KPPKEPBO@?$AAe?$AAn?$AA?9?$AAn?$AAz@ 0000000140048028     libucrtd:lcidtoname_downlevel.obj
 0002:0000d038       ??_C@_1M@GMDGLDOB@?$AAe?$AAn?$AA?9?$AAp?$AAh@ 0000000140048038     libucrtd:lcidtoname_downlevel.obj
 0002:0000d048       ??_C@_1M@ONGIBJNA@?$AAe?$AAn?$AA?9?$AAt?$AAt@ 0000000140048048     libucrtd:lcidtoname_downlevel.obj
 0002:0000d058       ??_C@_1M@LLODPCMM@?$AAe?$AAn?$AA?9?$AAu?$AAs@ 0000000140048058     libucrtd:lcidtoname_downlevel.obj
 0002:0000d068       ??_C@_1M@LAKFNPAN@?$AAe?$AAn?$AA?9?$AAz?$AAa@ 0000000140048068     libucrtd:lcidtoname_downlevel.obj
 0002:0000d078       ??_C@_1M@MFNHNHEO@?$AAe?$AAn?$AA?9?$AAz?$AAw@ 0000000140048078     libucrtd:lcidtoname_downlevel.obj
 0002:0000d088       ??_C@_1M@EJEINPHM@?$AAe?$AAs?$AA?9?$AAa?$AAr@ 0000000140048088     libucrtd:lcidtoname_downlevel.obj
 0002:0000d098       ??_C@_1M@GNKPCCJA@?$AAe?$AAs?$AA?9?$AAb?$AAo@ 0000000140048098     libucrtd:lcidtoname_downlevel.obj
 0002:0000d0a8       ??_C@_1M@LEEGFONL@?$AAe?$AAs?$AA?9?$AAc?$AAl@ 00000001400480a8     libucrtd:lcidtoname_downlevel.obj
 0002:0000d0b8       ??_C@_1M@KGPDPBDF@?$AAe?$AAs?$AA?9?$AAc?$AAo@ 00000001400480b8     libucrtd:lcidtoname_downlevel.obj
 0002:0000d0c8       ??_C@_1M@EIAHOHH@?$AAe?$AAs?$AA?9?$AAc?$AAr@ 00000001400480c8     libucrtd:lcidtoname_downlevel.obj
 0002:0000d0d8       ??_C@_1M@LLPGMBIN@?$AAe?$AAs?$AA?9?$AAd?$AAo@ 00000001400480d8     libucrtd:lcidtoname_downlevel.obj
 0002:0000d0e8       ??_C@_1M@DKHMKNJA@?$AAe?$AAs?$AA?9?$AAe?$AAc@ 00000001400480e8     libucrtd:lcidtoname_downlevel.obj
 0002:0000d0f8       ??_C@_1M@GKGFPKAP@?$AAe?$AAs?$AA?9?$AAe?$AAs@ 00000001400480f8     libucrtd:lcidtoname_downlevel.obj
 0002:0000d108       ??_C@_1M@LKHKGDLN@?$AAe?$AAs?$AA?9?$AAg?$AAt@ 0000000140048108     libucrtd:lcidtoname_downlevel.obj
 0002:0000d118       ??_C@_1M@HEIIGGJD@?$AAe?$AAs?$AA?9?$AAh?$AAn@ 0000000140048118     libucrtd:lcidtoname_downlevel.obj
 0002:0000d128       ??_C@_1M@FBDHPPGD@?$AAe?$AAs?$AA?9?$AAm?$AAx@ 0000000140048128     libucrtd:lcidtoname_downlevel.obj
 0002:0000d138       ??_C@_1M@DPAGLNDH@?$AAe?$AAs?$AA?9?$AAn?$AAi@ 0000000140048138     libucrtd:lcidtoname_downlevel.obj
 0002:0000d148       ??_C@_1M@MDGOPGDD@?$AAe?$AAs?$AA?9?$AAp?$AAa@ 0000000140048148     libucrtd:lcidtoname_downlevel.obj
 0002:0000d158       ??_C@_1M@EMAMGBGE@?$AAe?$AAs?$AA?9?$AAp?$AAe@ 0000000140048158     libucrtd:lcidtoname_downlevel.obj
 0002:0000d168       ??_C@_1M@IBMCAOEC@?$AAe?$AAs?$AA?9?$AAp?$AAr@ 0000000140048168     libucrtd:lcidtoname_downlevel.obj
 0002:0000d178       ??_C@_1M@FGMDIJED@?$AAe?$AAs?$AA?9?$AAp?$AAy@ 0000000140048178     libucrtd:lcidtoname_downlevel.obj
 0002:0000d188       ??_C@_1M@IIDEOLLL@?$AAe?$AAs?$AA?9?$AAs?$AAv@ 0000000140048188     libucrtd:lcidtoname_downlevel.obj
 0002:0000d198       ??_C@_1M@GAOBIPA@?$AAe?$AAs?$AA?9?$AAu?$AAy@ 0000000140048198     libucrtd:lcidtoname_downlevel.obj
 0002:0000d1a8       ??_C@_1M@JKFFICHJ@?$AAe?$AAs?$AA?9?$AAv?$AAe@ 00000001400481a8     libucrtd:lcidtoname_downlevel.obj
 0002:0000d1b8       ??_C@_1M@PNMLOJDF@?$AAe?$AAt?$AA?9?$AAe?$AAe@ 00000001400481b8     libucrtd:lcidtoname_downlevel.obj
 0002:0000d1c8       ??_C@_1M@GHHLIKEI@?$AAe?$AAu?$AA?9?$AAe?$AAs@ 00000001400481c8     libucrtd:lcidtoname_downlevel.obj
 0002:0000d1d8       ??_C@_1M@PBNONODE@?$AAf?$AAa?$AA?9?$AAi?$AAr@ 00000001400481d8     libucrtd:lcidtoname_downlevel.obj
 0002:0000d1e8       ??_C@_1M@JEEHPMIL@?$AAf?$AAi?$AA?9?$AAf?$AAi@ 00000001400481e8     libucrtd:lcidtoname_downlevel.obj
 0002:0000d1f8       ??_C@_1M@LMDCNDBA@?$AAf?$AAo?$AA?9?$AAf?$AAo@ 00000001400481f8     libucrtd:lcidtoname_downlevel.obj
 0002:0000d208       ??_C@_1M@JKEOHLDK@?$AAf?$AAr?$AA?9?$AAb?$AAe@ 0000000140048208     libucrtd:lcidtoname_downlevel.obj
 0002:0000d218       ??_C@_1M@NOHADPMI@?$AAf?$AAr?$AA?9?$AAc?$AAa@ 0000000140048218     libucrtd:lcidtoname_downlevel.obj
 0002:0000d228       ??_C@_1M@KDHIHAEC@?$AAf?$AAr?$AA?9?$AAc?$AAh@ 0000000140048228     libucrtd:lcidtoname_downlevel.obj
 0002:0000d238       ??_C@_1M@MMBBFGAK@?$AAf?$AAr?$AA?9?$AAf?$AAr@ 0000000140048238     libucrtd:lcidtoname_downlevel.obj
 0002:0000d248       ??_C@_1M@PAFNENNF@?$AAf?$AAr?$AA?9?$AAl?$AAu@ 0000000140048248     libucrtd:lcidtoname_downlevel.obj
 0002:0000d258       ??_C@_1M@EOHDJGDD@?$AAf?$AAr?$AA?9?$AAm?$AAc@ 0000000140048258     libucrtd:lcidtoname_downlevel.obj
 0002:0000d268       ??_C@_1M@FAPLLOPF@?$AAg?$AAl?$AA?9?$AAe?$AAs@ 0000000140048268     libucrtd:lcidtoname_downlevel.obj
 0002:0000d278       ??_C@_1M@FOPBFLOO@?$AAg?$AAu?$AA?9?$AAi?$AAn@ 0000000140048278     libucrtd:lcidtoname_downlevel.obj
 0002:0000d288       ??_C@_1M@KBMCINPM@?$AAh?$AAe?$AA?9?$AAi?$AAl@ 0000000140048288     libucrtd:lcidtoname_downlevel.obj
 0002:0000d298       ??_C@_1M@BBPHKFPJ@?$AAh?$AAi?$AA?9?$AAi?$AAn@ 0000000140048298     libucrtd:lcidtoname_downlevel.obj
 0002:0000d2a8       ??_C@_1M@PMBNDPHD@?$AAh?$AAr?$AA?9?$AAb?$AAa@ 00000001400482a8     libucrtd:lcidtoname_downlevel.obj
 0002:0000d2b8       ??_C@_1M@BPCKOEGE@?$AAh?$AAr?$AA?9?$AAh?$AAr@ 00000001400482b8     libucrtd:lcidtoname_downlevel.obj
 0002:0000d2c8       ??_C@_1M@GACBMHKE@?$AAh?$AAu?$AA?9?$AAh?$AAu@ 00000001400482c8     libucrtd:lcidtoname_downlevel.obj
 0002:0000d2d8       ??_C@_1M@MILPAJJC@?$AAh?$AAy?$AA?9?$AAa?$AAm@ 00000001400482d8     libucrtd:lcidtoname_downlevel.obj
 0002:0000d2e8       ??_C@_1M@BABBICEC@?$AAi?$AAd?$AA?9?$AAi?$AAd@ 00000001400482e8     libucrtd:lcidtoname_downlevel.obj
 0002:0000d2f8       ??_C@_1M@BIKNHHPF@?$AAi?$AAs?$AA?9?$AAi?$AAs@ 00000001400482f8     libucrtd:lcidtoname_downlevel.obj
 0002:0000d308       ??_C@_1M@NMPCJPHE@?$AAi?$AAt?$AA?9?$AAc?$AAh@ 0000000140048308     libucrtd:lcidtoname_downlevel.obj
 0002:0000d318       ??_C@_1M@GHKGFEDF@?$AAi?$AAt?$AA?9?$AAi?$AAt@ 0000000140048318     libucrtd:lcidtoname_downlevel.obj
 0002:0000d328       ??_C@_1M@NIEJCJJA@?$AAj?$AAa?$AA?9?$AAj?$AAp@ 0000000140048328     libucrtd:lcidtoname_downlevel.obj
 0002:0000d338       ??_C@_1M@JILFNBIM@?$AAk?$AAa?$AA?9?$AAg?$AAe@ 0000000140048338     libucrtd:lcidtoname_downlevel.obj
 0002:0000d348       ??_C@_1M@PACPMGPH@?$AAk?$AAk?$AA?9?$AAk?$AAz@ 0000000140048348     libucrtd:lcidtoname_downlevel.obj
 0002:0000d358       ??_C@_1M@IELFGMHA@?$AAk?$AAn?$AA?9?$AAi?$AAn@ 0000000140048358     libucrtd:lcidtoname_downlevel.obj
 0002:0000d368       ??_C@_1O@IBBJHCH@?$AAk?$AAo?$AAk?$AA?9?$AAi?$AAn@ 0000000140048368     libucrtd:lcidtoname_downlevel.obj
 0002:0000d378       ??_C@_1M@DMHAEOGC@?$AAk?$AAo?$AA?9?$AAk?$AAr@ 0000000140048378     libucrtd:lcidtoname_downlevel.obj
 0002:0000d388       ??_C@_1M@HBAHBIGA@?$AAk?$AAy?$AA?9?$AAk?$AAg@ 0000000140048388     libucrtd:lcidtoname_downlevel.obj
 0002:0000d398       ??_C@_1M@KPMILCJG@?$AAl?$AAt?$AA?9?$AAl?$AAt@ 0000000140048398     libucrtd:lcidtoname_downlevel.obj
 0002:0000d3a8       ??_C@_1M@BDEKKCA@?$AAl?$AAv?$AA?9?$AAl?$AAv@ 00000001400483a8     libucrtd:lcidtoname_downlevel.obj
 0002:0000d3b8       ??_C@_1M@ELCKCCJJ@?$AAm?$AAi?$AA?9?$AAn?$AAz@ 00000001400483b8     libucrtd:lcidtoname_downlevel.obj
 0002:0000d3c8       ??_C@_1M@CBOOLAPA@?$AAm?$AAk?$AA?9?$AAm?$AAk@ 00000001400483c8     libucrtd:lcidtoname_downlevel.obj
 0002:0000d3d8       ??_C@_1M@GPHNBJKN@?$AAm?$AAl?$AA?9?$AAi?$AAn@ 00000001400483d8     libucrtd:lcidtoname_downlevel.obj
 0002:0000d3e8       ??_C@_1M@PABJILIG@?$AAm?$AAn?$AA?9?$AAm?$AAn@ 00000001400483e8     libucrtd:lcidtoname_downlevel.obj
 0002:0000d3f8       ??_C@_1M@FGBKKIPG@?$AAm?$AAr?$AA?9?$AAi?$AAn@ 00000001400483f8     libucrtd:lcidtoname_downlevel.obj
 0002:0000d408       ??_C@_1M@NDBPDDAL@?$AAm?$AAs?$AA?9?$AAb?$AAn@ 0000000140048408     libucrtd:lcidtoname_downlevel.obj
 0002:0000d418       ??_C@_1M@OPIHOOPI@?$AAm?$AAs?$AA?9?$AAm?$AAy@ 0000000140048418     libucrtd:lcidtoname_downlevel.obj
 0002:0000d428       ??_C@_1M@PPDBCNFM@?$AAm?$AAt?$AA?9?$AAm?$AAt@ 0000000140048428     libucrtd:lcidtoname_downlevel.obj
 0002:0000d438       ??_C@_1M@KDJDKMDD@?$AAn?$AAb?$AA?9?$AAn?$AAo@ 0000000140048438     libucrtd:lcidtoname_downlevel.obj
 0002:0000d448       ??_C@_1M@KFCFLMJP@?$AAn?$AAl?$AA?9?$AAb?$AAe@ 0000000140048448     libucrtd:lcidtoname_downlevel.obj
 0002:0000d458       ??_C@_1M@KPOPDDGO@?$AAn?$AAl?$AA?9?$AAn?$AAl@ 0000000140048458     libucrtd:lcidtoname_downlevel.obj
 0002:0000d468       ??_C@_1M@LJKPEMLN@?$AAn?$AAn?$AA?9?$AAn?$AAo@ 0000000140048468     libucrtd:lcidtoname_downlevel.obj
 0002:0000d478       ??_C@_1M@BDGHHBFL@?$AAn?$AAs?$AA?9?$AAz?$AAa@ 0000000140048478     libucrtd:lcidtoname_downlevel.obj
 0002:0000d488       ??_C@_1M@IDEHOAP@?$AAp?$AAa?$AA?9?$AAi?$AAn@ 0000000140048488     libucrtd:lcidtoname_downlevel.obj
 0002:0000d498       ??_C@_1M@HDBKGOGH@?$AAp?$AAl?$AA?9?$AAp?$AAl@ 0000000140048498     libucrtd:lcidtoname_downlevel.obj
 0002:0000d4a8       ??_C@_1M@LJLLCMEH@?$AAp?$AAt?$AA?9?$AAb?$AAr@ 00000001400484a8     libucrtd:lcidtoname_downlevel.obj
 0002:0000d4b8       ??_C@_1M@NCMONAAL@?$AAp?$AAt?$AA?9?$AAp?$AAt@ 00000001400484b8     libucrtd:lcidtoname_downlevel.obj
 0002:0000d4c8       ??_C@_1O@EAKMAJDN@?$AAq?$AAu?$AAz?$AA?9?$AAb?$AAo@ 00000001400484c8     libucrtd:lcidtoname_downlevel.obj
 0002:0000d4d8       ??_C@_1O@BHHPIGDN@?$AAq?$AAu?$AAz?$AA?9?$AAe?$AAc@ 00000001400484d8     libucrtd:lcidtoname_downlevel.obj
 0002:0000d4e8       ??_C@_1O@GBAPEKMJ@?$AAq?$AAu?$AAz?$AA?9?$AAp?$AAe@ 00000001400484e8     libucrtd:lcidtoname_downlevel.obj
 0002:0000d4f8       ??_C@_1M@CLGLEFBO@?$AAr?$AAo?$AA?9?$AAr?$AAo@ 00000001400484f8     libucrtd:lcidtoname_downlevel.obj
 0002:0000d508       ??_C@_1M@CEEDODME@?$AAr?$AAu?$AA?9?$AAr?$AAu@ 0000000140048508     libucrtd:lcidtoname_downlevel.obj
 0002:0000d518       ??_C@_1M@HPKKKMPP@?$AAs?$AAa?$AA?9?$AAi?$AAn@ 0000000140048518     libucrtd:lcidtoname_downlevel.obj
 0002:0000d528       ??_C@_1M@BKMAIGOJ@?$AAs?$AAe?$AA?9?$AAf?$AAi@ 0000000140048528     libucrtd:lcidtoname_downlevel.obj
 0002:0000d538       ??_C@_1M@NDPIFLFI@?$AAs?$AAe?$AA?9?$AAn?$AAo@ 0000000140048538     libucrtd:lcidtoname_downlevel.obj
 0002:0000d548       ??_C@_1M@DANKKHJ@?$AAs?$AAe?$AA?9?$AAs?$AAe@ 0000000140048548     libucrtd:lcidtoname_downlevel.obj
 0002:0000d558       ??_C@_1M@PNBLONPJ@?$AAs?$AAk?$AA?9?$AAs?$AAk@ 0000000140048558     libucrtd:lcidtoname_downlevel.obj
 0002:0000d568       ??_C@_1M@LFMODOAL@?$AAs?$AAl?$AA?9?$AAs?$AAi@ 0000000140048568     libucrtd:lcidtoname_downlevel.obj
 0002:0000d578       ??_C@_1O@DFKOMPG@?$AAs?$AAm?$AAa?$AA?9?$AAn?$AAo@ 0000000140048578     libucrtd:lcidtoname_downlevel.obj
 0002:0000d588       ??_C@_1O@NDKPBNNH@?$AAs?$AAm?$AAa?$AA?9?$AAs?$AAe@ 0000000140048588     libucrtd:lcidtoname_downlevel.obj
 0002:0000d598       ??_C@_1O@PLLKBHAB@?$AAs?$AAm?$AAj?$AA?9?$AAn?$AAo@ 0000000140048598     libucrtd:lcidtoname_downlevel.obj
 0002:0000d5a8       ??_C@_1O@CLEPOGCA@?$AAs?$AAm?$AAj?$AA?9?$AAs?$AAe@ 00000001400485a8     libucrtd:lcidtoname_downlevel.obj
 0002:0000d5b8       ??_C@_1O@DLGJGKMK@?$AAs?$AAm?$AAn?$AA?9?$AAf?$AAi@ 00000001400485b8     libucrtd:lcidtoname_downlevel.obj
 0002:0000d5c8       ??_C@_1O@OJDJGAJC@?$AAs?$AAm?$AAs?$AA?9?$AAf?$AAi@ 00000001400485c8     libucrtd:lcidtoname_downlevel.obj
 0002:0000d5d8       ??_C@_1M@BOFOGHPB@?$AAs?$AAq?$AA?9?$AAa?$AAl@ 00000001400485d8     libucrtd:lcidtoname_downlevel.obj
 0002:0000d5e8       ??_C@_1BG@LJBBIPGB@?$AAs?$AAr?$AA?9?$AAb?$AAa?$AA?9?$AAc?$AAy?$AAr?$AAl@ 00000001400485e8     libucrtd:lcidtoname_downlevel.obj
 0002:0000d600       ??_C@_1BG@JLBENFOE@?$AAs?$AAr?$AA?9?$AAb?$AAa?$AA?9?$AAl?$AAa?$AAt?$AAn@ 0000000140048600     libucrtd:lcidtoname_downlevel.obj
 0002:0000d618       ??_C@_1BG@KODPNHE@?$AAs?$AAr?$AA?9?$AAs?$AAp?$AA?9?$AAc?$AAy?$AAr?$AAl@ 0000000140048618     libucrtd:lcidtoname_downlevel.obj
 0002:0000d630       ??_C@_1BG@CIOGKHPB@?$AAs?$AAr?$AA?9?$AAs?$AAp?$AA?9?$AAl?$AAa?$AAt?$AAn@ 0000000140048630     libucrtd:lcidtoname_downlevel.obj
 0002:0000d648       ??_C@_1M@NGFJLMAC@?$AAs?$AAv?$AA?9?$AAf?$AAi@ 0000000140048648     libucrtd:lcidtoname_downlevel.obj
 0002:0000d658       ??_C@_1M@MPJEJAJC@?$AAs?$AAv?$AA?9?$AAs?$AAe@ 0000000140048658     libucrtd:lcidtoname_downlevel.obj
 0002:0000d668       ??_C@_1M@MPNDHLFK@?$AAs?$AAw?$AA?9?$AAk?$AAe@ 0000000140048668     libucrtd:lcidtoname_downlevel.obj
 0002:0000d678       ??_C@_1O@KOHBJJI@?$AAs?$AAy?$AAr?$AA?9?$AAs?$AAy@ 0000000140048678     libucrtd:lcidtoname_downlevel.obj
 0002:0000d688       ??_C@_1M@LDCEFHA@?$AAt?$AAa?$AA?9?$AAi?$AAn@ 0000000140048688     libucrtd:lcidtoname_downlevel.obj
 0002:0000d698       ??_C@_1M@CNJOFAK@?$AAt?$AAe?$AA?9?$AAi?$AAn@ 0000000140048698     libucrtd:lcidtoname_downlevel.obj
 0002:0000d6a8       ??_C@_1M@GNAECACD@?$AAt?$AAh?$AA?9?$AAt?$AAh@ 00000001400486a8     libucrtd:lcidtoname_downlevel.obj
 0002:0000d6b8       ??_C@_1M@CHBIHOJO@?$AAt?$AAn?$AA?9?$AAz?$AAa@ 00000001400486b8     libucrtd:lcidtoname_downlevel.obj
 0002:0000d6c8       ??_C@_1M@GCCMIGPJ@?$AAt?$AAr?$AA?9?$AAt?$AAr@ 00000001400486c8     libucrtd:lcidtoname_downlevel.obj
 0002:0000d6d8       ??_C@_1M@CELMCNBK@?$AAt?$AAt?$AA?9?$AAr?$AAu@ 00000001400486d8     libucrtd:lcidtoname_downlevel.obj
 0002:0000d6e8       ??_C@_1M@KLMCELGA@?$AAu?$AAk?$AA?9?$AAu?$AAa@ 00000001400486e8     libucrtd:lcidtoname_downlevel.obj
 0002:0000d6f8       ??_C@_1M@EPAJJAJF@?$AAu?$AAr?$AA?9?$AAp?$AAk@ 00000001400486f8     libucrtd:lcidtoname_downlevel.obj
 0002:0000d708       ??_C@_1BG@GEGPMCDJ@?$AAu?$AAz?$AA?9?$AAu?$AAz?$AA?9?$AAc?$AAy?$AAr?$AAl@ 0000000140048708     libucrtd:lcidtoname_downlevel.obj
 0002:0000d720       ??_C@_1BG@EGGKJILM@?$AAu?$AAz?$AA?9?$AAu?$AAz?$AA?9?$AAl?$AAa?$AAt?$AAn@ 0000000140048720     libucrtd:lcidtoname_downlevel.obj
 0002:0000d738       ??_C@_1M@GFOCLFF@?$AAv?$AAi?$AA?9?$AAv?$AAn@ 0000000140048738     libucrtd:lcidtoname_downlevel.obj
 0002:0000d748       ??_C@_1M@CPAMEDFI@?$AAx?$AAh?$AA?9?$AAz?$AAa@ 0000000140048748     libucrtd:lcidtoname_downlevel.obj
 0002:0000d758       ??_C@_1O@EBKIFIGN@?$AAz?$AAh?$AA?9?$AAc?$AAh?$AAs@ 0000000140048758     libucrtd:lcidtoname_downlevel.obj
 0002:0000d768       ??_C@_1O@NMHPGANE@?$AAz?$AAh?$AA?9?$AAc?$AAh?$AAt@ 0000000140048768     libucrtd:lcidtoname_downlevel.obj
 0002:0000d778       ??_C@_1M@LPINJOMC@?$AAz?$AAh?$AA?9?$AAc?$AAn@ 0000000140048778     libucrtd:lcidtoname_downlevel.obj
 0002:0000d788       ??_C@_1M@OCJEJODD@?$AAz?$AAh?$AA?9?$AAh?$AAk@ 0000000140048788     libucrtd:lcidtoname_downlevel.obj
 0002:0000d798       ??_C@_1M@DNDLJINH@?$AAz?$AAh?$AA?9?$AAm?$AAo@ 0000000140048798     libucrtd:lcidtoname_downlevel.obj
 0002:0000d7a8       ??_C@_1M@MBFDNDND@?$AAz?$AAh?$AA?9?$AAs?$AAg@ 00000001400487a8     libucrtd:lcidtoname_downlevel.obj
 0002:0000d7b8       ??_C@_1M@IMEPLEPE@?$AAz?$AAh?$AA?9?$AAt?$AAw@ 00000001400487b8     libucrtd:lcidtoname_downlevel.obj
 0002:0000d7c8       ??_C@_1M@BBGHNHJP@?$AAz?$AAu?$AA?9?$AAz?$AAa@ 00000001400487c8     libucrtd:lcidtoname_downlevel.obj
 0002:0000d7e0       ??_C@_1GA@DEPMKPD@?$AAm?$AAi?$AAn?$AAk?$AAe?$AAr?$AAn?$AAe?$AAl?$AA?2?$AAc?$AAr?$AAt?$AAs?$AA?2@ 00000001400487e0     libucrtd:isatty.obj
 0002:0000d840       ??_C@_1BA@LEBDGIHM@?$AA_?$AAi?$AAs?$AAa?$AAt?$AAt?$AAy@ 0000000140048840     libucrtd:isatty.obj
 0002:0000d850       ??_C@_1GG@MCCIENJO@?$AAm?$AAi?$AAn?$AAk?$AAe?$AAr?$AAn?$AAe?$AAl?$AA?2?$AAc?$AAr?$AAt?$AAs?$AA?2@ 0000000140048850     libucrtd:mbrtowc.obj
 0002:0000d8c0       ??_C@_1EK@MCEFBPIK@?$AAr?$AAe?$AAt?$AAv?$AAa?$AAl?$AA?5?$AA?$CB?$AA?$DN?$AA?5?$AA_?$AA_?$AAc?$AAr?$AAt@ 00000001400488c0     libucrtd:mbrtowc.obj
 0002:0000d910       ??_C@_1EK@OANGPA@?$AA1?$AA?5?$AA?$DM?$AA?$DN?$AA?5?$AAt?$AAr?$AAa?$AAi?$AAl?$AA_?$AAb?$AAy?$AAt?$AAe@ 0000000140048910     libucrtd:c32rtomb.obj
 0002:0000d960       ??_C@_1GI@FBFKMNDD@?$AAm?$AAi?$AAn?$AAk?$AAe?$AAr?$AAn?$AAe?$AAl?$AA?2?$AAc?$AAr?$AAt?$AAs?$AA?2@ 0000000140048960     libucrtd:c32rtomb.obj
 0002:0000d9d0       ??_C@_1EA@DDDCIHI@?$AAc?$AA3?$AA2?$AA?5?$AA?$DM?$AA?5?$AA?$CI?$AA1?$AAu?$AA?5?$AA?$DM?$AA?$DM?$AA?5?$AA?$CI?$AA7@ 00000001400489d0     libucrtd:c32rtomb.obj
 0002:0000da10       ??_C@_1GI@IMEEHIAK@?$AAm?$AAi?$AAn?$AAk?$AAe?$AAr?$AAn?$AAe?$AAl?$AA?2?$AAc?$AAr?$AAt?$AAs?$AA?2@ 0000000140048a10     libucrtd:_fptostr.obj
 0002:0000da78       ??_C@_1DG@NMGBKPMI@?$AA_?$AA_?$AAa?$AAc?$AAr?$AAt?$AA_?$AAf?$AAp?$AA_?$AAs?$AAt?$AAr?$AAf?$AAl@ 0000000140048a78     libucrtd:_fptostr.obj
 0002:0000dab0       ??_C@_1IE@EAOKIIFP@?$AAb?$AAu?$AAf?$AAf?$AAe?$AAr?$AA_?$AAc?$AAo?$AAu?$AAn?$AAt?$AA?5?$AA?$DO?$AA?5@ 0000000140048ab0     libucrtd:_fptostr.obj
 0002:0000db38       ??_C@_1CA@EDEEBMBB@?$AAp?$AAf?$AAl?$AAt?$AA?5?$AA?$CB?$AA?$DN?$AA?5?$AAn?$AAu?$AAl?$AAl?$AAp?$AAt?$AAr@ 0000000140048b38     libucrtd:_fptostr.obj
 0002:0000db60       ?large_power_data@?1??multiply_by_power_of_ten@__crt_strtox@@YA_NAEAUbig_integer@2@I@Z@4QBIB 0000000140048b60     libucrtd:cfout.obj
 0002:0000e470       ?large_power_indices@?1??multiply_by_power_of_ten@__crt_strtox@@YA_NAEAUbig_integer@2@I@Z@4QBUunpack_index@?1??12@YA_N0I@Z@B 0000000140049470     libucrtd:cfout.obj
 0002:0000e508       ?small_powers_of_ten@?1??multiply_by_power_of_ten@__crt_strtox@@YA_NAEAUbig_integer@2@I@Z@4QBIB 0000000140049508     libucrtd:cfout.obj
 0002:0000e530       ??_C@_1DI@GICAMMFM@?$AA?$CI?$AA?$CC?$AAD?$AAi?$AAv?$AAi?$AAs?$AAi?$AAo?$AAn?$AA?5?$AAb?$AAy?$AA?5?$AAz@ 0000000140049530     libucrtd:cfout.obj
 0002:0000e570       ??_C@_1GO@BFGDDONN@?$AAm?$AAi?$AAn?$AAk?$AAe?$AAr?$AAn?$AAe?$AAl?$AA?2?$AAc?$AAr?$AAt?$AAs?$AA?2@ 0000000140049570     libucrtd:cfout.obj
 0002:0000e5e0       ??_C@_1GC@DDAKNBNC@?$AAm?$AAi?$AAn?$AAk?$AAe?$AAr?$AAn?$AAe?$AAl?$AA?2?$AAc?$AAr?$AAt?$AAs?$AA?2@ 00000001400495e0     libucrtd:cfout.obj
 0002:0000e648       ??_C@_1BM@FAAOAKKO@?$AA_?$AA_?$AAa?$AAc?$AAr?$AAt?$AA_?$AAf?$AAl?$AAt?$AAo?$AAu?$AAt@ 0000000140049648     libucrtd:cfout.obj
 0002:0000e670       ??_C@_1EI@OACEJKEP@?$AAs?$AAt?$AAr?$AAc?$AAp?$AAy?$AA_?$AAs?$AA?$CI?$AAr?$AAe?$AAs?$AAu?$AAl?$AAt@ 0000000140049670     libucrtd:cfout.obj
 0002:0000e6b8       ??_C@_01GBGANLPD@0@        00000001400496b8     libucrtd:cfout.obj
 0002:0000e6c0       ??_C@_1FC@KIECGFMP@?$AAs?$AAt?$AAr?$AAc?$AAp?$AAy?$AA_?$AAs?$AA?$CI?$AAr?$AAe?$AAs?$AAu?$AAl?$AAt@ 00000001400496c0     libucrtd:cfout.obj
 0002:0000e714       ??_C@_05DNEBIAHO@1?$CDINF@ 0000000140049714     libucrtd:cfout.obj
 0002:0000e720       ??_C@_1FC@NFPJEIBD@?$AAs?$AAt?$AAr?$AAc?$AAp?$AAy?$AA_?$AAs?$AA?$CI?$AAr?$AAe?$AAs?$AAu?$AAl?$AAt@ 0000000140049720     libucrtd:cfout.obj
 0002:0000e774       ??_C@_06IMKFLFPG@1?$CDQNAN@ 0000000140049774     libucrtd:cfout.obj
 0002:0000e780       ??_C@_1FC@DEJHIMLO@?$AAs?$AAt?$AAr?$AAc?$AAp?$AAy?$AA_?$AAs?$AA?$CI?$AAr?$AAe?$AAs?$AAu?$AAl?$AAt@ 0000000140049780     libucrtd:cfout.obj
 0002:0000e7d4       ??_C@_06PGGFOGJG@1?$CDSNAN@ 00000001400497d4     libucrtd:cfout.obj
 0002:0000e7e0       ??_C@_1FC@KMLHLFPC@?$AAs?$AAt?$AAr?$AAc?$AAp?$AAy?$AA_?$AAs?$AA?$CI?$AAr?$AAe?$AAs?$AAu?$AAl?$AAt@ 00000001400497e0     libucrtd:cfout.obj
 0002:0000e834       ??_C@_05PHHOCPM@1?$CDIND@  0000000140049834     libucrtd:cfout.obj
 0002:0000e840       ??_C@_1DE@KHKADFOO@?$AAm?$AAa?$AAn?$AAt?$AAi?$AAs?$AAs?$AAa?$AA_?$AAb?$AAu?$AAf?$AAf?$AAe?$AAr@ 0000000140049840     libucrtd:cfout.obj
 0002:0000e880       ??_C@_1FI@LFKLOPAC@?$AA?$CI?$AA?$CC?$AAu?$AAn?$AAe?$AAx?$AAp?$AAe?$AAc?$AAt?$AAe?$AAd?$AA?5?$AAi?$AAn@ 0000000140049880     libucrtd:cfout.obj
 0002:0000e8e0       ??_C@_1FG@MLHBDPBG@?$AAq?$AAu?$AAo?$AAt?$AAi?$AAe?$AAn?$AAt?$AA?5?$AA?$DM?$AA?5?$AAd?$AAi?$AAg?$AAi@ 00000001400498e0     libucrtd:cfout.obj
 0002:0000e940       ??_C@_1GE@GPOPIOIG@?$AAm?$AAi?$AAn?$AAk?$AAe?$AAr?$AAn?$AAe?$AAl?$AA?2?$AAc?$AAr?$AAt?$AAs?$AA?2@ 0000000140049940     libucrtd:_freebuf.obj
 0002:0000e9a8       ??_C@_1BK@FPAMLIDG@?$AAs?$AA?5?$AA?$CB?$AA?$DN?$AA?5?$AAn?$AAu?$AAl?$AAl?$AAp?$AAt?$AAr@ 00000001400499a8     libucrtd:mbstowcs.obj
 0002:0000e9d0       ??_C@_1GI@KABMHNPH@?$AAm?$AAi?$AAn?$AAk?$AAe?$AAr?$AAn?$AAe?$AAl?$AA?2?$AAc?$AAr?$AAt?$AAs?$AA?2@ 00000001400499d0     libucrtd:mbstowcs.obj
 0002:0000ea38       ??_C@_1CG@JEHFHLNG@?$AA_?$AAm?$AAb?$AAs?$AAt?$AAo?$AAw?$AAc?$AAs?$AA_?$AAl?$AA_?$AAh?$AAe?$AAl@ 0000000140049a38     libucrtd:mbstowcs.obj
 0002:0000ea60       ??_C@_1JM@MEKBACIG@?$AA?$CI?$AAp?$AAw?$AAc?$AAs?$AA?5?$AA?$DN?$AA?$DN?$AA?5?$AAn?$AAu?$AAl?$AAl?$AAp?$AAt@ 0000000140049a60     libucrtd:mbstowcs.obj
 0002:0000eb00       ??_C@_1BM@PHENIGHD@?$AA_?$AAm?$AAb?$AAs?$AAt?$AAo?$AAw?$AAc?$AAs?$AA_?$AAs?$AA_?$AAl@ 0000000140049b00     libucrtd:mbstowcs.obj
 0002:0000eb20       ??_C@_1CM@LLECFMFH@?$AAb?$AAu?$AAf?$AAf?$AAe?$AAr?$AAS?$AAi?$AAz?$AAe?$AA?5?$AA?$DM?$AA?$DN?$AA?5?$AAI@ 0000000140049b20     libucrtd:mbstowcs.obj
 0002:0000eb50       ??_C@_1CO@JNPEPJAL@?$AAr?$AAe?$AAt?$AAs?$AAi?$AAz?$AAe?$AA?5?$AA?$DM?$AA?$DN?$AA?5?$AAs?$AAi?$AAz?$AAe@ 0000000140049b50     libucrtd:mbstowcs.obj
 0002:0000eba8       ??_C@_1CA@NOKNKDIG@?$AAp?$AAw?$AAc?$AAs?$AA?5?$AA?$CB?$AA?$DN?$AA?5?$AAn?$AAu?$AAl?$AAl?$AAp?$AAt?$AAr@ 0000000140049ba8     libucrtd:wcstombs.obj
 0002:0000ebd0       ??_C@_1GI@EEJDEALP@?$AAm?$AAi?$AAn?$AAk?$AAe?$AAr?$AAn?$AAe?$AAl?$AA?2?$AAc?$AAr?$AAt?$AAs?$AA?2@ 0000000140049bd0     libucrtd:wcstombs.obj
 0002:0000ec38       ??_C@_1CG@LLJCAOHF@?$AA_?$AAw?$AAc?$AAs?$AAt?$AAo?$AAm?$AAb?$AAs?$AA_?$AAl?$AA_?$AAh?$AAe?$AAl@ 0000000140049c38     libucrtd:wcstombs.obj
 0002:0000ec60       ??_C@_1JI@DFNKFCLG@?$AA?$CI?$AAd?$AAs?$AAt?$AA?5?$AA?$CB?$AA?$DN?$AA?5?$AAn?$AAu?$AAl?$AAl?$AAp?$AAt?$AAr@ 0000000140049c60     libucrtd:wcstombs.obj
 0002:0000ecf8       ??_C@_1BM@BDMCLLDL@?$AA_?$AAw?$AAc?$AAs?$AAt?$AAo?$AAm?$AAb?$AAs?$AA_?$AAs?$AA_?$AAl@ 0000000140049cf8     libucrtd:wcstombs.obj
 0002:0000ed18       ??_C@_1CM@KEOGBFLI@?$AAs?$AAi?$AAz?$AAe?$AAI?$AAn?$AAB?$AAy?$AAt?$AAe?$AAs?$AA?5?$AA?$DO?$AA?5?$AAr@ 0000000140049d18     libucrtd:wcstombs.obj
 0002:0000ed50       ??_C@_1GA@MPOOLHCO@?$AAm?$AAi?$AAn?$AAk?$AAe?$AAr?$AAn?$AAe?$AAl?$AA?2?$AAc?$AAr?$AAt?$AAs?$AA?2@ 0000000140049d50     libucrtd:commit.obj
 0002:0000edb0       ??_C@_1BA@FLNMBBIM@?$AA_?$AAc?$AAo?$AAm?$AAm?$AAi?$AAt@ 0000000140049db0     libucrtd:commit.obj
 0002:0000edc0       ??_C@_1FO@CAMPMGCN@?$AAm?$AAi?$AAn?$AAk?$AAe?$AAr?$AAn?$AAe?$AAl?$AA?2?$AAc?$AAr?$AAt?$AAs?$AA?2@ 0000000140049dc0     libucrtd:write.obj
 0002:0000ee20       ??_C@_1O@KOFKDHPL@?$AA_?$AAw?$AAr?$AAi?$AAt?$AAe@ 0000000140049e20     libucrtd:write.obj
 0002:0000ee30       ??_C@_1CK@MMEFCHHN@?$AA?$CB?$AA_?$AAd?$AAb?$AAc?$AAs?$AAB?$AAu?$AAf?$AAf?$AAe?$AAr?$AAU?$AAs?$AAe@ 0000000140049e30     libucrtd:write.obj
 0002:0000ee60       ??_C@_1EG@LICJGLJJ@?$AA1?$AA?5?$AA?$DM?$AA?5?$AAm?$AAb?$AA_?$AAl?$AAe?$AAn?$AA?5?$AA?$CG?$AA?$CG?$AA?5?$AAm@ 0000000140049e60     libucrtd:write.obj
 0002:0000eeb0       ??_C@_1FC@NFILPJB@?$AAm?$AAb?$AA_?$AAb?$AAu?$AAf?$AA_?$AAu?$AAs?$AAe?$AAd?$AA?5?$AA?$CL?$AA?5?$AAb@ 0000000140049eb0     libucrtd:write.obj
 0002:0000ef10       ??_C@_1FC@HEJOPHLA@?$AAa?$AAv?$AAa?$AAi?$AAl?$AAa?$AAb?$AAl?$AAe?$AA_?$AAb?$AAy?$AAt?$AAe?$AAs@ 0000000140049f10     libucrtd:write.obj
 0002:0000ef68       ??_C@_1DI@CNMHHHLG@?$AAi?$AAs?$AAl?$AAe?$AAa?$AAd?$AAb?$AAy?$AAt?$AAe?$AA?$CI?$AA_?$AAd?$AAb?$AAc@ 0000000140049f68     libucrtd:write.obj
 0002:0000efa0       ??_C@_1BM@NCANHCIP@?$AA_?$AAw?$AAr?$AAi?$AAt?$AAe?$AA_?$AAn?$AAo?$AAl?$AAo?$AAc?$AAk@ 0000000140049fa0     libucrtd:write.obj
 0002:0000efc0       ??_C@_1CK@CPEAGIIP@?$AAb?$AAu?$AAf?$AAf?$AAe?$AAr?$AA_?$AAs?$AAi?$AAz?$AAe?$AA?5?$AA?$CF?$AA?5?$AA2@ 0000000140049fc0     libucrtd:write.obj
 0002:0000f240       __real@3ff0000000000000    000000014004a240     libucrtd:ceil.obj
 0002:0000f248       ??_C@_1DG@JNDMIEJL@?$AA?$CI?$AA?$CC?$AAI?$AAn?$AAv?$AAa?$AAl?$AAi?$AAd?$AA?5?$AAi?$AAn?$AAp?$AAu?$AAt@ 000000014004a248     libucrtd:contrlfp.obj
 0002:0000f280       ??_C@_1FO@HHLKCIKB@?$AAm?$AAi?$AAn?$AAk?$AAe?$AAr?$AAn?$AAe?$AAl?$AA?2?$AAc?$AAr?$AAt?$AAs?$AA?2@ 000000014004a280     libucrtd:contrlfp.obj
 0002:0000f2e0       ??_C@_1BK@CDOALEA@?$AA_?$AAc?$AAo?$AAn?$AAt?$AAr?$AAo?$AAl?$AAf?$AAp?$AA_?$AAs@ 000000014004a2e0     libucrtd:contrlfp.obj
 0002:0000f300       ??_C@_1FO@KIIHJNFN@?$AAm?$AAi?$AAn?$AAk?$AAe?$AAr?$AAn?$AAe?$AAl?$AA?2?$AAc?$AAr?$AAt?$AAs?$AA?2@ 000000014004a300     libucrtd:lseek.obj
 0002:0000f360       ??_C@_1DM@LMLOLGJ@?$AA?$CI?$AA?$CC?$AAI?$AAn?$AAv?$AAa?$AAl?$AAi?$AAd?$AA?5?$AAf?$AAi?$AAl?$AAe?$AA?5@ 000000014004a360     libucrtd:lseek.obj
 0002:0000f3a0       ??_C@_1GA@DKNOMDCL@?$AAm?$AAi?$AAn?$AAk?$AAe?$AAr?$AAn?$AAe?$AAl?$AA?2?$AAc?$AAr?$AAt?$AAs?$AA?2@ 000000014004a3a0     libucrtd:fclose.obj
 0002:0000f400       ??_C@_1O@EGMJNCOI@?$AAf?$AAc?$AAl?$AAo?$AAs?$AAe@ 000000014004a400     libucrtd:fclose.obj
 0002:0000f410       ??_C@_1BO@JINCABEC@?$AA_?$AAf?$AAc?$AAl?$AAo?$AAs?$AAe?$AA_?$AAn?$AAo?$AAl?$AAo?$AAc?$AAk@ 000000014004a410     libucrtd:fclose.obj
 0002:0000f430       __log10_256_lead           000000014004a430     libucrtd:log10_256_lead_tail_table.obj
 0002:0000fc40       __log10_256_tail           000000014004ac40     libucrtd:log10_256_lead_tail_table.obj
 0002:00010450       __log_F_inv_qword          000000014004b450     libucrtd:log_f_inv_qword_table.obj
 0002:00010c60       ??_C@_05HGHHAHAP@log10@    000000014004bc60     libucrtd:log_special.obj
 0002:00010c70       ??_C@_1EK@PDBKILLM@?$AA?$CI?$AAm?$AAa?$AAs?$AAk?$AA?$CG?$AA?$HO?$AA?$CI?$AA_?$AAM?$AAC?$AAW?$AA_?$AAD?$AAN@ 000000014004bc70     libucrtd:ieee.obj
 0002:00010cc0       ??_C@_1GC@IEFABLII@?$AAm?$AAi?$AAn?$AAk?$AAe?$AAr?$AAn?$AAe?$AAl?$AA?2?$AAc?$AAr?$AAt?$AAs?$AA?2@ 000000014004bcc0     libucrtd:ieee.obj
 0002:00010d30       ??_C@_1FO@IPDGALOE@?$AAm?$AAi?$AAn?$AAk?$AAe?$AAr?$AAn?$AAe?$AAl?$AA?2?$AAc?$AAr?$AAt?$AAs?$AA?2@ 000000014004bd30     libucrtd:close.obj
 0002:00010d90       ??_C@_1O@EDEJGJBM@?$AA_?$AAc?$AAl?$AAo?$AAs?$AAe@ 000000014004bd90     libucrtd:close.obj
 0002:00010da0       ??_C@_1BA@BALFACEM@?$AAC?$AAO?$AAN?$AAO?$AAU?$AAT?$AA$@ 000000014004bda0     libucrtd:initcon.obj
 0002:00010dc8       ??_7type_info@@6B@         000000014004bdc8     LIBCMTD:std_type_info_static.obj
 0002:00010e30       _load_config_used          000000014004be30     LIBCMTD:loadcfg.obj
 0002:00010f80       ??_R4exception@std@@6B@    000000014004bf80     libvcruntimed:frame.obj
 0002:00010fa8       ??_R3exception@std@@8      000000014004bfa8     libvcruntimed:frame.obj
 0002:00010fc0       ??_R2exception@std@@8      000000014004bfc0     libvcruntimed:frame.obj
 0002:00010fd0       ??_R1A@?0A@EA@exception@std@@8 000000014004bfd0     libvcruntimed:frame.obj
 0002:00010ff8       ??_R4bad_exception@std@@6B@ 000000014004bff8     libvcruntimed:frame.obj
 0002:00011020       ??_R3bad_exception@std@@8  000000014004c020     libvcruntimed:frame.obj
 0002:00011038       ??_R2bad_exception@std@@8  000000014004c038     libvcruntimed:frame.obj
 0002:00011050       ??_R1A@?0A@EA@bad_exception@std@@8 000000014004c050     libvcruntimed:frame.obj
 0002:00011078       ??_R4type_info@@6B@        000000014004c078     LIBCMTD:std_type_info_static.obj
 0002:000110a0       ??_R3type_info@@8          000000014004c0a0     LIBCMTD:std_type_info_static.obj
 0002:000110b8       ??_R2type_info@@8          000000014004c0b8     LIBCMTD:std_type_info_static.obj
 0002:000110c8       ??_R1A@?0A@EA@type_info@@8 000000014004c0c8     LIBCMTD:std_type_info_static.obj
 0002:000110ec       __volatile_metadata        000000014004c0ec     <linker-defined>
 0002:00011508       __rtc_iaa                  000000014004c508     LIBCMTD:initsect.obj
 0002:00011510       __rtc_izz                  000000014004c510     LIBCMTD:initsect.obj
 0002:00011518       __rtc_taa                  000000014004c518     LIBCMTD:initsect.obj
 0002:00011520       __rtc_tzz                  000000014004c520     LIBCMTD:initsect.obj
 0002:00012630       _TI2?AVbad_exception@std@@ 000000014004d630     libvcruntimed:frame.obj
 0002:00012650       _CTA2?AVbad_exception@std@@ 000000014004d650     libvcruntimed:frame.obj
 0002:00012668       _CT??_R0?AVbad_exception@std@@@8??0bad_exception@std@@QEAA@AEBV01@@Z24 000000014004d668     libvcruntimed:frame.obj
 0002:00012690       _CT??_R0?AVexception@std@@@8??0exception@std@@QEAA@AEBV01@@Z24 000000014004d690     libvcruntimed:frame.obj
 0002:000126b4       __IMPORT_DESCRIPTOR_USER32 000000014004d6b4     user32:USER32.dll
 0002:000126c8       __IMPORT_DESCRIPTOR_GDI32  000000014004d6c8     gdi32:GDI32.dll
 0002:000126dc       __IMPORT_DESCRIPTOR_vulkan-1 000000014004d6dc     vulkan-1:vulkan-1.dll
 0002:000126f0       __IMPORT_DESCRIPTOR_KERNEL32 000000014004d6f0     kernel32:KERNEL32.dll
 0002:00012704       __NULL_IMPORT_DESCRIPTOR   000000014004d704     user32:USER32.dll
 0003:00000000       __scrt_native_dllmain_reason 000000014004f000     LIBCMTD:utility.obj
 0003:00000004       __scrt_default_matherr     000000014004f004     LIBCMTD:matherr.obj
 0003:00000008       __isa_available            000000014004f008     LIBCMTD:cpu_disp.obj
 0003:0000000c       __isa_enabled              000000014004f00c     LIBCMTD:cpu_disp.obj
 0003:00000010       __memcpy_nt_iters          000000014004f010     LIBCMTD:cpu_disp.obj
 0003:00000018       __memset_nt_iters          000000014004f018     LIBCMTD:cpu_disp.obj
 0003:00000020       __security_cookie_complement 000000014004f020     LIBCMTD:gs_cookie.obj
 0003:00000028       __security_cookie          000000014004f028     LIBCMTD:gs_cookie.obj
 0003:00000044       _crtDbgFlag                000000014004f044     libucrtd:debug_heap.obj
 0003:00000048       _crtBreakAlloc             000000014004f048     libucrtd:debug_heap.obj
 0003:00000050       __abort_behavior           000000014004f050     libucrtd:abort.obj
 0003:00000070       __acrt_initial_multibyte_data 000000014004f070     libucrtd:mbctype.obj
 0003:000005b0       __acrt_initial_locale_data 000000014004f5b0     libucrtd:nlsdata.obj
 0003:00000708       __acrt_initial_locale_pointers 000000014004f708     libucrtd:nlsdata.obj
 0003:00000718       __acrt_wide_c_locale_string 000000014004f718     libucrtd:nlsdata.obj
 0003:00000720       _pwctype                   000000014004f720     libucrtd:ctype.obj
 0003:00000730       __acrt_lconv_c             000000014004f730     libucrtd:localeconv.obj
 0003:000007c8       __acrt_lconv_static_decimal 000000014004f7c8     libucrtd:localeconv.obj
 0003:000007cc       __acrt_lconv_static_W_decimal 000000014004f7cc     libucrtd:localeconv.obj
 0003:000007d0       __globallocalestatus       000000014004f7d0     libucrtd:glstatus.obj
 0003:000007d8       _pfnAllocHook              000000014004f7d8     libucrtd:debug_heap_hook.obj
 0003:000007f0       _iob                       000000014004f7f0     libucrtd:_file.obj
 0003:000008f8       _crtAssertBusy             000000014004f8f8     libucrtd:dbgrptt.obj
 0003:00000900       _CrtDbgMode                000000014004f900     libucrtd:dbgrptt.obj
 0003:00000910       _CrtDbgFile                000000014004f910     libucrtd:dbgrptt.obj
 0003:00000930       _lookuptrailbytes          000000014004f930     libucrtd:read.obj
 0003:00000a50       _fltused                   000000014004fa50     LIBCMTD:fltused.obj
 0003:00000a60       ??_R0?AVbad_exception@std@@@8 000000014004fa60     libvcruntimed:frame.obj
 0003:00000a88       ??_R0?AVexception@std@@@8  000000014004fa88     libvcruntimed:frame.obj
 0003:00000ab0       ??_R0?AVtype_info@@@8      000000014004fab0     LIBCMTD:std_type_info_static.obj
 0003:00000ad0       __scrt_current_native_startup_state 000000014004fad0     LIBCMTD:utility.obj
 0003:00000ad8       __scrt_native_startup_lock 000000014004fad8     LIBCMTD:utility.obj
 0003:00000b20       ?__type_info_root_node@@3U__type_info_node@@A 000000014004fb20     LIBCMTD:tncleanup.obj
 0003:00000b30       ?_OptionsStorage@?1??__local_stdio_printf_options@@9@4_KA 000000014004fb30     LIBCMTD:default_local_stdio_options.obj
 0003:00000b38       ?_OptionsStorage@?1??__local_stdio_scanf_options@@9@4_KA 000000014004fb38     LIBCMTD:default_local_stdio_options.obj
 0003:00000b40       __scrt_debugger_hook_flag  000000014004fb40     LIBCMTD:utility_desktop.obj
 0003:00000b48       __castguard_check_failure_os_handled_fptr 000000014004fb48     LIBCMTD:guard_support.obj
 0003:00000b50       __favor                    000000014004fb50     LIBCMTD:cpu_disp.obj
 0003:000010d0       ?__WinRTOutOfMemoryExceptionCallback@@3P6APEAXXZEA 00000001400500d0     libvcruntimed:ehhelpers.obj
 0003:00001190       ?pArgList@UnDecorator@@0PEAVReplicator@@EA 0000000140050190     libvcruntimed:undname.obj
 0003:00001198       ?pZNameList@UnDecorator@@0PEAVReplicator@@EA 0000000140050198     libvcruntimed:undname.obj
 0003:000011a0       ?pTemplateArgList@UnDecorator@@0PEAVReplicator@@EA 00000001400501a0     libvcruntimed:undname.obj
 0003:000011a8       ?gName@UnDecorator@@0PEBDEB 00000001400501a8     libvcruntimed:undname.obj
 0003:000011b0       ?name@UnDecorator@@0PEBDEB 00000001400501b0     libvcruntimed:undname.obj
 0003:000011b8       ?disableFlags@UnDecorator@@0KA 00000001400501b8     libvcruntimed:undname.obj
 0003:000011bc       ?fExplicitTemplateParams@UnDecorator@@0_NA 00000001400501bc     libvcruntimed:undname.obj
 0003:000011bd       ?fGetTemplateArgumentList@UnDecorator@@0_NA 00000001400501bd     libvcruntimed:undname.obj
 0003:000011c0       ?m_pGetParameter@UnDecorator@@0P6APEADJ@ZEA 00000001400501c0     libvcruntimed:undname.obj
 0003:000011c8       ?m_CHPENameOffset@UnDecorator@@0KA 00000001400501c8     libvcruntimed:undname.obj
 0003:000011cc       ?m_recursionLevel@UnDecorator@@0KA 00000001400501cc     libvcruntimed:undname.obj
 0003:00001238       __pPurecall                0000000140050238     libvcruntimed:purevirt_data.obj
 0003:00001988       _environ_table             0000000140050988     libucrtd:environment_initialization.obj
 0003:00001990       _wenviron_table            0000000140050990     libucrtd:environment_initialization.obj
 0003:00001998       __dcrt_initial_wide_environment 0000000140050998     libucrtd:environment_initialization.obj
 0003:000019a0       __dcrt_initial_narrow_environment 00000001400509a0     libucrtd:environment_initialization.obj
 0003:000019b8       ?c_exit_complete@?1???R<lambda_6e4b09c48022b2350581041d5f6b0c4c>@@QEBA@XZ@4_NA 00000001400509b8     libucrtd:exit.obj
 0003:000019bc       __acrt_locale_changed_data 00000001400509bc     libucrtd:wsetlocale.obj
 0003:000019c4       _commode                   00000001400509c4     libucrtd:ncommode.obj
 0003:000019c8       __acrt_atexit_table        00000001400509c8     libucrtd:onexit.obj
 0003:000019e0       __acrt_at_quick_exit_table 00000001400509e0     libucrtd:onexit.obj
 0003:00001a28       _pfnDumpClient             0000000140050a28     libucrtd:debug_heap.obj
 0003:00001a48       _mbctype                   0000000140050a48     libucrtd:mbctype.obj
 0003:00001a50       _mbcasemap                 0000000140050a50     libucrtd:mbctype.obj
 0003:00001a58       __acrt_current_multibyte_data 0000000140050a58     libucrtd:mbctype.obj
 0003:00001a68       _pgmptr                    0000000140050a68     libucrtd:argv_data.obj
 0003:00001a70       __argc                     0000000140050a70     libucrtd:argv_data.obj
 0003:00001a78       __argv                     0000000140050a78     libucrtd:argv_data.obj
 0003:00001a80       __wargv                    0000000140050a80     libucrtd:argv_data.obj
 0003:00001a88       _acmdln                    0000000140050a88     libucrtd:argv_data.obj
 0003:00001a90       _wcmdln                    0000000140050a90     libucrtd:argv_data.obj
 0003:00001cdc       _fmode                     0000000140050cdc     libucrtd:txtmode.obj
 0003:00001ce0       __pioinfo                  0000000140050ce0     libucrtd:ioinit.obj
 0003:000020e0       _nhandle                   00000001400510e0     libucrtd:ioinit.obj
 0003:000020e8       __acrt_current_locale_data 00000001400510e8     libucrtd:nlsdata.obj
 0003:000022a0       __acrt_lconv_static_null   00000001400512a0     libucrtd:localeconv.obj
 0003:000022a4       __acrt_lconv_static_W_null 00000001400512a4     libucrtd:localeconv.obj
 0003:000022a8       __acrt_heap                00000001400512a8     libucrtd:heap_handle.obj
 0003:000022d8       __acrt_stdout_buffer       00000001400512d8     libucrtd:_sftbuf.obj
 0003:000022e0       __acrt_stderr_buffer       00000001400512e0     libucrtd:_sftbuf.obj
 0003:000022f0       _nstream                   00000001400512f0     libucrtd:_file.obj
 0003:000022f8       __piob                     00000001400512f8     libucrtd:_file.obj
 0003:00002308       _pfnReportHook             0000000140051308     libucrtd:dbgrptt.obj
 0003:00002310       _pReportHookList           0000000140051310     libucrtd:dbgrptt.obj
 0003:00002318       _pReportHookListW          0000000140051318     libucrtd:dbgrptt.obj
 0003:00002328       __fma3_is_available        0000000140051328     libucrtd:fma3_available.obj
 0003:0000232c       __use_fma3_lib             000000014005132c     libucrtd:fma3_available.obj
 0003:00002338       __scrt_ucrt_dll_is_in_use  0000000140051338     <common>
 0003:00002340       __dyn_tls_dtor_callback    0000000140051340     <common>
 0003:00002348       __dyn_tls_init_callback    0000000140051348     <common>

 entry point at        0001:00001c80

 Static symbols

 0000:fffa9000       .debug$S                   0000000140000000     vulkan-1:vulkan-1.dll
 0000:fffa9000       .debug$S                   0000000140000000     gdi32:GDI32.dll
 0000:fffa9000       .debug$S                   0000000140000000     kernel32:KERNEL32.dll
 0000:fffa9000       .debug$S                   0000000140000000     kernel32:KERNEL32.dll
 0000:fffa9000       .debug$S                   0000000140000000     kernel32:KERNEL32.dll
 0000:fffa9000       .debug$S                   0000000140000000     kernel32:KERNEL32.dll
 0000:fffa9000       .debug$S                   0000000140000000     kernel32:KERNEL32.dll
 0000:fffa9000       .debug$S                   0000000140000000     kernel32:KERNEL32.dll
 0000:fffa9000       .debug$S                   0000000140000000     kernel32:KERNEL32.dll
 0000:fffa9000       .debug$S                   0000000140000000     kernel32:KERNEL32.dll
 0000:fffa9000       .debug$S                   0000000140000000     kernel32:KERNEL32.dll
 0000:fffa9000       .debug$S                   0000000140000000     kernel32:KERNEL32.dll
 0000:fffa9000       .debug$S                   0000000140000000     kernel32:KERNEL32.dll
 0000:fffa9000       .debug$S                   0000000140000000     kernel32:KERNEL32.dll
 0000:fffa9000       .debug$S                   0000000140000000     kernel32:KERNEL32.dll
 0000:fffa9000       .debug$S                   0000000140000000     kernel32:KERNEL32.dll
 0000:fffa9000       .debug$S                   0000000140000000     kernel32:KERNEL32.dll
 0000:fffa9000       .debug$S                   0000000140000000     kernel32:KERNEL32.dll
 0000:fffa9000       .debug$S                   0000000140000000     kernel32:KERNEL32.dll
 0000:fffa9000       .debug$S                   0000000140000000     kernel32:KERNEL32.dll
 0000:fffa9000       .debug$S                   0000000140000000     kernel32:KERNEL32.dll
 0000:fffa9000       .debug$S                   0000000140000000     kernel32:KERNEL32.dll
 0000:fffa9000       .debug$S                   0000000140000000     kernel32:KERNEL32.dll
 0000:fffa9000       .debug$S                   0000000140000000     kernel32:KERNEL32.dll
 0000:fffa9000       .debug$S                   0000000140000000     kernel32:KERNEL32.dll
 0000:fffa9000       .debug$S                   0000000140000000     kernel32:KERNEL32.dll
 0000:fffa9000       .debug$S                   0000000140000000     kernel32:KERNEL32.dll
 0000:fffa9000       .debug$S                   0000000140000000     kernel32:KERNEL32.dll
 0000:fffa9000       .debug$S                   0000000140000000     kernel32:KERNEL32.dll
 0000:fffa9000       .debug$S                   0000000140000000     kernel32:KERNEL32.dll
 0000:fffa9000       .debug$S                   0000000140000000     kernel32:KERNEL32.dll
 0000:fffa9000       .debug$S                   0000000140000000     kernel32:KERNEL32.dll
 0000:fffa9000       .debug$S                   0000000140000000     kernel32:KERNEL32.dll
 0000:fffa9000       .debug$S                   0000000140000000     kernel32:KERNEL32.dll
 0000:fffa9000       .debug$S                   0000000140000000     kernel32:KERNEL32.dll
 0000:fffa9000       .debug$S                   0000000140000000     kernel32:KERNEL32.dll
 0000:fffa9000       .debug$S                   0000000140000000     kernel32:KERNEL32.dll
 0000:fffa9000       .debug$S                   0000000140000000     kernel32:KERNEL32.dll
 0000:fffa9000       .debug$S                   0000000140000000     kernel32:KERNEL32.dll
 0000:fffa9000       .debug$S                   0000000140000000     kernel32:KERNEL32.dll
 0000:fffa9000       .debug$S                   0000000140000000     kernel32:KERNEL32.dll
 0000:fffa9000       .debug$S                   0000000140000000     kernel32:KERNEL32.dll
 0000:fffa9000       .debug$S                   0000000140000000     kernel32:KERNEL32.dll
 0000:fffa9000       .debug$S                   0000000140000000     kernel32:KERNEL32.dll
 0000:fffa9000       .debug$S                   0000000140000000     kernel32:KERNEL32.dll
 0000:fffa9000       .debug$S                   0000000140000000     kernel32:KERNEL32.dll
 0000:fffa9000       .debug$S                   0000000140000000     kernel32:KERNEL32.dll
 0000:fffa9000       .debug$S                   0000000140000000     kernel32:KERNEL32.dll
 0000:fffa9000       .debug$S                   0000000140000000     kernel32:KERNEL32.dll
 0000:fffa9000       .debug$S                   0000000140000000     kernel32:KERNEL32.dll
 0000:fffa9000       .debug$S                   0000000140000000     kernel32:KERNEL32.dll
 0000:fffa9000       .debug$S                   0000000140000000     kernel32:KERNEL32.dll
 0000:fffa9000       .debug$S                   0000000140000000     kernel32:KERNEL32.dll
 0000:fffa9000       .debug$S                   0000000140000000     kernel32:KERNEL32.dll
 0000:fffa9000       .debug$S                   0000000140000000     kernel32:KERNEL32.dll
 0000:fffa9000       .debug$S                   0000000140000000     kernel32:KERNEL32.dll
 0000:fffa9000       .debug$S                   0000000140000000     kernel32:KERNEL32.dll
 0000:fffa9000       .debug$S                   0000000140000000     kernel32:KERNEL32.dll
 0000:fffa9000       .debug$S                   0000000140000000     kernel32:KERNEL32.dll
 0000:fffa9000       .debug$S                   0000000140000000     kernel32:KERNEL32.dll
 0000:fffa9000       .debug$S                   0000000140000000     kernel32:KERNEL32.dll
 0000:fffa9000       .debug$S                   0000000140000000     kernel32:KERNEL32.dll
 0000:fffa9000       .debug$S                   0000000140000000     kernel32:KERNEL32.dll
 0000:fffa9000       .debug$S                   0000000140000000     kernel32:KERNEL32.dll
 0000:fffa9000       .debug$S                   0000000140000000     kernel32:KERNEL32.dll
 0000:fffa9000       .debug$S                   0000000140000000     kernel32:KERNEL32.dll
 0000:fffa9000       .debug$S                   0000000140000000     kernel32:KERNEL32.dll
 0000:fffa9000       .debug$S                   0000000140000000     kernel32:KERNEL32.dll
 0000:fffa9000       .debug$S                   0000000140000000     kernel32:KERNEL32.dll
 0000:fffa9000       .debug$S                   0000000140000000     kernel32:KERNEL32.dll
 0000:fffa9000       .debug$S                   0000000140000000     kernel32:KERNEL32.dll
 0000:fffa9000       .debug$S                   0000000140000000     kernel32:KERNEL32.dll
 0000:fffa9000       .debug$S                   0000000140000000     kernel32:KERNEL32.dll
 0000:fffa9000       .debug$S                   0000000140000000     kernel32:KERNEL32.dll
 0000:fffa9000       .debug$S                   0000000140000000     kernel32:KERNEL32.dll
 0000:fffa9000       .debug$S                   0000000140000000     kernel32:KERNEL32.dll
 0000:fffa9000       .debug$S                   0000000140000000     kernel32:KERNEL32.dll
 0000:fffa9000       .debug$S                   0000000140000000     kernel32:KERNEL32.dll
 0000:fffa9000       .debug$S                   0000000140000000     kernel32:KERNEL32.dll
 0000:fffa9000       .debug$S                   0000000140000000     kernel32:KERNEL32.dll
 0000:fffa9000       .debug$S                   0000000140000000     kernel32:KERNEL32.dll
 0000:fffa9000       .debug$S                   0000000140000000     kernel32:KERNEL32.dll
 0000:fffa9000       .debug$S                   0000000140000000     kernel32:KERNEL32.dll
 0000:fffa9000       .debug$S                   0000000140000000     kernel32:KERNEL32.dll
 0000:fffa9000       .debug$S                   0000000140000000     kernel32:KERNEL32.dll
 0000:fffa9000       .debug$S                   0000000140000000     kernel32:KERNEL32.dll
 0000:fffa9000       .debug$S                   0000000140000000     kernel32:KERNEL32.dll
 0000:fffa9000       .debug$S                   0000000140000000     kernel32:KERNEL32.dll
 0000:fffa9000       .debug$S                   0000000140000000     kernel32:KERNEL32.dll
 0000:fffa9000       .debug$S                   0000000140000000     kernel32:KERNEL32.dll
 0000:fffa9000       .debug$S                   0000000140000000     kernel32:KERNEL32.dll
 0000:fffa9000       .debug$S                   0000000140000000     kernel32:KERNEL32.dll
 0000:fffa9000       .debug$S                   0000000140000000     kernel32:KERNEL32.dll
 0000:fffa9000       .debug$S                   0000000140000000     kernel32:KERNEL32.dll
 0000:fffa9000       .debug$S                   0000000140000000     kernel32:KERNEL32.dll
 0000:fffa9000       .debug$S                   0000000140000000     kernel32:KERNEL32.dll
 0000:fffa9000       .debug$S                   0000000140000000     kernel32:KERNEL32.dll
 0000:fffa9000       .debug$S                   0000000140000000     kernel32:KERNEL32.dll
 0000:fffa9000       .debug$S                   0000000140000000     kernel32:KERNEL32.dll
 0000:fffa9000       .debug$S                   0000000140000000     user32:USER32.dll
 0000:fffa9000       .debug$S                   0000000140000000     user32:USER32.dll
 0000:fffa9000       .debug$S                   0000000140000000     user32:USER32.dll
 0000:fffa9000       .debug$S                   0000000140000000     user32:USER32.dll
 0000:fffa9000       .debug$S                   0000000140000000     user32:USER32.dll
 0000:fffa9000       .debug$S                   0000000140000000     user32:USER32.dll
 0000:fffa9000       .debug$S                   0000000140000000     user32:USER32.dll
 0000:fffa9000       .debug$S                   0000000140000000     user32:USER32.dll
 0000:fffa9000       .debug$S                   0000000140000000     user32:USER32.dll
 0000:fffa9000       .debug$S                   0000000140000000     user32:USER32.dll
 0000:fffa9000       .debug$S                   0000000140000000     user32:USER32.dll
 0000:fffa9000       .debug$S                   0000000140000000     user32:USER32.dll
 0000:fffa9000       .debug$S                   0000000140000000     user32:USER32.dll
 0000:fffa9000       .debug$S                   0000000140000000     user32:USER32.dll
 0000:fffa9000       .debug$S                   0000000140000000     user32:USER32.dll
 0000:fffa9000       .debug$S                   0000000140000000     user32:USER32.dll
 0000:fffa9000       .debug$S                   0000000140000000     user32:USER32.dll
 0000:fffa9000       .debug$S                   0000000140000000     user32:USER32.dll
 0000:fffa9000       .debug$S                   0000000140000000     user32:USER32.dll
 0001:00000440       ?Win32InitializeBackbuffer@@YAXAEAUwin32_pixel_buffer@@FF@Z 0000000140001440 f   win32_platform.obj
 0001:000005a0       ?Win32ClearBackbuffer@@YAXAEAUwin32_pixel_buffer@@@Z 00000001400015a0 f   win32_platform.obj
 0001:00000640       ?Win32DisplayPixelBuffer@@YAXAEAUwin32_pixel_buffer@@PEAUHDC__@@@Z 0000000140001640 f   win32_platform.obj
 0001:000006f0       ?Win32MainWindowProc@@YA_JPEAUHWND__@@I_K_J@Z 00000001400016f0 f   win32_platform.obj
 0001:00000940       ?Win32InitializeWindow@@YAXAEAUwin32_window@@FFPEBD@Z 0000000140001940 f   win32_platform.obj
 0001:00000b80       ?Win32InitializeMemory@@YAXAEAUengine_memory@@@Z 0000000140001b80 f   win32_platform.obj
 0001:00000c50       ?Win32Update@@YAXAEAUwin32_window@@@Z 0000000140001c50 f   win32_platform.obj
 0001:00000cb0       ?Win32TranslateKeyInput@@YA?AW4KEYBOARD_BUTTON@@E@Z 0000000140001cb0 f   win32_platform.obj
 0001:00000ec4       $LN43                      0000000140001ec4     win32_platform.obj
 0001:00000f58       $LN42                      0000000140001f58     win32_platform.obj
 0001:00000fd0       ?Win32ProcessMessages@@YA_NAEAUwin32_window@@AEAUengine_input@@AEAH@Z 0000000140001fd0 f   win32_platform.obj
 0001:0000139c       $LN40                      000000014000239c     win32_platform.obj
 0001:000013b8       $LN39                      00000001400023b8     win32_platform.obj
 0001:000014b8       $LN38                      00000001400024b8     win32_platform.obj
 0001:000014d4       $LN37                      00000001400024d4     win32_platform.obj
 0001:00001580       ?Win32GetWriteTime@@YA?AU_FILETIME@@PEAD@Z 0000000140002580 f   win32_platform.obj
 0001:000015f0       ?Win32LoadEngineCode@@YAXPEAUwin32_engine_code@@PEAD1@Z 00000001400025f0 f   win32_platform.obj
 0001:000016d0       ?Win32UnloadEngineCode@@YAXPEAUwin32_engine_code@@@Z 00000001400026d0 f   win32_platform.obj
 0001:00001730       ?Win32InitializeVulkan@@YAXXZ 0000000140002730 f   win32_platform.obj
 0001:00001750       ??0<lambda_842d9ff0dc9ef11c61343bbaebe7f885>@@QEAA@AEBQEAU_iobuf@@@Z 0000000140002750 f i libucrtd:fflush.obj
 0001:00001750       ??0<lambda_d90129c13df834fdcbf8d2b88dafcf2d>@@QEAA@AEBQEAU_iobuf@@@Z 0000000140002750 f i libucrtd:fflush.obj
 0001:00001900       ?pre_c_initialization@@YAHXZ 0000000140002900 f   LIBCMTD:exe_winmain.obj
 0001:000019c0       ?post_pgo_initialization@@YAHXZ 00000001400029c0 f   LIBCMTD:exe_winmain.obj
 0001:000019d0       ?pre_cpp_initialization@@YAXXZ 00000001400029d0 f   LIBCMTD:exe_winmain.obj
 0001:000019f0       ?__scrt_common_main@@YAHXZ 00000001400029f0 f   LIBCMTD:exe_winmain.obj
 0001:00001a10       ?__scrt_common_main_seh@@YAHXZ 0000000140002a10 f   LIBCMTD:exe_winmain.obj
 0001:00001be0       ?invoke_main@@YAHXZ        0000000140002be0 f   LIBCMTD:exe_winmain.obj
 0001:00001ca0       ?find_pe_section@@YAPEAU_IMAGE_SECTION_HEADER@@QEAE_K@Z 0000000140002ca0 f   LIBCMTD:utility.obj
 0001:00001d70       ?is_potentially_valid_image_base@@YA_NQEAX@Z 0000000140002d70 f   LIBCMTD:utility.obj
 0001:000021a0       __get_entropy              00000001400031a0 f   LIBCMTD:gs_support.obj
 0001:00002330       initialize_environment     0000000140003330 f   libucrtd:initialization.obj
 0001:00002330       initialize_global_state_isolation 0000000140003330 f   libucrtd:initialization.obj
 0001:00002340       init_memcpy_functions      0000000140003340 f   libvcruntimed:initialization.obj
 0001:00002de0       $$000000                   0000000140003de0     LIBCMTD:amdsecgs.obj
 0001:00002ff0       ?capture_current_context@@YAXQEAU_CONTEXT@@@Z 0000000140003ff0 f   libucrtd:invalid_parameter.obj
 0001:00002ff0       capture_current_context    0000000140003ff0 f   LIBCMTD:gs_report.obj
 0001:00003090       capture_previous_context   0000000140004090 f   LIBCMTD:gs_report.obj
 0001:00003650       ??0<lambda_8d0ee55de4b1038c4002e0adecdf1839>@@QEAA@AEBQEAU__acrt_ptd@@@Z 0000000140004650 f i libucrtd:per_thread_data.obj
 0001:00003650       ??0<lambda_8f455de75cd7d7f24b4096f044d8b9e6>@@QEAA@AEBQEAU__acrt_ptd@@@Z 0000000140004650 f i libucrtd:per_thread_data.obj
 0001:00003650       ??0<lambda_e157831efee4ea0afb0a2ace5dd5fd0d>@@QEAA@AEBQEAU__acrt_ptd@@@Z 0000000140004650 f i libucrtd:per_thread_data.obj
 0001:00003650       ??0<lambda_4e7105787b7b0e0227fbf2b2d883fa65>@@QEAA@AEBH@Z 0000000140004650 f i libucrtd:close.obj
 0001:00003650       ??0<lambda_5533cddd4bda0037814beee657757329>@@QEAA@AEBH@Z 0000000140004650 f i libucrtd:commit.obj
 0001:00003650       ??0<lambda_df1553121bfa390f1154bd84936f2730>@@QEAA@AEAV?$__crt_unique_heap_ptr@PEADU__crt_internal_free_policy@@@@@Z 0000000140004650 f i libucrtd:argv_parsing.obj
 0001:00003650       ??0<lambda_d121dba8a4adeaf3a9819e48611155df>@@QEAA@AEBQEAU_onexit_table_t@@@Z 0000000140004650 f i libucrtd:onexit.obj
 0001:000036d0       ?begin@?$argument_list@D@?A0x5f5c8891@@QEBAPEAPEADXZ 00000001400046d0 f i libucrtd:argv_wildcards.obj
 0001:000038b0       ?_FilterSetCurrentException@@YAKPEAU_EXCEPTION_POINTERS@@E@Z 00000001400048b0 f   libvcruntimed:ehhelpers.obj
 0001:00003b10       $$000000                   0000000140004b10     libvcruntimed:notify.obj
 0001:00003bc0       ??0scoped_get_last_error_reset@?A0x26810693@@QEAA@XZ 0000000140004bc0 f   libvcruntimed:per_thread_data.obj
 0001:00003be0       ??1scoped_get_last_error_reset@?A0x26810693@@QEAA@XZ 0000000140004be0 f   libvcruntimed:per_thread_data.obj
 0001:00003c30       ?store_and_initialize_ptd@@YA_NQEAU__vcrt_ptd@@@Z 0000000140004c30 f   libvcruntimed:per_thread_data.obj
 0001:000040e0       ?invalid_function_sentinel@@YAPEAXXZ 00000001400050e0 f   libucrtd:winapi_thunks.obj
 0001:000040e0       ?invalid_function_sentinel@@YAPEAXXZ 00000001400050e0 f   libvcruntimed:winapi_downlevel.obj
 0001:000040f0       ?try_get_FlsAlloc@@YAP6AKP6AXPEAX@Z@ZXZ 00000001400050f0 f   libvcruntimed:winapi_downlevel.obj
 0001:00004120       ?try_get_FlsFree@@YAP6AHK@ZXZ 0000000140005120 f   libvcruntimed:winapi_downlevel.obj
 0001:00004150       ?try_get_FlsGetValue@@YAP6APEAXK@ZXZ 0000000140005150 f   libvcruntimed:winapi_downlevel.obj
 0001:00004180       ?try_get_FlsSetValue@@YAP6AHKPEAX@ZXZ 0000000140005180 f   libvcruntimed:winapi_downlevel.obj
 0001:000041b0       ?try_get_InitializeCriticalSectionEx@@YAP6AHPEAU_RTL_CRITICAL_SECTION@@KK@ZXZ 00000001400051b0 f   libvcruntimed:winapi_downlevel.obj
 0001:000041e0       ?try_get_first_available_module@@YAPEAUHINSTANCE__@@QEBW4module_id@?A0x61a31dd3@@0@Z 00000001400051e0 f   libvcruntimed:winapi_downlevel.obj
 0001:00004240       ?try_get_function@@YAPEAXW4function_id@?A0x61a31dd3@@QEBDQEBW4module_id@2@2@Z 0000000140005240 f   libvcruntimed:winapi_downlevel.obj
 0001:000043b0       ?try_get_module@@YAPEAUHINSTANCE__@@W4module_id@?A0x61a31dd3@@@Z 00000001400053b0 f   libvcruntimed:winapi_downlevel.obj
 0001:00004510       ?try_get_proc_address_from_first_available_module@@YAPEAXQEBDQEBW4module_id@?A0x61a31dd3@@1@Z 0000000140005510 f   libvcruntimed:winapi_downlevel.obj
 0001:00004560       ?try_load_library_from_system_directory@@YAPEAUHINSTANCE__@@QEB_W@Z 0000000140005560 f   libvcruntimed:winapi_downlevel.obj
 0001:00004790       $$000000                   0000000140005790     libvcruntimed:memcpy.obj
 0001:00004ea0       ??$SehTransFilter@V__FrameHandler3@@@@YAHPEAU_EXCEPTION_POINTERS@@PEAUEHExceptionRecord@@PEA_KPEAU_CONTEXT@@PEAU_xDISPATCHER_CONTEXT@@PEBU_s_FuncInfo@@HPEAH@Z 0000000140005ea0 f   libvcruntimed:risctrnsctrl.obj
 0001:00005bb0       ?adjustIp@@YA_KPEAU_xDISPATCHER_CONTEXT@@_K@Z 0000000140006bb0 f   libvcruntimed:ehstate.obj
 0001:00005bc0       ??$BuildCatchObjectHelperInternal@V__FrameHandler3@@@@YAHPEAUEHExceptionRecord@@PEAXPEBU_s_HandlerType@@PEBU_s_CatchableType@@@Z 0000000140006bc0 f   libvcruntimed:frame.obj
 0001:00005fa0       ??$BuildCatchObjectInternal@V__FrameHandler3@@@@YAXPEAUEHExceptionRecord@@PEAXPEBU_s_HandlerType@@PEBU_s_CatchableType@@@Z 0000000140006fa0 f   libvcruntimed:frame.obj
 0001:000060f0       ??$CatchIt@V__FrameHandler3@@@@YAXPEAUEHExceptionRecord@@PEA_KPEAU_CONTEXT@@PEAU_xDISPATCHER_CONTEXT@@PEBU_s_FuncInfo@@PEBU_s_HandlerType@@PEBU_s_CatchableType@@PEBU_s_TryBlockMapEntry@@H1EE@Z 00000001400070f0 f   libvcruntimed:frame.obj
 0001:00006230       ??$FindHandler@V__FrameHandler3@@@@YAXPEAUEHExceptionRecord@@PEA_KPEAU_CONTEXT@@PEAU_xDISPATCHER_CONTEXT@@PEBU_s_FuncInfo@@EH1@Z 0000000140007230 f   libvcruntimed:frame.obj
 0001:00006a00       ??$FindHandlerForForeignException@V__FrameHandler3@@@@YAXPEAUEHExceptionRecord@@PEA_KPEAU_CONTEXT@@PEAU_xDISPATCHER_CONTEXT@@PEBU_s_FuncInfo@@HH1@Z 0000000140007a00 f   libvcruntimed:frame.obj
 0001:00007420       ??0<lambda_92619d2358a28f41a33ba319515a20b9>@@QEAA@AEBQEAU__acrt_ptd@@AEBQEAPEAU__crt_locale_data@@@Z 0000000140008420 f i libucrtd:per_thread_data.obj
 0001:00007420       ??0<lambda_bd5a608237428601b7e45fbdc72b1ae8>@@QEAA@AEBQEAU__acrt_ptd@@AEBQEAPEAU__crt_multibyte_data@@@Z 0000000140008420 f i libucrtd:mbctype.obj
 0001:00007420       ??0<lambda_3b83eb014488ad801d84acef5aaf14d3>@@QEAA@AEBQEAU_onexit_table_t@@AEBQ6AHXZ@Z 0000000140008420 f i libucrtd:onexit.obj
 0001:00007ab0       ?ExFilterRethrow@@YAHPEAU_EXCEPTION_POINTERS@@PEAUEHExceptionRecord@@PEAH@Z 0000000140008ab0 f   libvcruntimed:frame.obj
 0001:00007ed0       ?IsInExceptionSpec@@YAEPEAUEHExceptionRecord@@PEBU_s_ESTypeList@@@Z 0000000140008ed0 f   libvcruntimed:frame.obj
 0001:00007ff0       ?Is_bad_exception_allowed@@YAEPEBU_s_ESTypeList@@@Z 0000000140008ff0 f   libvcruntimed:frame.obj
 0001:00008170       ?__RethrowException@@YAXPEAUEHExceptionRecord@@@Z 0000000140009170 f   libvcruntimed:frame.obj
 0001:00008390       $$000000                   0000000140009390     libvcruntimed:memset.obj
 0001:00008550       $$000000                   0000000140009550     libvcruntimed:handlers.obj
 0001:00008980       ?xcptlookup@@YAPEAU__crt_signal_action_t@@KQEAU1@@Z 0000000140009980 f   libucrtd:exception_filter.obj
 0001:00008c70       $LN33                      0000000140009c70     libucrtd:exception_filter.obj
 0001:00008c90       ?issue_debug_notification@@YA_NQEB_W@Z 0000000140009c90 f   libucrtd:report_runtime_error.obj
 0001:00008cf0       ?should_write_error_to_console@@YA_NXZ 0000000140009cf0 f   libucrtd:report_runtime_error.obj
 0001:00008d30       ?write_string_to_console@@YAXQEB_W@Z 0000000140009d30 f   libucrtd:report_runtime_error.obj
 0001:00009350       ??$common_configure_argv@D@@YAHW4_crt_argv_mode@@@Z 000000014000a350 f   libucrtd:argv_parsing.obj
 0001:00009720       ??$parse_command_line@D@@YAXPEADPEAPEAD0PEA_K2@Z 000000014000a720 f   libucrtd:argv_parsing.obj
 0001:00009bd0       ??R<lambda_df1553121bfa390f1154bd84936f2730>@@QEBAHXZ 000000014000abd0 f   libucrtd:argv_parsing.obj
 0001:00009c30       ?do_locale_initialization@@YAXD@Z 000000014000ac30 f   libucrtd:argv_parsing.obj
 0001:00009c30       ?do_locale_initialization@@YAXE@Z 000000014000ac30 f   libucrtd:argv_winmain.obj
 0001:00009c50       ?expand_argv_wildcards@@YAHQEAPEADQEAPEAPEAD@Z 000000014000ac50 f   libucrtd:argv_parsing.obj
 0001:00009c80       ?get_argv@@YAAEAPEAPEADD@Z 000000014000ac80 f   libucrtd:argv_parsing.obj
 0001:00009c90       ?get_command_line@@YAPEADD@Z 000000014000ac90 f   libucrtd:argv_parsing.obj
 0001:00009c90       ?get_command_line@@YAPEAEE@Z 000000014000ac90 f   libucrtd:argv_winmain.obj
 0001:00009ca0       ?should_copy_another_character@@YA_ND@Z 000000014000aca0 f   libucrtd:argv_parsing.obj
 0001:00009e34       ??$common_initialize_environment_nolock@D@@YAHXZ 000000014000ae34 f   libucrtd:environment_initialization.obj
 0001:00009eac       ??$create_environment@D@@YAQEAPEADQEAD@Z 000000014000aeac f   libucrtd:environment_initialization.obj
 0001:0000a008       ??$free_environment@D@@YAXQEAPEAD@Z 000000014000b008 f   libucrtd:environment_initialization.obj
 0001:0000a008       ??$free_environment@_W@@YAXQEAPEA_W@Z 000000014000b008 f   libucrtd:environment_initialization.obj
 0001:0000a064       ??$uninitialize_environment_internal@D@@YAXAEAPEAPEAD@Z 000000014000b064 f   libucrtd:environment_initialization.obj
 0001:0000a080       ??$uninitialize_environment_internal@_W@@YAXAEAPEAPEA_W@Z 000000014000b080 f   libucrtd:environment_initialization.obj
 0001:0000a0f0       ??$common_wincmdln@E@@YAPEAEXZ 000000014000b0f0 f   libucrtd:argv_winmain.obj
 0001:0000a1f0       ?should_copy_another_character@@YA_NE@Z 000000014000b1f0 f   libucrtd:argv_winmain.obj
 0001:0000a340       ??$?RV<lambda_d80eeec6fff315bfe5c115232f3240e3>@@AEAV<lambda_6e4b09c48022b2350581041d5f6b0c4c>@@V<lambda_2358e3775559c9db80273638284d5e45>@@@?$__crt_seh_guarded_call@X@@QEAAX$$QEAV<lambda_d80eeec6fff315bfe5c115232f3240e3>@@AEAV<lambda_6e4b09c48022b2350581041d5f6b0c4c>@@$$QEAV<lambda_2358e3775559c9db80273638284d5e45>@@@Z 000000014000b340 f   libucrtd:exit.obj
 0001:0000a380       ??$__acrt_lock_and_call@V<lambda_6e4b09c48022b2350581041d5f6b0c4c>@@@@YAXW4__acrt_lock_id@@$$QEAV<lambda_6e4b09c48022b2350581041d5f6b0c4c>@@@Z 000000014000b380 f   libucrtd:exit.obj
 0001:0000a420       ??0<lambda_04ddeca75b7c13fd67716e8dfcef87ee>@@QEAA@AEBW4__acrt_lock_id@@@Z 000000014000b420 f   libucrtd:per_thread_data.obj
 0001:0000a420       ??0<lambda_0ae27a3a962d80f24befdcbee591983d>@@QEAA@AEBW4__acrt_lock_id@@@Z 000000014000b420 f   libucrtd:per_thread_data.obj
 0001:0000a420       ??0<lambda_2d41944a1d46af3157314b8a01080d33>@@QEAA@AEBW4__acrt_lock_id@@@Z 000000014000b420 f   libucrtd:per_thread_data.obj
 0001:0000a420       ??0<lambda_6992ecaafeb10aed2b74cb1fae11a551>@@QEAA@AEBW4__acrt_lock_id@@@Z 000000014000b420 f   libucrtd:per_thread_data.obj
 0001:0000a420       ??0<lambda_74a0ef281e44d15e1136f792f539efb3>@@QEAA@AEBW4__acrt_lock_id@@@Z 000000014000b420 f   libucrtd:per_thread_data.obj
 0001:0000a420       ??0<lambda_aa500f224e6afead328df44964fe2772>@@QEAA@AEBW4__acrt_lock_id@@@Z 000000014000b420 f   libucrtd:per_thread_data.obj
 0001:0000a420       ??0<lambda_aa87e3671a710a21b5dc78c0bdf72e11>@@QEAA@AEBW4__acrt_lock_id@@@Z 000000014000b420 f   libucrtd:per_thread_data.obj
 0001:0000a420       ??0<lambda_dc504788e8f1664fe9b84e20bfb512f2>@@QEAA@AEBW4__acrt_lock_id@@@Z 000000014000b420 f   libucrtd:per_thread_data.obj
 0001:0000a420       ??0<lambda_38119f0e861e05405d8a144b9b982f0a>@@QEAA@AEBW4__acrt_lock_id@@@Z 000000014000b420 f   libucrtd:wsetlocale.obj
 0001:0000a420       ??0<lambda_410d79af7f07d98d83a3f525b3859a53>@@QEAA@AEBW4__acrt_lock_id@@@Z 000000014000b420 f   libucrtd:wsetlocale.obj
 0001:0000a420       ??0<lambda_53fc7fc888e23d815d7080162c0aeeb2>@@QEAA@AEBH@Z 000000014000b420 f   libucrtd:close.obj
 0001:0000a420       ??0<lambda_8ddc48ad9d26c778cb15812d1d88fc8a>@@QEAA@AEBH@Z 000000014000b420 f   libucrtd:close.obj
 0001:0000a420       ??0<lambda_47cffbaa968af5c721c38a4a6f8da44d>@@QEAA@AEBH@Z 000000014000b420 f   libucrtd:commit.obj
 0001:0000a420       ??0<lambda_4e3dbe6921bc0b5a1a6bc6573fdc859e>@@QEAA@AEBH@Z 000000014000b420 f   libucrtd:commit.obj
 0001:0000a420       ??0<lambda_728235dc0fc2b1f82d1fa5b3e7102d8f>@@QEAA@AEBW4__acrt_lock_id@@@Z 000000014000b420 f   libucrtd:mbctype.obj
 0001:0000a420       ??0<lambda_efa02eb69bf647d2f7ff0dd6f1103f72>@@QEAA@AEBW4__acrt_lock_id@@@Z 000000014000b420 f   libucrtd:mbctype.obj
 0001:0000a420       ??0<lambda_450d765d439847d4c735a33c368b5fc0>@@QEAA@AEBW4__acrt_lock_id@@@Z 000000014000b420 f   libucrtd:signal.obj
 0001:0000a420       ??0<lambda_601a2a7da3b7a96e9554ac7215c4b07c>@@QEAA@AEBW4__acrt_lock_id@@@Z 000000014000b420 f   libucrtd:signal.obj
 0001:0000a420       ??0<lambda_2358e3775559c9db80273638284d5e45>@@QEAA@AEBW4__acrt_lock_id@@@Z 000000014000b420 f   libucrtd:exit.obj
 0001:0000a420       ??0<lambda_d80eeec6fff315bfe5c115232f3240e3>@@QEAA@AEBW4__acrt_lock_id@@@Z 000000014000b420 f   libucrtd:exit.obj
 0001:0000a420       ??0<lambda_00e911965883f7966597d4c465c83ebc>@@QEAA@AEBW4__acrt_lock_id@@@Z 000000014000b420 f   libucrtd:onexit.obj
 0001:0000a420       ??0<lambda_6a47f4c8fd0152770a780fc1d70204eb>@@QEAA@AEBW4__acrt_lock_id@@@Z 000000014000b420 f   libucrtd:onexit.obj
 0001:0000a420       ??0<lambda_6aaa2265f5b6a89667e7d7630012e97a>@@QEAA@AEBW4__acrt_lock_id@@@Z 000000014000b420 f   libucrtd:onexit.obj
 0001:0000a420       ??0<lambda_dce957679fd779aa27c4ca5c39e09098>@@QEAA@AEBW4__acrt_lock_id@@@Z 000000014000b420 f   libucrtd:onexit.obj
 0001:0000a420       ??0<lambda_886d6c58226a84441f68b9f2b8217b83>@@QEAA@AEBW4__acrt_lock_id@@@Z 000000014000b420 f   libucrtd:fflush.obj
 0001:0000a420       ??0<lambda_f7f22ab5edc0698d5f6905b0d3f44752>@@QEAA@AEBW4__acrt_lock_id@@@Z 000000014000b420 f   libucrtd:fflush.obj
 0001:0000a440       ??0<lambda_6e4b09c48022b2350581041d5f6b0c4c>@@QEAA@AEBW4_crt_exit_cleanup_mode@@AEBW4_crt_exit_return_mode@@AEA_N@Z 000000014000b440 f   libucrtd:exit.obj
 0001:0000a440       ??0<lambda_ab61a845afdef5b7c387490eaf3616ee>@@QEAA@AEAHAEB_N0@Z 000000014000b440 f   libucrtd:fflush.obj
 0001:0000a4b0       ??R<lambda_04ddeca75b7c13fd67716e8dfcef87ee>@@QEBAXXZ 000000014000b4b0 f   libucrtd:per_thread_data.obj
 0001:0000a4b0       ??R<lambda_6992ecaafeb10aed2b74cb1fae11a551>@@QEBAXXZ 000000014000b4b0 f   libucrtd:per_thread_data.obj
 0001:0000a4b0       ??R<lambda_aa500f224e6afead328df44964fe2772>@@QEBAXXZ 000000014000b4b0 f   libucrtd:per_thread_data.obj
 0001:0000a4b0       ??R<lambda_dc504788e8f1664fe9b84e20bfb512f2>@@QEBAXXZ 000000014000b4b0 f   libucrtd:per_thread_data.obj
 0001:0000a4b0       ??R<lambda_38119f0e861e05405d8a144b9b982f0a>@@QEBAXXZ 000000014000b4b0 f   libucrtd:wsetlocale.obj
 0001:0000a4b0       ??R<lambda_728235dc0fc2b1f82d1fa5b3e7102d8f>@@QEBAXXZ 000000014000b4b0 f   libucrtd:mbctype.obj
 0001:0000a4b0       ??R<lambda_601a2a7da3b7a96e9554ac7215c4b07c>@@QEBAXXZ 000000014000b4b0 f   libucrtd:signal.obj
 0001:0000a4b0       ??R<lambda_2358e3775559c9db80273638284d5e45>@@QEBAXXZ 000000014000b4b0 f   libucrtd:exit.obj
 0001:0000a4b0       ??R<lambda_00e911965883f7966597d4c465c83ebc>@@QEBAXXZ 000000014000b4b0 f   libucrtd:onexit.obj
 0001:0000a4b0       ??R<lambda_6aaa2265f5b6a89667e7d7630012e97a>@@QEBAXXZ 000000014000b4b0 f   libucrtd:onexit.obj
 0001:0000a4b0       ??R<lambda_f7f22ab5edc0698d5f6905b0d3f44752>@@QEBAXXZ 000000014000b4b0 f   libucrtd:fflush.obj
 0001:0000a4d0       ??R<lambda_6e4b09c48022b2350581041d5f6b0c4c>@@QEBA@XZ 000000014000b4d0 f   libucrtd:exit.obj
 0001:0000a5d0       ??R<lambda_0ae27a3a962d80f24befdcbee591983d>@@QEBAXXZ 000000014000b5d0 f   libucrtd:per_thread_data.obj
 0001:0000a5d0       ??R<lambda_2d41944a1d46af3157314b8a01080d33>@@QEBAXXZ 000000014000b5d0 f   libucrtd:per_thread_data.obj
 0001:0000a5d0       ??R<lambda_74a0ef281e44d15e1136f792f539efb3>@@QEBAXXZ 000000014000b5d0 f   libucrtd:per_thread_data.obj
 0001:0000a5d0       ??R<lambda_aa87e3671a710a21b5dc78c0bdf72e11>@@QEBAXXZ 000000014000b5d0 f   libucrtd:per_thread_data.obj
 0001:0000a5d0       ??R<lambda_410d79af7f07d98d83a3f525b3859a53>@@QEBAXXZ 000000014000b5d0 f   libucrtd:wsetlocale.obj
 0001:0000a5d0       ??R<lambda_efa02eb69bf647d2f7ff0dd6f1103f72>@@QEBAXXZ 000000014000b5d0 f   libucrtd:mbctype.obj
 0001:0000a5d0       ??R<lambda_450d765d439847d4c735a33c368b5fc0>@@QEBAXXZ 000000014000b5d0 f   libucrtd:signal.obj
 0001:0000a5d0       ??R<lambda_d80eeec6fff315bfe5c115232f3240e3>@@QEBAXXZ 000000014000b5d0 f   libucrtd:exit.obj
 0001:0000a5d0       ??R<lambda_6a47f4c8fd0152770a780fc1d70204eb>@@QEBAXXZ 000000014000b5d0 f   libucrtd:onexit.obj
 0001:0000a5d0       ??R<lambda_dce957679fd779aa27c4ca5c39e09098>@@QEBAXXZ 000000014000b5d0 f   libucrtd:onexit.obj
 0001:0000a5d0       ??R<lambda_886d6c58226a84441f68b9f2b8217b83>@@QEBAXXZ 000000014000b5d0 f   libucrtd:fflush.obj
 0001:0000a640       ?atexit_exception_filter@@YAHK@Z 000000014000b640 f   libucrtd:exit.obj
 0001:0000a6e0       ?common_exit@@YAXHW4_crt_exit_cleanup_mode@@W4_crt_exit_return_mode@@@Z 000000014000b6e0 f   libucrtd:exit.obj
 0001:0000a770       ?exit_or_terminate_process@@YAXI@Z 000000014000b770 f   libucrtd:exit.obj
 0001:0000a7b0       ?is_managed_app@@YA_NXZ    000000014000b7b0 f   libucrtd:exit.obj
 0001:0000a860       ?should_call_terminate_process@@YA_NXZ 000000014000b860 f   libucrtd:exit.obj
 0001:0000a8c0       ?try_cor_exit_process@@YAXI@Z 000000014000b8c0 f   libucrtd:exit.obj
 0001:0000ab50       ??$?RV<lambda_410d79af7f07d98d83a3f525b3859a53>@@AEAV<lambda_3e16ef9562a7dcce91392c22ab16ea36>@@V<lambda_38119f0e861e05405d8a144b9b982f0a>@@@?$__crt_seh_guarded_call@X@@QEAAX$$QEAV<lambda_410d79af7f07d98d83a3f525b3859a53>@@AEAV<lambda_3e16ef9562a7dcce91392c22ab16ea36>@@$$QEAV<lambda_38119f0e861e05405d8a144b9b982f0a>@@@Z 000000014000bb50 f   libucrtd:wsetlocale.obj
 0001:0000ab90       ??$__acrt_lock_and_call@V<lambda_3e16ef9562a7dcce91392c22ab16ea36>@@@@YAXW4__acrt_lock_id@@$$QEAV<lambda_3e16ef9562a7dcce91392c22ab16ea36>@@@Z 000000014000bb90 f   libucrtd:wsetlocale.obj
 0001:0000abe0       ??$uninitialize@V<lambda_363eea9039da1e8169e2d060c7fe5cbc>@@@?$dual_state_global@PEAU__crt_locale_data@@@__crt_state_management@@QEAAX$$QEAV<lambda_363eea9039da1e8169e2d060c7fe5cbc>@@@Z 000000014000bbe0 f   libucrtd:wsetlocale.obj
 0001:0000ac30       ??R<lambda_363eea9039da1e8169e2d060c7fe5cbc>@@QEBAXAEAPEAU__crt_locale_data@@@Z 000000014000bc30 f   libucrtd:wsetlocale.obj
 0001:0000ac70       ??R<lambda_3e16ef9562a7dcce91392c22ab16ea36>@@QEBA@XZ 000000014000bc70 f   libucrtd:wsetlocale.obj
 0001:0000aff0       ??$?RV<lambda_6a47f4c8fd0152770a780fc1d70204eb>@@AEAV<lambda_d121dba8a4adeaf3a9819e48611155df>@@V<lambda_6aaa2265f5b6a89667e7d7630012e97a>@@@?$__crt_seh_guarded_call@H@@QEAAH$$QEAV<lambda_6a47f4c8fd0152770a780fc1d70204eb>@@AEAV<lambda_d121dba8a4adeaf3a9819e48611155df>@@$$QEAV<lambda_6aaa2265f5b6a89667e7d7630012e97a>@@@Z 000000014000bff0 f   libucrtd:onexit.obj
 0001:0000b040       ??$?RV<lambda_dce957679fd779aa27c4ca5c39e09098>@@AEAV<lambda_3b83eb014488ad801d84acef5aaf14d3>@@V<lambda_00e911965883f7966597d4c465c83ebc>@@@?$__crt_seh_guarded_call@H@@QEAAH$$QEAV<lambda_dce957679fd779aa27c4ca5c39e09098>@@AEAV<lambda_3b83eb014488ad801d84acef5aaf14d3>@@$$QEAV<lambda_00e911965883f7966597d4c465c83ebc>@@@Z 000000014000c040 f   libucrtd:onexit.obj
 0001:0000b090       ??$__acrt_lock_and_call@V<lambda_3b83eb014488ad801d84acef5aaf14d3>@@@@YAHW4__acrt_lock_id@@$$QEAV<lambda_3b83eb014488ad801d84acef5aaf14d3>@@@Z 000000014000c090 f   libucrtd:onexit.obj
 0001:0000b0e0       ??$__acrt_lock_and_call@V<lambda_d121dba8a4adeaf3a9819e48611155df>@@@@YAHW4__acrt_lock_id@@$$QEAV<lambda_d121dba8a4adeaf3a9819e48611155df>@@@Z 000000014000c0e0 f   libucrtd:onexit.obj
 0001:0000b130       ??R<lambda_3b83eb014488ad801d84acef5aaf14d3>@@QEBAHXZ 000000014000c130 f   libucrtd:onexit.obj
 0001:0000b440       ??R<lambda_d121dba8a4adeaf3a9819e48611155df>@@QEBAHXZ 000000014000c440 f   libucrtd:onexit.obj
 0001:0000b790       initialize_global_variables 000000014000c790 f   libucrtd:initialization.obj
 0001:0000b7b0       initialize_c               000000014000c7b0 f   libucrtd:initialization.obj
 0001:0000b7e0       uninitialize_c             000000014000c7e0 f   libucrtd:initialization.obj
 0001:0000b7e0       uninitialize_global_state_isolation 000000014000c7e0 f   libucrtd:initialization.obj
 0001:0000b7f0       uninitialize_environment   000000014000c7f0 f   libucrtd:initialization.obj
 0001:0000b820       initialize_pointers        000000014000c820 f   libucrtd:initialization.obj
 0001:0000b880       uninitialize_vcruntime     000000014000c880 f   libucrtd:initialization.obj
 0001:0000b8a0       uninitialize_allocated_memory 000000014000c8a0 f   libucrtd:initialization.obj
 0001:0000b8e0       uninitialize_allocated_io_buffers 000000014000c8e0 f   libucrtd:initialization.obj
 0001:0000b960       report_memory_leaks        000000014000c960 f   libucrtd:initialization.obj
 0001:0000b990       ??$uninitialize@V<lambda_af27fe6ede5d83bbdbd622796c194e9c>@@@?$dual_state_global@PEAU__crt_multibyte_data@@@__crt_state_management@@QEAAX$$QEAV<lambda_af27fe6ede5d83bbdbd622796c194e9c>@@@Z 000000014000c990 f   libucrtd:initialization.obj
 0001:0000b9e0       ??R<lambda_af27fe6ede5d83bbdbd622796c194e9c>@@QEBAXAEAPEAU__crt_multibyte_data@@@Z 000000014000c9e0 f   libucrtd:initialization.obj
 0001:0000bc40       ?block_from_header@@YAPEAEQEAU_CrtMemBlockHeader@@@Z 000000014000cc40 f   libucrtd:debug_heap.obj
 0001:0000bc50       ?check_block@@YA_NQEAU_CrtMemBlockHeader@@@Z 000000014000cc50 f   libucrtd:debug_heap.obj
 0001:0000c010       ?check_bytes@@YA_NQEBEE_K@Z 000000014000d010 f   libucrtd:debug_heap.obj
 0001:0000c080       ?dump_all_object_since_nolock@@YAXQEBU_CrtMemState@@@Z 000000014000d080 f   libucrtd:debug_heap.obj
 0001:0000c440       ?free_dbg_nolock@@YAXQEAXH@Z 000000014000d440 f   libucrtd:debug_heap.obj
 0001:0000ca90       ?header_from_block@@YAPEAU_CrtMemBlockHeader@@QEBX@Z 000000014000da90 f   libucrtd:debug_heap.obj
 0001:0000caa0       ?heap_alloc_dbg@@YAPEAX_KHQEBDH@Z 000000014000daa0 f   libucrtd:debug_heap.obj
 0001:0000cb40       ?heap_alloc_dbg_internal@@YAPEAX_KHQEBDH@Z 000000014000db40 f   libucrtd:debug_heap.obj
 0001:0000cf80       ?is_bad_read_pointer@@YA_NQEBX_K@Z 000000014000df80 f   libucrtd:debug_heap.obj
 0001:0000d090       ?is_block_an_aligned_allocation@@YA_NQEBX@Z 000000014000e090 f   libucrtd:debug_heap.obj
 0001:0000d0d0       ?is_block_type_valid@@YA_NH@Z 000000014000e0d0 f   libucrtd:debug_heap.obj
 0001:0000d120       ?print_block_data@@YAXQEAU__crt_locale_pointers@@QEAU_CrtMemBlockHeader@@@Z 000000014000e120 f   libucrtd:debug_heap.obj
 0001:0000d350       ?realloc_dbg_nolock@@YAPEAXQEAXQEA_KHQEBDH_N@Z 000000014000e350 f   libucrtd:debug_heap.obj
 0001:0000db70       ?validate_heap_if_required_nolock@@YAXXZ 000000014000eb70 f   libucrtd:debug_heap.obj
 0001:0000e920       ??$common_tcscpy_s@D@@YAHQEAD_KQEBD@Z 000000014000f920 f   libucrtd:strcpy_s.obj
 0001:0000ee20       $$000000                   000000014000fe20     libucrtd:strcmp.obj
 0001:0000eea0       $$000000                   000000014000fea0     libucrtd:strlen.obj
 0001:0000f4b0       ??$common_vsnprintf_s@D@@YAH_KQEAD00QEBDQEAU__crt_locale_pointers@@1@Z 00000001400104b0 f   libucrtd:output.obj
 0001:0000fa70       ??$common_vsnprintf_s@_W@@YAH_KQEA_W00QEB_WQEAU__crt_locale_pointers@@QEAD@Z 0000000140010a70 f   libucrtd:output.obj
 0001:00010040       ??$common_vsprintf@Vformat_validation_base@__crt_stdio_output@@D@@YAH_KQEAD0QEBDQEAU__crt_locale_pointers@@1@Z 0000000140011040 f   libucrtd:output.obj
 0001:00010520       ??$common_vsprintf@Vformat_validation_base@__crt_stdio_output@@_W@@YAH_KQEA_W0QEB_WQEAU__crt_locale_pointers@@QEAD@Z 0000000140011520 f   libucrtd:output.obj
 0001:000109f0       ??$common_vsprintf_s@D@@YAH_KQEAD0QEBDQEAU__crt_locale_pointers@@1@Z 00000001400119f0 f   libucrtd:output.obj
 0001:00012cac       $LN39                      0000000140013cac     libucrtd:output.obj
 0001:0001300c       $LN39                      000000014001400c     libucrtd:output.obj
 0001:00013af8       $LN54                      0000000140014af8     libucrtd:output.obj
 0001:00013b20       $LN53                      0000000140014b20     libucrtd:output.obj
 0001:00013f78       $LN54                      0000000140014f78     libucrtd:output.obj
 0001:00013fa0       $LN53                      0000000140014fa0     libucrtd:output.obj
 0001:00014414       $LN44                      0000000140015414     libucrtd:output.obj
 0001:00014444       $LN43                      0000000140015444     libucrtd:output.obj
 0001:0001496c       $LN44                      000000014001596c     libucrtd:output.obj
 0001:0001499c       $LN43                      000000014001599c     libucrtd:output.obj
 0001:00014c20       $LN19                      0000000140015c20     libucrtd:output.obj
 0001:00017880       ??$common_message_window@D@@YAHHQEAXQEBD111@Z 0000000140018880 f   libucrtd:dbgrpt.obj
 0001:00017f50       ??$common_message_window@_W@@YAHHQEAXQEB_W111@Z 0000000140018f50 f   libucrtd:dbgrpt.obj
 0001:00018770       ?get_output_message_format@@YAPEB_WD@Z 0000000140019770 f   libucrtd:dbgrpt.obj
 0001:00018780       ?get_output_message_format@@YAPEB_W_W@Z 0000000140019780 f   libucrtd:dbgrpt.obj
 0001:00018790       ?get_program_name_unknown_text@@YAPEBDD@Z 0000000140019790 f   libucrtd:dbgrpt.obj
 0001:000187a0       ?get_program_name_unknown_text@@YAPEB_W_W@Z 00000001400197a0 f   libucrtd:dbgrpt.obj
 0001:00019db0       $$000000                   000000014001adb0     libucrtd:strncmp.obj
 0001:00019f30       ??$?RV<lambda_0ae27a3a962d80f24befdcbee591983d>@@AEAV<lambda_8d0ee55de4b1038c4002e0adecdf1839>@@V<lambda_dc504788e8f1664fe9b84e20bfb512f2>@@@?$__crt_seh_guarded_call@X@@QEAAX$$QEAV<lambda_0ae27a3a962d80f24befdcbee591983d>@@AEAV<lambda_8d0ee55de4b1038c4002e0adecdf1839>@@$$QEAV<lambda_dc504788e8f1664fe9b84e20bfb512f2>@@@Z 000000014001af30 f   libucrtd:per_thread_data.obj
 0001:00019f70       ??$?RV<lambda_2d41944a1d46af3157314b8a01080d33>@@AEAV<lambda_8f455de75cd7d7f24b4096f044d8b9e6>@@V<lambda_aa500f224e6afead328df44964fe2772>@@@?$__crt_seh_guarded_call@X@@QEAAX$$QEAV<lambda_2d41944a1d46af3157314b8a01080d33>@@AEAV<lambda_8f455de75cd7d7f24b4096f044d8b9e6>@@$$QEAV<lambda_aa500f224e6afead328df44964fe2772>@@@Z 000000014001af70 f   libucrtd:per_thread_data.obj
 0001:00019fb0       ??$?RV<lambda_74a0ef281e44d15e1136f792f539efb3>@@AEAV<lambda_e157831efee4ea0afb0a2ace5dd5fd0d>@@V<lambda_04ddeca75b7c13fd67716e8dfcef87ee>@@@?$__crt_seh_guarded_call@X@@QEAAX$$QEAV<lambda_74a0ef281e44d15e1136f792f539efb3>@@AEAV<lambda_e157831efee4ea0afb0a2ace5dd5fd0d>@@$$QEAV<lambda_04ddeca75b7c13fd67716e8dfcef87ee>@@@Z 000000014001afb0 f   libucrtd:per_thread_data.obj
 0001:00019ff0       ??$?RV<lambda_aa87e3671a710a21b5dc78c0bdf72e11>@@AEAV<lambda_92619d2358a28f41a33ba319515a20b9>@@V<lambda_6992ecaafeb10aed2b74cb1fae11a551>@@@?$__crt_seh_guarded_call@X@@QEAAX$$QEAV<lambda_aa87e3671a710a21b5dc78c0bdf72e11>@@AEAV<lambda_92619d2358a28f41a33ba319515a20b9>@@$$QEAV<lambda_6992ecaafeb10aed2b74cb1fae11a551>@@@Z 000000014001aff0 f   libucrtd:per_thread_data.obj
 0001:0001a030       ??$__acrt_lock_and_call@V<lambda_8d0ee55de4b1038c4002e0adecdf1839>@@@@YAXW4__acrt_lock_id@@$$QEAV<lambda_8d0ee55de4b1038c4002e0adecdf1839>@@@Z 000000014001b030 f   libucrtd:per_thread_data.obj
 0001:0001a080       ??$__acrt_lock_and_call@V<lambda_8f455de75cd7d7f24b4096f044d8b9e6>@@@@YAXW4__acrt_lock_id@@$$QEAV<lambda_8f455de75cd7d7f24b4096f044d8b9e6>@@@Z 000000014001b080 f   libucrtd:per_thread_data.obj
 0001:0001a0d0       ??$__acrt_lock_and_call@V<lambda_92619d2358a28f41a33ba319515a20b9>@@@@YAXW4__acrt_lock_id@@$$QEAV<lambda_92619d2358a28f41a33ba319515a20b9>@@@Z 000000014001b0d0 f   libucrtd:per_thread_data.obj
 0001:0001a120       ??$__acrt_lock_and_call@V<lambda_e157831efee4ea0afb0a2ace5dd5fd0d>@@@@YAXW4__acrt_lock_id@@$$QEAV<lambda_e157831efee4ea0afb0a2ace5dd5fd0d>@@@Z 000000014001b120 f   libucrtd:per_thread_data.obj
 0001:0001a1b0       ??R<lambda_8d0ee55de4b1038c4002e0adecdf1839>@@QEBAXXZ 000000014001b1b0 f   libucrtd:per_thread_data.obj
 0001:0001a1d0       ??R<lambda_8f455de75cd7d7f24b4096f044d8b9e6>@@QEBAXXZ 000000014001b1d0 f   libucrtd:per_thread_data.obj
 0001:0001a1f0       ??R<lambda_92619d2358a28f41a33ba319515a20b9>@@QEBAXXZ 000000014001b1f0 f   libucrtd:per_thread_data.obj
 0001:0001a220       ??R<lambda_e157831efee4ea0afb0a2ace5dd5fd0d>@@QEBAXXZ 000000014001b220 f   libucrtd:per_thread_data.obj
 0001:0001a290       ?construct_ptd@@YAXQEAU__acrt_ptd@@QEAPEAU__crt_locale_data@@@Z 000000014001b290 f   libucrtd:per_thread_data.obj
 0001:0001a370       ?construct_ptd_array@@YAXQEAU__acrt_ptd@@@Z 000000014001b370 f   libucrtd:per_thread_data.obj
 0001:0001a3e0       ?destroy_fls@@YAXPEAX@Z    000000014001b3e0 f   libucrtd:per_thread_data.obj
 0001:0001a420       ?destroy_ptd@@YAXQEAU__acrt_ptd@@@Z 000000014001b420 f   libucrtd:per_thread_data.obj
 0001:0001a540       ?destroy_ptd_array@@YAXQEAU__acrt_ptd@@@Z 000000014001b540 f   libucrtd:per_thread_data.obj
 0001:0001a590       ?internal_get_ptd_head@@YAPEAU__acrt_ptd@@XZ 000000014001b590 f   libucrtd:per_thread_data.obj
 0001:0001a6c0       ?internal_getptd_noexit@@YAPEAU__acrt_ptd@@XZ 000000014001b6c0 f   libucrtd:per_thread_data.obj
 0001:0001a730       ?replace_current_thread_locale_nolock@@YAXQEAU__acrt_ptd@@QEAU__crt_locale_data@@@Z 000000014001b730 f   libucrtd:per_thread_data.obj
 0001:0001a7f0       ?try_get_ptd_head@@YAPEAU__acrt_ptd@@XZ 000000014001b7f0 f   libucrtd:per_thread_data.obj
 0001:0001aa10       ??$common_tcscat_s@_W@@YAHQEA_W_KQEB_W@Z 000000014001ba10 f   libucrtd:wcscat_s.obj
 0001:0001b0c0       ??$common_tcscpy_s@_W@@YAHQEA_W_KQEB_W@Z 000000014001c0c0 f   libucrtd:wcscpy_s.obj
 0001:0001b5d0       ??$common_tcsncpy_s@_W@@YAHQEA_W_KQEB_W1@Z 000000014001c5d0 f   libucrtd:wcsncpy_s.obj
 0001:0001bcb0       ??$common_strnlen@$00G@@YA_KQEBG_K@Z 000000014001ccb0 f   libucrtd:strnlen.obj
 0001:0001bd10       ??$common_strnlen@$0A@E@@YA_KQEBE_K@Z 000000014001cd10 f   libucrtd:strnlen.obj
 0001:0001bd70       ??$common_strnlen@$0A@G@@YA_KQEBG_K@Z 000000014001cd70 f   libucrtd:strnlen.obj
 0001:0001bdd0       ??$common_strnlen_c@$00G@@YA_KQEBG_K@Z 000000014001cdd0 f   libucrtd:strnlen.obj
 0001:0001be50       ??$common_strnlen_c@$0A@E@@YA_KQEBE_K@Z 000000014001ce50 f   libucrtd:strnlen.obj
 0001:0001bed0       ??$common_strnlen_c@$0A@G@@YA_KQEBG_K@Z 000000014001ced0 f   libucrtd:strnlen.obj
 0001:0001bf50       ??$common_strnlen_simd@$00$00G@@YA_KQEBG_K@Z 000000014001cf50 f   libucrtd:strnlen.obj
 0001:0001c1f0       ??$common_strnlen_simd@$00$0A@G@@YA_KQEBG_K@Z 000000014001d1f0 f   libucrtd:strnlen.obj
 0001:0001c4e0       ??$common_strnlen_simd@$0A@$00E@@YA_KQEBE_K@Z 000000014001d4e0 f   libucrtd:strnlen.obj
 0001:0001c760       ??$common_strnlen_simd@$0A@$00G@@YA_KQEBG_K@Z 000000014001d760 f   libucrtd:strnlen.obj
 0001:0001ca00       ??$common_strnlen_simd@$0A@$0A@E@@YA_KQEBE_K@Z 000000014001da00 f   libucrtd:strnlen.obj
 0001:0001ccd0       ??$common_strnlen_simd@$0A@$0A@G@@YA_KQEBG_K@Z 000000014001dcd0 f   libucrtd:strnlen.obj
 0001:0001cfc0       ??$last_reached@$00@@YA_NQEBX0@Z 000000014001dfc0 f   libucrtd:strnlen.obj
 0001:0001cfd0       ??$last_reached@$0A@@@YA_NQEBX0@Z 000000014001dfd0 f   libucrtd:strnlen.obj
 0001:0001d210       ??$common_show_message_box@_W@@YAHQEB_W0I@Z 000000014001e210 f   libucrtd:crtmbox.obj
 0001:0001d510       ?<lambda_invoker_cdecl>@<lambda_a1ce4c8ae42411fd470c77163914f50e>@@CAHPEBX0@Z 000000014001e510 f   libucrtd:argv_wildcards.obj
 0001:0001d540       ??$__acrt_convert_wcs_mbs_cp@D_WV<lambda_7c9dea7b4ca7285d2cdb541a38da6275>@@U__crt_win32_buffer_internal_dynamic_resizing@@@@YAHQEBDAEAV?$__crt_win32_buffer@_WU__crt_win32_buffer_internal_dynamic_resizing@@@@AEBV<lambda_7c9dea7b4ca7285d2cdb541a38da6275>@@I@Z 000000014001e540 f   libucrtd:argv_wildcards.obj
 0001:0001d6e0       ??$__acrt_convert_wcs_mbs_cp@_WDV<lambda_d8593a27d1aa8c02be35c86a17d324c4>@@U__crt_win32_buffer_internal_dynamic_resizing@@@@YAHQEB_WAEAV?$__crt_win32_buffer@DU__crt_win32_buffer_internal_dynamic_resizing@@@@AEBV<lambda_d8593a27d1aa8c02be35c86a17d324c4>@@I@Z 000000014001e6e0 f   libucrtd:argv_wildcards.obj
 0001:0001d920       ??$common_expand_argv_wildcards@D@@YAHQEAPEADQEAPEAPEAD@Z 000000014001e920 f   libucrtd:argv_wildcards.obj
 0001:0001dd50       ??$copy_and_add_argument_to_buffer@D@@YAHQEBD0_KAEAV?$argument_list@D@?A0x5f5c8891@@@Z 000000014001ed50 f   libucrtd:argv_wildcards.obj
 0001:0001df00       ??$expand_argument_wildcards@D@@YAHQEAD0AEAV?$argument_list@D@?A0x5f5c8891@@@Z 000000014001ef00 f   libucrtd:argv_wildcards.obj
 0001:0001e400       ??0?$argument_list@D@?A0x5f5c8891@@QEAA@XZ 000000014001f400 f   libucrtd:argv_wildcards.obj
 0001:0001e490       ??1?$argument_list@D@?A0x5f5c8891@@QEAA@XZ 000000014001f490 f   libucrtd:argv_wildcards.obj
 0001:0001e500       ??B<lambda_a1ce4c8ae42411fd470c77163914f50e>@@QEBAP6AHPEBX0@ZXZ 000000014001f500 f   libucrtd:argv_wildcards.obj
 0001:0001e510       ??R<lambda_7c9dea7b4ca7285d2cdb541a38da6275>@@QEBAHIQEBDQEA_W_K@Z 000000014001f510 f   libucrtd:argv_wildcards.obj
 0001:0001e560       ??R<lambda_a1ce4c8ae42411fd470c77163914f50e>@@QEBAHPEBX0@Z 000000014001f560 f   libucrtd:argv_wildcards.obj
 0001:0001e5a0       ??R<lambda_cfae5a0e6efa98e0d1aa03c4cec8f74e>@@QEBA_ND@Z 000000014001f5a0 f   libucrtd:argv_wildcards.obj
 0001:0001e5f0       ??R<lambda_f788ae46380686e8b737efdd8c720d07>@@QEBAHIQEB_WQEAD_K@Z 000000014001f5f0 f   libucrtd:getmodulefilenamea.obj
 0001:0001e5f0       ??R<lambda_d8593a27d1aa8c02be35c86a17d324c4>@@QEBAHIQEB_WQEAD_K@Z 000000014001f5f0 f   libucrtd:argv_wildcards.obj
 0001:0001e8a0       ?append@?$argument_list@D@?A0x5f5c8891@@QEAAHQEAD@Z 000000014001f8a0 f   libucrtd:argv_wildcards.obj
 0001:0001e9e0       ?end@?$argument_list@D@?A0x5f5c8891@@QEBAPEAPEADXZ 000000014001f9e0 f   libucrtd:argv_wildcards.obj
 0001:0001e9f0       ?expand_if_necessary@?$argument_list@D@?A0x5f5c8891@@AEAAHXZ 000000014001f9f0 f   libucrtd:argv_wildcards.obj
 0001:0001ebd0       ?get_file_name@@YAPEADQEAV?$__crt_win32_buffer@DU__crt_win32_buffer_internal_dynamic_resizing@@@@QEA_W@Z 000000014001fbd0 f   libucrtd:argv_wildcards.obj
 0001:0001ec20       ?get_wide@@YAPEA_WQEAV?$__crt_win32_buffer@_WU__crt_win32_buffer_internal_dynamic_resizing@@@@QEAD@Z 000000014001fc20 f   libucrtd:argv_wildcards.obj
 0001:0001ec70       ?previous_character@@YAPEADQEAD0@Z 000000014001fc70 f   libucrtd:argv_wildcards.obj
 0001:0001ed00       ?size@?$argument_list@D@?A0x5f5c8891@@QEBA_KXZ 000000014001fd00 f   libucrtd:argv_wildcards.obj
 0001:0001ed80       ??$__acrt_convert_wcs_mbs_cp@_WDV<lambda_f788ae46380686e8b737efdd8c720d07>@@U__crt_win32_buffer_no_resizing@@@@YAHQEB_WAEAV?$__crt_win32_buffer@DU__crt_win32_buffer_no_resizing@@@@AEBV<lambda_f788ae46380686e8b737efdd8c720d07>@@I@Z 000000014001fd80 f   libucrtd:getmodulefilenamea.obj
 0001:0001f240       ??$?RV<lambda_efa02eb69bf647d2f7ff0dd6f1103f72>@@AEAV<lambda_bd5a608237428601b7e45fbdc72b1ae8>@@V<lambda_728235dc0fc2b1f82d1fa5b3e7102d8f>@@@?$__crt_seh_guarded_call@X@@QEAAX$$QEAV<lambda_efa02eb69bf647d2f7ff0dd6f1103f72>@@AEAV<lambda_bd5a608237428601b7e45fbdc72b1ae8>@@$$QEAV<lambda_728235dc0fc2b1f82d1fa5b3e7102d8f>@@@Z 0000000140020240 f   libucrtd:mbctype.obj
 0001:0001f280       ??$__acrt_lock_and_call@V<lambda_bd5a608237428601b7e45fbdc72b1ae8>@@@@YAXW4__acrt_lock_id@@$$QEAV<lambda_bd5a608237428601b7e45fbdc72b1ae8>@@@Z 0000000140020280 f   libucrtd:mbctype.obj
 0001:0001f3b0       ??R<lambda_bd5a608237428601b7e45fbdc72b1ae8>@@QEBAXXZ 00000001400203b0 f   libucrtd:mbctype.obj
 0001:0001f4d0       ?CPtoLocaleName@@YAPEB_WH@Z 00000001400204d0 f   libucrtd:mbctype.obj
 0001:0001f570       ?getSystemCP@@YAHH@Z       0000000140020570 f   libucrtd:mbctype.obj
 0001:0001f650       ?setSBCS@@YAXPEAU__crt_multibyte_data@@@Z 0000000140020650 f   libucrtd:mbctype.obj
 0001:0001f750       ?setSBUpLow@@YAXPEAU__crt_multibyte_data@@@Z 0000000140020750 f   libucrtd:mbctype.obj
 0001:0001fb40       ?setmbcp_internal@@YAHH_NQEAU__acrt_ptd@@QEAPEAU__crt_multibyte_data@@@Z 0000000140020b40 f   libucrtd:mbctype.obj
 0001:0001fda0       ?update_thread_multibyte_data_internal@@YAPEAU__crt_multibyte_data@@QEAU__acrt_ptd@@QEAPEAU1@@Z 0000000140020da0 f   libucrtd:mbctype.obj
 0001:000204e0       memcpy_s                   00000001400214e0 f   libucrtd:cfout.obj
 0001:000204e0       memcpy_s                   00000001400214e0 f   libucrtd:mbctype.obj
 0001:0002061c       ?x_ismbbtype_l@@YAHPEAU__crt_locale_pointers@@IHH@Z 000000014002161c f   libucrtd:ismbbyte.obj
 0001:000206e0       ?filter_mbtowcs_flags@@YAKIK@Z 00000001400216e0 f   libucrtd:multibytetowidechar.obj
 0001:000207e0       ?filter_wcstomb_flags@@YAKIK@Z 00000001400217e0 f   libucrtd:widechartomultibyte.obj
 0001:00020c00       ??$get_cached_win_policy@Udeveloper_information_policy_properties@?1??__acrt_get_developer_information_policy@@YA?AW4developer_information_policy@@XZ@@@YA?AW4developer_information_policy@@W4AppPolicyShowDeveloperDiagnostic@@@Z 0000000140021c00 f   libucrtd:win_policies.obj
 0001:00020cd0       ??$get_cached_win_policy@Uwindowing_model_policy_properties@?1??__acrt_get_windowing_model_policy@@YA?AW4windowing_model_policy@@XZ@@@YA?AW4windowing_model_policy@@W4AppPolicyWindowingModel@@@Z 0000000140021cd0 f   libucrtd:win_policies.obj
 0001:00020da0       ??$get_win_policy@Uprocess_end_policy_properties@?1??__acrt_get_process_end_policy@@YA?AW4process_end_policy@@XZ@@@YA?AW4process_end_policy@@W4AppPolicyProcessTerminationMethod@@@Z 0000000140021da0 f   libucrtd:win_policies.obj
 0001:00020df0       ?appmodel_get_policy@developer_information_policy_properties@?1??__acrt_get_developer_information_policy@@YA?AW4developer_information_policy@@XZ@SAJPEAW4AppPolicyShowDeveloperDiagnostic@@@Z 0000000140021df0 f   libucrtd:win_policies.obj
 0001:00020e10       ?appmodel_get_policy@process_end_policy_properties@?1??__acrt_get_process_end_policy@@YA?AW4process_end_policy@@XZ@SAJPEAW4AppPolicyProcessTerminationMethod@@@Z 0000000140021e10 f   libucrtd:win_policies.obj
 0001:00020e30       ?appmodel_get_policy@windowing_model_policy_properties@?1??__acrt_get_windowing_model_policy@@YA?AW4windowing_model_policy@@XZ@SAJPEAW4AppPolicyWindowingModel@@@Z 0000000140021e30 f   libucrtd:win_policies.obj
 0001:00020e50       ?appmodel_policy_to_policy_type@developer_information_policy_properties@?1??__acrt_get_developer_information_policy@@YA?AW4developer_information_policy@@XZ@SA?AW43@J@Z 0000000140021e50 f   libucrtd:win_policies.obj
 0001:00020e70       ?appmodel_policy_to_policy_type@process_end_policy_properties@?1??__acrt_get_process_end_policy@@YA?AW4process_end_policy@@XZ@SA?AW43@W4AppPolicyProcessTerminationMethod@@@Z 0000000140021e70 f   libucrtd:win_policies.obj
 0001:00020e90       ?appmodel_policy_to_policy_type@windowing_model_policy_properties@?1??__acrt_get_windowing_model_policy@@YA?AW4windowing_model_policy@@XZ@SA?AW43@J@Z 0000000140021e90 f   libucrtd:win_policies.obj
 0001:000216e0       ?get_std_handle_id@@YAKH@Z 00000001400226e0 f   libucrtd:ioinit.obj
 0001:00021730       ?initialize_inherited_file_handles_nolock@@YAXXZ 0000000140022730 f   libucrtd:ioinit.obj
 0001:000218e0       ?initialize_stdio_handles_nolock@@YAXXZ 00000001400228e0 f   libucrtd:ioinit.obj
 0001:00021e40       ??$free_crt_array@D$01@@YAXAEAY01PEAD@Z 0000000140022e40 f   libucrtd:inittime.obj
 0001:00021e40       ??$free_crt_array@_W$01@@YAXAEAY01PEA_W@Z 0000000140022e40 f   libucrtd:inittime.obj
 0001:00021e60       ??$free_crt_array@D$06@@YAXAEAY06PEAD@Z 0000000140022e60 f   libucrtd:inittime.obj
 0001:00021e60       ??$free_crt_array@_W$06@@YAXAEAY06PEA_W@Z 0000000140022e60 f   libucrtd:inittime.obj
 0001:00021e80       ??$free_crt_array@D$0M@@@YAXAEAY0M@PEAD@Z 0000000140022e80 f   libucrtd:inittime.obj
 0001:00021e80       ??$free_crt_array@_W$0M@@@YAXAEAY0M@PEA_W@Z 0000000140022e80 f   libucrtd:inittime.obj
 0001:00021ea0       ?free_crt_array_internal@@YAXQEAPEBX_K@Z 0000000140022ea0 f   libucrtd:inittime.obj
 0001:00022fc0       ?try_get_AppPolicyGetProcessTerminationMethod@@YAP6AJPEAXPEAW4AppPolicyProcessTerminationMethod@@@ZXZ 0000000140023fc0 f   libucrtd:winapi_thunks.obj
 0001:00022ff0       ?try_get_AppPolicyGetShowDeveloperDiagnostic@@YAP6AJPEAXPEAW4AppPolicyShowDeveloperDiagnostic@@@ZXZ 0000000140023ff0 f   libucrtd:winapi_thunks.obj
 0001:00023020       ?try_get_AppPolicyGetWindowingModel@@YAP6AJPEAXPEAW4AppPolicyWindowingModel@@@ZXZ 0000000140024020 f   libucrtd:winapi_thunks.obj
 0001:00023050       ?try_get_AreFileApisANSI@@YAP6AHXZXZ 0000000140024050 f   libucrtd:winapi_thunks.obj
 0001:00023080       ?try_get_FlsAlloc@@YAP6AKP6AXPEAX@Z@ZXZ 0000000140024080 f   libucrtd:winapi_thunks.obj
 0001:000230b0       ?try_get_FlsFree@@YAP6AHK@ZXZ 00000001400240b0 f   libucrtd:winapi_thunks.obj
 0001:000230e0       ?try_get_FlsGetValue@@YAP6APEAXK@ZXZ 00000001400240e0 f   libucrtd:winapi_thunks.obj
 0001:00023110       ?try_get_FlsSetValue@@YAP6AHKPEAX@ZXZ 0000000140024110 f   libucrtd:winapi_thunks.obj
 0001:00023140       ?try_get_GetActiveWindow@@YAP6APEAUHWND__@@XZXZ 0000000140024140 f   libucrtd:winapi_thunks.obj
 0001:00023170       ?try_get_GetLastActivePopup@@YAP6APEAUHWND__@@PEAU1@@ZXZ 0000000140024170 f   libucrtd:winapi_thunks.obj
 0001:000231a0       ?try_get_GetProcessWindowStation@@YAP6APEAUHWINSTA__@@XZXZ 00000001400241a0 f   libucrtd:winapi_thunks.obj
 0001:000231d0       ?try_get_GetUserObjectInformationW@@YAP6AHPEAXH0KPEAK@ZXZ 00000001400241d0 f   libucrtd:winapi_thunks.obj
 0001:00023200       ?try_get_InitializeCriticalSectionEx@@YAP6AHPEAU_RTL_CRITICAL_SECTION@@KK@ZXZ 0000000140024200 f   libucrtd:winapi_thunks.obj
 0001:00023230       ?try_get_LCMapStringEx@@YAP6AHPEB_WK0HPEA_WHPEAU_nlsversioninfo@@PEAX_J@ZXZ 0000000140024230 f   libucrtd:winapi_thunks.obj
 0001:00023260       ?try_get_LocaleNameToLCID@@YAP6AKPEB_WK@ZXZ 0000000140024260 f   libucrtd:winapi_thunks.obj
 0001:00023290       ?try_get_MessageBoxA@@YAP6AHPEAUHWND__@@PEBD1I@ZXZ 0000000140024290 f   libucrtd:winapi_thunks.obj
 0001:000232c0       ?try_get_MessageBoxW@@YAP6AHPEAUHWND__@@PEB_W1I@ZXZ 00000001400242c0 f   libucrtd:winapi_thunks.obj
 0001:000232f0       ?try_get_first_available_module@@YAPEAUHINSTANCE__@@QEBW4module_id@?A0x391cf84c@@0@Z 00000001400242f0 f   libucrtd:winapi_thunks.obj
 0001:00023350       ?try_get_function@@YAPEAXW4function_id@?A0x391cf84c@@QEBDQEBW4module_id@2@2@Z 0000000140024350 f   libucrtd:winapi_thunks.obj
 0001:000234f0       ?try_get_module@@YAPEAUHINSTANCE__@@W4module_id@?A0x391cf84c@@@Z 00000001400244f0 f   libucrtd:winapi_thunks.obj
 0001:00023650       ?try_get_proc_address_from_first_available_module@@YAPEAXQEBDQEBW4module_id@?A0x391cf84c@@1@Z 0000000140024650 f   libucrtd:winapi_thunks.obj
 0001:000236a0       ?try_load_library_from_system_directory@@YAPEAUHINSTANCE__@@QEB_W@Z 00000001400246a0 f   libucrtd:winapi_thunks.obj
 0001:000240e0       ??$?RV<lambda_450d765d439847d4c735a33c368b5fc0>@@AEAV<lambda_44731a7d0e6d81c3e6aa82d741081786>@@V<lambda_601a2a7da3b7a96e9554ac7215c4b07c>@@@?$__crt_seh_guarded_call@P6AXH@Z@@QEAAP6AXH@Z$$QEAV<lambda_450d765d439847d4c735a33c368b5fc0>@@AEAV<lambda_44731a7d0e6d81c3e6aa82d741081786>@@$$QEAV<lambda_601a2a7da3b7a96e9554ac7215c4b07c>@@@Z 00000001400250e0 f   libucrtd:signal.obj
 0001:00024130       ??$__acrt_lock_and_call@V<lambda_44731a7d0e6d81c3e6aa82d741081786>@@@@YAP6AXH@ZW4__acrt_lock_id@@$$QEAV<lambda_44731a7d0e6d81c3e6aa82d741081786>@@@Z 0000000140025130 f   libucrtd:signal.obj
 0001:00024180       ??R<lambda_44731a7d0e6d81c3e6aa82d741081786>@@QEBAP6AXH@ZXZ 0000000140025180 f   libucrtd:signal.obj
 0001:000241b0       ?get_global_action_nolock@@YAPEAP6AXH@ZH@Z 00000001400251b0 f   libucrtd:signal.obj
 0001:00024240       ?siglookup@@YAPEAU__crt_signal_action_t@@HQEAU1@@Z 0000000140025240 f   libucrtd:signal.obj
 0001:000247e0       $LN58                      00000001400257e0     libucrtd:signal.obj
 0001:000247ec       $LN57                      00000001400257ec     libucrtd:signal.obj
 0001:00024920       ?select_heap@@YAPEAXQEAX@Z 0000000140025920 f   libucrtd:free_base.obj
 0001:00024a40       ?is_contraction_possible@@YA_N_K@Z 0000000140025a40 f   libucrtd:expand.obj
 0001:000259b0       ?fe_to_nearest@@YA_NQEBN_KF@Z 00000001400269b0 f   libucrtd:cvt.obj
 0001:00025b00       ?fp_format_a@@YAHQEBNPEAD_KQEAD2H_NIQEAU__crt_locale_pointers@@W4__acrt_rounding_mode@@@Z 0000000140026b00 f   libucrtd:cvt.obj
 0001:000263a0       ?fp_format_e@@YAHQEBNQEAD_K12H_NIQEAU__crt_locale_pointers@@W4__acrt_rounding_mode@@@Z 00000001400273a0 f   libucrtd:cvt.obj
 0001:000265c0       ?fp_format_e_internal@@YAHQEAD_KH_NIQEAU_strflt@@2QEAU__crt_locale_pointers@@@Z 00000001400275c0 f   libucrtd:cvt.obj
 0001:000269f0       ?fp_format_f@@YAHQEBNQEAD_K12HQEAU__crt_locale_pointers@@W4__acrt_rounding_mode@@@Z 00000001400279f0 f   libucrtd:cvt.obj
 0001:00026b50       ?fp_format_f_internal@@YAHQEAD_KHQEAU_strflt@@_NQEAU__crt_locale_pointers@@@Z 0000000140027b50 f   libucrtd:cvt.obj
 0001:00026df0       ?fp_format_g@@YAHQEBNQEAD_K12H_NIW4__acrt_rounding_mode@@QEAU__crt_locale_pointers@@@Z 0000000140027df0 f   libucrtd:cvt.obj
 0001:00027040       ?fp_format_nan_or_infinity@@YAHW4__acrt_fp_class@@_NPEAD_K1@Z 0000000140028040 f   libucrtd:cvt.obj
 0001:000271b0       ?shift_bytes@@YAXQEAD_K0H@Z 00000001400281b0 f   libucrtd:cvt.obj
 0001:00027200       ?should_round_up@@YA_NQEBN_KFW4__acrt_rounding_mode@@@Z 0000000140028200 f   libucrtd:cvt.obj
 0001:00027924       $LN42                      0000000140028924     libucrtd:cvt.obj
 0001:00027938       $LN41                      0000000140028938     libucrtd:cvt.obj
 0001:00029590       ?shortsort@@YAXPEAD0_KP6AHPEBX2@Z@Z 000000014002a590 f   libucrtd:qsort.obj
 0001:00029670       ?swap@@YAXPEAD0_K@Z        000000014002a670 f   libucrtd:qsort.obj
 0001:00029e10       ??$common_tcsncpy_s@D@@YAHQEAD_KQEBD1@Z 000000014002ae10 f   libucrtd:strncpy_s.obj
 0001:0002a4d0       fallbackMethod             000000014002b4d0 f   libucrtd:strpbrk.obj
 0001:0002ae34       $LN85                      000000014002be34     libucrtd:strpbrk.obj
 0001:0002ae70       $LN84                      000000014002be70     libucrtd:strpbrk.obj
 0001:0002aeb0       $LN83                      000000014002beb0     libucrtd:strpbrk.obj
 0001:0002aff0       ?__acrt_LCMapStringA_stat@@YAHPEAU__crt_locale_pointers@@PEB_WKPEBDHPEADHHH@Z 000000014002bff0 f   libucrtd:lcmapstringa.obj
 0001:0002b690       ?initialize_multibyte@@YAHXZ 000000014002c690 f   libucrtd:multibyte_initializer.obj
 0001:0002b6c0       ??$common_xtox@KD@@YAHKQEAD_KI_N@Z 000000014002c6c0 f   libucrtd:xtoa.obj
 0001:0002b900       ??$common_xtox@K_W@@YAHKQEA_W_KI_N@Z 000000014002c900 f   libucrtd:xtoa.obj
 0001:0002bb50       ??$common_xtox_s@KD@@YAHKQEAD_KI_N@Z 000000014002cb50 f   libucrtd:xtoa.obj
 0001:0002bf00       ??$common_xtox_s@K_W@@YAHKQEA_W_KI_N@Z 000000014002cf00 f   libucrtd:xtoa.obj
 0001:0002c440       ?GetTableIndexFromLocaleName@@YAHPEB_W@Z 000000014002d440 f   libucrtd:lcidtoname_downlevel.obj
 0001:0002c660       ??$?RV<lambda_842d9ff0dc9ef11c61343bbaebe7f885>@@AEAV<lambda_c5860995281e5c4ce005b3de8f5874ee>@@V<lambda_d90129c13df834fdcbf8d2b88dafcf2d>@@@?$__crt_seh_guarded_call@X@@QEAAX$$QEAV<lambda_842d9ff0dc9ef11c61343bbaebe7f885>@@AEAV<lambda_c5860995281e5c4ce005b3de8f5874ee>@@$$QEAV<lambda_d90129c13df834fdcbf8d2b88dafcf2d>@@@Z 000000014002d660 f   libucrtd:fflush.obj
 0001:0002c6a0       ??$?RV<lambda_886d6c58226a84441f68b9f2b8217b83>@@AEAV<lambda_ab61a845afdef5b7c387490eaf3616ee>@@V<lambda_f7f22ab5edc0698d5f6905b0d3f44752>@@@?$__crt_seh_guarded_call@X@@QEAAX$$QEAV<lambda_886d6c58226a84441f68b9f2b8217b83>@@AEAV<lambda_ab61a845afdef5b7c387490eaf3616ee>@@$$QEAV<lambda_f7f22ab5edc0698d5f6905b0d3f44752>@@@Z 000000014002d6a0 f   libucrtd:fflush.obj
 0001:0002c6e0       ??$__acrt_lock_and_call@V<lambda_ab61a845afdef5b7c387490eaf3616ee>@@@@YAXW4__acrt_lock_id@@$$QEAV<lambda_ab61a845afdef5b7c387490eaf3616ee>@@@Z 000000014002d6e0 f   libucrtd:fflush.obj
 0001:0002c730       ??$__acrt_lock_stream_and_call@V<lambda_c5860995281e5c4ce005b3de8f5874ee>@@@@YAXQEAU_iobuf@@$$QEAV<lambda_c5860995281e5c4ce005b3de8f5874ee>@@@Z 000000014002d730 f   libucrtd:fflush.obj
 0001:0002c780       ??0<lambda_c5860995281e5c4ce005b3de8f5874ee>@@QEAA@AEBV__crt_stdio_stream@@AEAHAEB_N1@Z 000000014002d780 f   libucrtd:fflush.obj
 0001:0002c7e0       ??R<lambda_842d9ff0dc9ef11c61343bbaebe7f885>@@QEBAXXZ 000000014002d7e0 f   libucrtd:fflush.obj
 0001:0002c800       ??R<lambda_ab61a845afdef5b7c387490eaf3616ee>@@QEBA@XZ 000000014002d800 f   libucrtd:fflush.obj
 0001:0002c8f0       ??R<lambda_c5860995281e5c4ce005b3de8f5874ee>@@QEBAXXZ 000000014002d8f0 f   libucrtd:fflush.obj
 0001:0002c990       ??R<lambda_d90129c13df834fdcbf8d2b88dafcf2d>@@QEBAXXZ 000000014002d990 f   libucrtd:fflush.obj
 0001:0002ca00       ?common_flush_all@@YAH_N@Z 000000014002da00 f   libucrtd:fflush.obj
 0001:0002ca70       ?common_flush_all_should_try_to_flush_stream@@YA_NV__crt_stdio_stream@@QEAH@Z 000000014002da70 f   libucrtd:fflush.obj
 0001:0002cb20       ?is_stream_allocated@@YA_NJ@Z 000000014002db20 f   libucrtd:fflush.obj
 0001:0002cb50       ?is_stream_flushable@@YA_NJ@Z 000000014002db50 f   libucrtd:fflush.obj
 0001:0002cb80       ?is_stream_flushable_or_commitable@@YA_NJ@Z 000000014002db80 f   libucrtd:fflush.obj
 0001:0002ce70       ??R<lambda_88e6d024674186fe9d3f7283b675e4c3>@@QEBA_KPEBD@Z 000000014002de70 f   libucrtd:mbrtowc.obj
 0001:0002d580       ?check_trailing@@YA_NPEBDW4__acrt_has_trailing_digits@@@Z 000000014002e580 f   libucrtd:_fptostr.obj
 0001:0002d5d0       ?should_round_up@@YA_NQEBDHW4__acrt_has_trailing_digits@@W4__acrt_rounding_mode@@@Z 000000014002e5d0 f   libucrtd:_fptostr.obj
 0001:0002db90       ??$convert_to_fos_high_precision@N@@YA?AW4__acrt_has_trailing_digits@@NIQEAHQEAD_K@Z 000000014002eb90 f   libucrtd:cfout.obj
 0001:0002e2b0       ??0scoped_fp_state_reset@?A0x71ca7cfb@@QEAA@XZ 000000014002f2b0 f   libucrtd:cfout.obj
 0001:0002e300       ??1scoped_fp_state_reset@?A0x71ca7cfb@@QEAA@XZ 000000014002f300 f   libucrtd:cfout.obj
 0001:000300a0       ?_mbstowcs_l_helper@@YA_KPEA_WPEBD_KPEAU__crt_locale_pointers@@@Z 00000001400310a0 f   libucrtd:mbstowcs.obj
 0001:00030ca0       ?_wcstombs_l_helper@@YA_KPEADPEB_W_KPEAU__crt_locale_pointers@@@Z 0000000140031ca0 f   libucrtd:wcstombs.obj
 0001:00031550       ?wcsncnt@@YA_KPEB_W_K@Z    0000000140032550 f   libucrtd:wcstombs.obj
 0001:00031b70       ??$common_tcscat_s@D@@YAHQEAD_KQEBD@Z 0000000140032b70 f   libucrtd:strcat_s.obj
 0001:000322b0       ??$?RV<lambda_4e3dbe6921bc0b5a1a6bc6573fdc859e>@@AEAV<lambda_5533cddd4bda0037814beee657757329>@@V<lambda_47cffbaa968af5c721c38a4a6f8da44d>@@@?$__crt_seh_guarded_call@H@@QEAAH$$QEAV<lambda_4e3dbe6921bc0b5a1a6bc6573fdc859e>@@AEAV<lambda_5533cddd4bda0037814beee657757329>@@$$QEAV<lambda_47cffbaa968af5c721c38a4a6f8da44d>@@@Z 00000001400332b0 f   libucrtd:commit.obj
 0001:00032300       ??$__acrt_lowio_lock_fh_and_call@V<lambda_5533cddd4bda0037814beee657757329>@@@@YAHH$$QEAV<lambda_5533cddd4bda0037814beee657757329>@@@Z 0000000140033300 f   libucrtd:commit.obj
 0001:00032350       ??R<lambda_8ddc48ad9d26c778cb15812d1d88fc8a>@@QEBAXXZ 0000000140033350 f   libucrtd:close.obj
 0001:00032350       ??R<lambda_47cffbaa968af5c721c38a4a6f8da44d>@@QEBAXXZ 0000000140033350 f   libucrtd:commit.obj
 0001:00032370       ??R<lambda_53fc7fc888e23d815d7080162c0aeeb2>@@QEBAXXZ 0000000140033370 f   libucrtd:close.obj
 0001:00032370       ??R<lambda_4e3dbe6921bc0b5a1a6bc6573fdc859e>@@QEBAXXZ 0000000140033370 f   libucrtd:commit.obj
 0001:00032390       ??R<lambda_5533cddd4bda0037814beee657757329>@@QEBAHXZ 0000000140033390 f   libucrtd:commit.obj
 0001:00032630       ?write_binary_nolock@@YA?AUwrite_result@?A0x17268360@@HQEBDI@Z 0000000140033630 f   libucrtd:write.obj
 0001:00032700       ?write_double_translated_ansi_nolock@@YA?AUwrite_result@?A0x17268360@@HQEBDI@Z 0000000140033700 f   libucrtd:write.obj
 0001:00033660       ?write_double_translated_unicode_nolock@@YA?AUwrite_result@?A0x17268360@@QEBDI@Z 0000000140034660 f   libucrtd:write.obj
 0001:000337c0       ?write_requires_double_translation_nolock@@YA_NH@Z 00000001400347c0 f   libucrtd:write.obj
 0001:000338e0       ?write_text_ansi_nolock@@YA?AUwrite_result@?A0x17268360@@HQEBDI@Z 00000001400348e0 f   libucrtd:write.obj
 0001:00033b10       ?write_text_utf16le_nolock@@YA?AUwrite_result@?A0x17268360@@HQEBDI@Z 0000000140034b10 f   libucrtd:write.obj
 0001:00033d50       ?write_text_utf8_nolock@@YA?AUwrite_result@?A0x17268360@@HQEBDI@Z 0000000140034d50 f   libucrtd:write.obj
 0001:00034c90       $$000000                   0000000140035c90     libucrtd:log10.obj
 0001:000357d0       ??$to_abstract_status@W4__acrt_fenv_machine_sse_status@@@@YA?AW4__acrt_fenv_abstract_status@@W4__acrt_fenv_machine_sse_status@@@Z 00000001400367d0 f   libucrtd:_fenvutils.obj
 0001:000357f0       ??$translate_control_exception_mask@W4__acrt_fenv_abstract_control@@W4__acrt_fenv_machine_sse_control@@@@YA?AW4__acrt_fenv_abstract_control@@W4__acrt_fenv_machine_sse_control@@@Z 00000001400367f0 f   libucrtd:_fenvutils.obj
 0001:000358e0       ??$translate_control_exception_mask@W4__acrt_fenv_machine_sse_control@@W4__acrt_fenv_abstract_control@@@@YA?AW4__acrt_fenv_machine_sse_control@@W4__acrt_fenv_abstract_control@@@Z 00000001400368e0 f   libucrtd:_fenvutils.obj
 0001:000359d0       ??$translate_control_rounding_control@W4__acrt_fenv_abstract_control@@W4__acrt_fenv_machine_sse_control@@@@YA?AW4__acrt_fenv_abstract_control@@W4__acrt_fenv_machine_sse_control@@@Z 00000001400369d0 f   libucrtd:_fenvutils.obj
 0001:00035a40       ??$translate_control_rounding_control@W4__acrt_fenv_machine_sse_control@@W4__acrt_fenv_abstract_control@@@@YA?AW4__acrt_fenv_machine_sse_control@@W4__acrt_fenv_abstract_control@@@Z 0000000140036a40 f   libucrtd:_fenvutils.obj
 0001:00035ab0       ??$translate_status@W4__acrt_fenv_abstract_status@@W4__acrt_fenv_machine_sse_status@@@@YA?AW4__acrt_fenv_abstract_status@@W4__acrt_fenv_machine_sse_status@@@Z 0000000140036ab0 f   libucrtd:_fenvutils.obj
 0001:00035ba0       ??$translate_status@W4__acrt_fenv_machine_sse_status@@W4__acrt_fenv_abstract_status@@@@YA?AW4__acrt_fenv_machine_sse_status@@W4__acrt_fenv_abstract_status@@@Z 0000000140036ba0 f   libucrtd:_fenvutils.obj
 0001:00035e70       ?get_machine_sse_control@@YA?AW4__acrt_fenv_machine_sse_control@@XZ 0000000140036e70 f   libucrtd:_fenvutils.obj
 0001:00035e90       ?get_machine_sse_status@@YA?AW4__acrt_fenv_machine_sse_status@@XZ 0000000140036e90 f   libucrtd:_fenvutils.obj
 0001:00035eb0       ?set_machine_sse_control@@YAXW4__acrt_fenv_machine_sse_control@@@Z 0000000140036eb0 f   libucrtd:_fenvutils.obj
 0001:00035f10       ?set_machine_sse_status@@YAXW4__acrt_fenv_machine_sse_status@@@Z 0000000140036f10 f   libucrtd:_fenvutils.obj
 0001:00035f60       ?to_abstract_control@@YA?AW4__acrt_fenv_abstract_control@@W4__acrt_fenv_machine_sse_control@@@Z 0000000140036f60 f   libucrtd:_fenvutils.obj
 0001:00035fb0       ?to_machine_sse_control@@YA?AW4__acrt_fenv_machine_sse_control@@W4__acrt_fenv_abstract_control@@@Z 0000000140036fb0 f   libucrtd:_fenvutils.obj
 0001:00036010       ?to_machine_sse_status@@YA?AW4__acrt_fenv_machine_sse_status@@W4__acrt_fenv_abstract_status@@@Z 0000000140037010 f   libucrtd:_fenvutils.obj
 0001:00036030       ?translate_control_denormal_control_from_sse@@YA?AW4__acrt_fenv_abstract_control@@W4__acrt_fenv_machine_sse_control@@@Z 0000000140037030 f   libucrtd:_fenvutils.obj
 0001:000360b0       ?translate_control_denormal_control_to_sse@@YA?AW4__acrt_fenv_machine_sse_control@@W4__acrt_fenv_abstract_control@@@Z 00000001400370b0 f   libucrtd:_fenvutils.obj
 0001:000361d0       ??$common_lseek_nolock@_J@@YA_JH_JH@Z 00000001400371d0 f   libucrtd:lseek.obj
 0001:000362e0       ?common_lseek_do_seek_nolock@@YA_JQEAX_JH@Z 00000001400372e0 f   libucrtd:lseek.obj
 0001:000369f0       _log_special_common        00000001400379f0 f   libucrtd:log_special.obj
 0001:00036b10       _call_matherr              0000000140037b10 f   libucrtd:libm_error.obj
 0001:00036ba0       _exception_enabled         0000000140037ba0 f   libucrtd:libm_error.obj
 0001:00036ec0       _abstract_cw               0000000140037ec0 f   libucrtd:ieee.obj
 0001:00037010       _abstract_sw               0000000140038010 f   libucrtd:ieee.obj
 0001:000370f0       _hw_cw                     00000001400380f0 f   libucrtd:ieee.obj
 0001:00037240       common_control87           0000000140038240 f   libucrtd:ieee.obj
 0001:00037360       ??$?RV<lambda_53fc7fc888e23d815d7080162c0aeeb2>@@AEAV<lambda_4e7105787b7b0e0227fbf2b2d883fa65>@@V<lambda_8ddc48ad9d26c778cb15812d1d88fc8a>@@@?$__crt_seh_guarded_call@H@@QEAAH$$QEAV<lambda_53fc7fc888e23d815d7080162c0aeeb2>@@AEAV<lambda_4e7105787b7b0e0227fbf2b2d883fa65>@@$$QEAV<lambda_8ddc48ad9d26c778cb15812d1d88fc8a>@@@Z 0000000140038360 f   libucrtd:close.obj
 0001:000373b0       ??$__acrt_lowio_lock_fh_and_call@V<lambda_4e7105787b7b0e0227fbf2b2d883fa65>@@@@YAHH$$QEAV<lambda_4e7105787b7b0e0227fbf2b2d883fa65>@@@Z 00000001400383b0 f   libucrtd:close.obj
 0001:00037400       ??R<lambda_4e7105787b7b0e0227fbf2b2d883fa65>@@QEBAHXZ 0000000140038400 f   libucrtd:close.obj
 0001:000374b0       ?close_os_handle_nolock@@YAKH@Z 00000001400384b0 f   libucrtd:close.obj
 0001:000379c0       ?combine_second_surrogate@?A0xc60ee810@@YA_U_SPEAU_Mbstatet@@@Z 00000001400389c0 f   libucrtd:c16rtomb.obj
 0001:000379e0       ?has_surrogate@?A0xc60ee810@@YA_NPEAU_Mbstatet@@@Z 00000001400389e0 f   libucrtd:c16rtomb.obj
 0001:00037a10       ?is_first_surrogate@?A0xc60ee810@@YA_N_S@Z 0000000140038a10 f   libucrtd:c16rtomb.obj
 0001:00037a50       ?is_second_surrogate@?A0xc60ee810@@YA_N_S@Z 0000000140038a50 f   libucrtd:c16rtomb.obj
 0001:00037a90       ?store_first_surrogate@?A0xc60ee810@@YAX_SPEAU_Mbstatet@@@Z 0000000140038a90 f   libucrtd:c16rtomb.obj
 0001:00038480       $$000000                   0000000140039480     libucrtd:fpsr.obj
 0001:000387e0       $$000000                   00000001400397e0     LIBCMTD:chkstk.obj
 0001:00038910       $$000000                   0000000140039910     libvcruntimed:memcmp.obj
 0001:00038e10       $$000000                   0000000140039e10     LIBCMTD:guard_dispatch.obj
 0001:00038e30       $$000000                   0000000140039e30     LIBCMTD:guard_xfg_dispatch.obj
 0001:00038e50       ?filt$0@?0??__scrt_common_main_seh@@YAHXZ@4HA 0000000140039e50 f   LIBCMTD:exe_winmain.obj
 0001:00038e80       __scrt_is_nonwritable_in_current_image$filt$0 0000000140039e80 f   LIBCMTD:utility.obj
 0001:00038ec0       __DestructExceptionObject$filt$0 0000000140039ec0 f   libvcruntimed:ehhelpers.obj
 0001:00038ef0       ?filt$0@?0???$_CallSETranslator@V__FrameHandler3@@@@YAHPEAUEHExceptionRecord@@PEA_KPEAU_CONTEXT@@PEAU_xDISPATCHER_CONTEXT@@PEBU_s_FuncInfo@@K1H@Z@4HA 0000000140039ef0 f   libvcruntimed:risctrnsctrl.obj
 0001:00038f60       ?filt$0@?0??is_bad_read_pointer@@YA_NQEBX_K@Z@4HA 0000000140039f60 f   libucrtd:debug_heap.obj
 0001:00038f60       terminate$filt$0           0000000140039f60 f   libucrtd:terminate.obj
 0001:00038f60       ?filt$0@?0???$BuildCatchObjectHelperInternal@V__FrameHandler3@@@@YAHPEAUEHExceptionRecord@@PEAXPEBU_s_HandlerType@@PEBU_s_CatchableType@@@Z@4HA 0000000140039f60 f   libvcruntimed:frame.obj
 0001:00038f60       ?filt$0@?0???$BuildCatchObjectInternal@V__FrameHandler3@@@@YAXPEAUEHExceptionRecord@@PEAXPEBU_s_HandlerType@@PEBU_s_CatchableType@@@Z@4HA 0000000140039f60 f   libvcruntimed:frame.obj
 0001:00038f80       ?filt$0@?0??CxxCallCatchBlock@__FrameHandler3@@SAPEAXPEAU_EXCEPTION_RECORD@@@Z@4HA 0000000140039f80 f   libvcruntimed:frame.obj
 0001:00038fa9       ?fin$1@?0??CxxCallCatchBlock@__FrameHandler3@@SAPEAXPEAU_EXCEPTION_RECORD@@@Z@4HA 0000000140039fa9 f   libvcruntimed:frame.obj
 0001:00039040       ?filt$0@?0??FrameUnwindToState@__FrameHandler3@@SAXPEA_KPEAU_xDISPATCHER_CONTEXT@@PEBU_s_FuncInfo@@H@Z@4HA 000000014003a040 f   libvcruntimed:frame.obj
 0001:00039061       ?fin$1@?0??FrameUnwindToState@__FrameHandler3@@SAXPEA_KPEAU_xDISPATCHER_CONTEXT@@PEBU_s_FuncInfo@@H@Z@4HA 000000014003a061 f   libvcruntimed:frame.obj
 0001:000390a0       ?fin$0@?0???$?RV<lambda_0ae27a3a962d80f24befdcbee591983d>@@AEAV<lambda_8d0ee55de4b1038c4002e0adecdf1839>@@V<lambda_dc504788e8f1664fe9b84e20bfb512f2>@@@?$__crt_seh_guarded_call@X@@QEAAX$$QEAV<lambda_0ae27a3a962d80f24befdcbee591983d>@@AEAV<lambda_8d0ee55de4b1038c4002e0adecdf1839>@@$$QEAV<lambda_dc504788e8f1664fe9b84e20bfb512f2>@@@Z@4HA 000000014003a0a0 f   libucrtd:per_thread_data.obj
 0001:000390a0       ?fin$0@?0???$?RV<lambda_2d41944a1d46af3157314b8a01080d33>@@AEAV<lambda_8f455de75cd7d7f24b4096f044d8b9e6>@@V<lambda_aa500f224e6afead328df44964fe2772>@@@?$__crt_seh_guarded_call@X@@QEAAX$$QEAV<lambda_2d41944a1d46af3157314b8a01080d33>@@AEAV<lambda_8f455de75cd7d7f24b4096f044d8b9e6>@@$$QEAV<lambda_aa500f224e6afead328df44964fe2772>@@@Z@4HA 000000014003a0a0 f   libucrtd:per_thread_data.obj
 0001:000390a0       ?fin$0@?0???$?RV<lambda_74a0ef281e44d15e1136f792f539efb3>@@AEAV<lambda_e157831efee4ea0afb0a2ace5dd5fd0d>@@V<lambda_04ddeca75b7c13fd67716e8dfcef87ee>@@@?$__crt_seh_guarded_call@X@@QEAAX$$QEAV<lambda_74a0ef281e44d15e1136f792f539efb3>@@AEAV<lambda_e157831efee4ea0afb0a2ace5dd5fd0d>@@$$QEAV<lambda_04ddeca75b7c13fd67716e8dfcef87ee>@@@Z@4HA 000000014003a0a0 f   libucrtd:per_thread_data.obj
 0001:000390a0       ?fin$0@?0???$?RV<lambda_aa87e3671a710a21b5dc78c0bdf72e11>@@AEAV<lambda_92619d2358a28f41a33ba319515a20b9>@@V<lambda_6992ecaafeb10aed2b74cb1fae11a551>@@@?$__crt_seh_guarded_call@X@@QEAAX$$QEAV<lambda_aa87e3671a710a21b5dc78c0bdf72e11>@@AEAV<lambda_92619d2358a28f41a33ba319515a20b9>@@$$QEAV<lambda_6992ecaafeb10aed2b74cb1fae11a551>@@@Z@4HA 000000014003a0a0 f   libucrtd:per_thread_data.obj
 0001:000390a0       ?fin$0@?0???$?RV<lambda_410d79af7f07d98d83a3f525b3859a53>@@AEAV<lambda_3e16ef9562a7dcce91392c22ab16ea36>@@V<lambda_38119f0e861e05405d8a144b9b982f0a>@@@?$__crt_seh_guarded_call@X@@QEAAX$$QEAV<lambda_410d79af7f07d98d83a3f525b3859a53>@@AEAV<lambda_3e16ef9562a7dcce91392c22ab16ea36>@@$$QEAV<lambda_38119f0e861e05405d8a144b9b982f0a>@@@Z@4HA 000000014003a0a0 f   libucrtd:wsetlocale.obj
 0001:000390a0       ?fin$0@?0???$?RV<lambda_efa02eb69bf647d2f7ff0dd6f1103f72>@@AEAV<lambda_bd5a608237428601b7e45fbdc72b1ae8>@@V<lambda_728235dc0fc2b1f82d1fa5b3e7102d8f>@@@?$__crt_seh_guarded_call@X@@QEAAX$$QEAV<lambda_efa02eb69bf647d2f7ff0dd6f1103f72>@@AEAV<lambda_bd5a608237428601b7e45fbdc72b1ae8>@@$$QEAV<lambda_728235dc0fc2b1f82d1fa5b3e7102d8f>@@@Z@4HA 000000014003a0a0 f   libucrtd:mbctype.obj
 0001:000390a0       ?fin$0@?0???$?RV<lambda_d80eeec6fff315bfe5c115232f3240e3>@@AEAV<lambda_6e4b09c48022b2350581041d5f6b0c4c>@@V<lambda_2358e3775559c9db80273638284d5e45>@@@?$__crt_seh_guarded_call@X@@QEAAX$$QEAV<lambda_d80eeec6fff315bfe5c115232f3240e3>@@AEAV<lambda_6e4b09c48022b2350581041d5f6b0c4c>@@$$QEAV<lambda_2358e3775559c9db80273638284d5e45>@@@Z@4HA 000000014003a0a0 f   libucrtd:exit.obj
 0001:000390a0       ?fin$0@?0???$?RV<lambda_886d6c58226a84441f68b9f2b8217b83>@@AEAV<lambda_ab61a845afdef5b7c387490eaf3616ee>@@V<lambda_f7f22ab5edc0698d5f6905b0d3f44752>@@@?$__crt_seh_guarded_call@X@@QEAAX$$QEAV<lambda_886d6c58226a84441f68b9f2b8217b83>@@AEAV<lambda_ab61a845afdef5b7c387490eaf3616ee>@@$$QEAV<lambda_f7f22ab5edc0698d5f6905b0d3f44752>@@@Z@4HA 000000014003a0a0 f   libucrtd:fflush.obj
 0001:000390c0       ?filt$0@?0???R<lambda_6e4b09c48022b2350581041d5f6b0c4c>@@QEBA@XZ@4HA 000000014003a0c0 f   libucrtd:exit.obj
 0001:000390f0       ?fin$0@?0???$?RV<lambda_450d765d439847d4c735a33c368b5fc0>@@AEAV<lambda_44731a7d0e6d81c3e6aa82d741081786>@@V<lambda_601a2a7da3b7a96e9554ac7215c4b07c>@@@?$__crt_seh_guarded_call@P6AXH@Z@@QEAAP6AXH@Z$$QEAV<lambda_450d765d439847d4c735a33c368b5fc0>@@AEAV<lambda_44731a7d0e6d81c3e6aa82d741081786>@@$$QEAV<lambda_601a2a7da3b7a96e9554ac7215c4b07c>@@@Z@4HA 000000014003a0f0 f   libucrtd:signal.obj
 0001:000390f0       ?fin$0@?0???$?RV<lambda_6a47f4c8fd0152770a780fc1d70204eb>@@AEAV<lambda_d121dba8a4adeaf3a9819e48611155df>@@V<lambda_6aaa2265f5b6a89667e7d7630012e97a>@@@?$__crt_seh_guarded_call@H@@QEAAH$$QEAV<lambda_6a47f4c8fd0152770a780fc1d70204eb>@@AEAV<lambda_d121dba8a4adeaf3a9819e48611155df>@@$$QEAV<lambda_6aaa2265f5b6a89667e7d7630012e97a>@@@Z@4HA 000000014003a0f0 f   libucrtd:onexit.obj
 0001:000390f0       ?fin$0@?0???$?RV<lambda_dce957679fd779aa27c4ca5c39e09098>@@AEAV<lambda_3b83eb014488ad801d84acef5aaf14d3>@@V<lambda_00e911965883f7966597d4c465c83ebc>@@@?$__crt_seh_guarded_call@H@@QEAAH$$QEAV<lambda_dce957679fd779aa27c4ca5c39e09098>@@AEAV<lambda_3b83eb014488ad801d84acef5aaf14d3>@@$$QEAV<lambda_00e911965883f7966597d4c465c83ebc>@@@Z@4HA 000000014003a0f0 f   libucrtd:onexit.obj
 0001:00039110       ?dtor$0@?0???R<lambda_d121dba8a4adeaf3a9819e48611155df>@@QEBAHXZ@4HA 000000014003a110 f   libucrtd:onexit.obj
 0001:00039130       ?fin$0@?0??heap_alloc_dbg_internal@@YAPEAX_KHQEBDH@Z@4HA 000000014003a130 f   libucrtd:debug_heap.obj
 0001:00039130       _CrtMemCheckpoint$fin$0    000000014003a130 f   libucrtd:debug_heap.obj
 0001:00039150       ?fin$0@?0??validate_heap_if_required_nolock@@YAXXZ@4HA 000000014003a150 f   libucrtd:debug_heap.obj
 0001:00039170       _CrtCheckMemory$fin$0      000000014003a170 f   libucrtd:debug_heap.obj
 0001:00039170       _CrtMemDumpAllObjectsSince$fin$0 000000014003a170 f   libucrtd:debug_heap.obj
 0001:00039170       _CrtSetDbgFlag$fin$0       000000014003a170 f   libucrtd:debug_heap.obj
 0001:00039170       _msize_dbg$fin$0           000000014003a170 f   libucrtd:debug_heap.obj
 0001:00039170       _realloc_dbg$fin$0         000000014003a170 f   libucrtd:debug_heap.obj
 0001:00039190       _free_dbg$fin$0            000000014003a190 f   libucrtd:debug_heap.obj
 0001:00039190       _query_new_handler$fin$0   000000014003a190 f   libucrtd:new_handler.obj
 0001:000391b0       ?fin$0@?0??update_thread_multibyte_data_internal@@YAPEAU__crt_multibyte_data@@QEAU__acrt_ptd@@QEAPEAU1@@Z@4HA 000000014003a1b0 f   libucrtd:mbctype.obj
 0001:000391d0       __acrt_lowio_ensure_fh_exists$fin$0 000000014003a1d0 f   libucrtd:osfinfo.obj
 0001:000391f0       __acrt_initialize_lowio$fin$0 000000014003a1f0 f   libucrtd:ioinit.obj
 0001:00039210       __acrt_update_thread_locale_data$fin$0 000000014003a210 f   libucrtd:locale_refcounting.obj
 0001:00039230       raise$fin$0                000000014003a230 f   libucrtd:signal.obj
 0001:00039260       ?dtor$0@?0??fp_format_a@@YAHQEBNPEAD_KQEAD2H_NIQEAU__crt_locale_pointers@@W4__acrt_rounding_mode@@@Z@4HA 000000014003a260 f   libucrtd:cvt.obj
 0001:00039280       _VCrtDbgReportA$fin$0      000000014003a280 f   libucrtd:dbgrptt.obj
 0001:0003929b       _VCrtDbgReportA$fin$1      000000014003a29b f   libucrtd:dbgrptt.obj
 0001:000392c0       _VCrtDbgReportW$fin$0      000000014003a2c0 f   libucrtd:dbgrptt.obj
 0001:000392db       _VCrtDbgReportW$fin$1      000000014003a2db f   libucrtd:dbgrptt.obj
 0001:00039300       ?dtor$0@?0??shortsort@@YAXPEAD0_KP6AHPEBX2@Z@Z@4HA 000000014003a300 f   libucrtd:qsort.obj
 0001:00039320       ?fin$0@?0???$?RV<lambda_842d9ff0dc9ef11c61343bbaebe7f885>@@AEAV<lambda_c5860995281e5c4ce005b3de8f5874ee>@@V<lambda_d90129c13df834fdcbf8d2b88dafcf2d>@@@?$__crt_seh_guarded_call@X@@QEAAX$$QEAV<lambda_842d9ff0dc9ef11c61343bbaebe7f885>@@AEAV<lambda_c5860995281e5c4ce005b3de8f5874ee>@@$$QEAV<lambda_d90129c13df834fdcbf8d2b88dafcf2d>@@@Z@4HA 000000014003a320 f   libucrtd:fflush.obj
 0001:00039340       _fcloseall$fin$0           000000014003a340 f   libucrtd:closeall.obj
 0001:00039360       ?dtor$0@?0??_wcstombs_l_helper@@YA_KPEADPEB_W_KPEAU__crt_locale_pointers@@@Z@4HA 000000014003a360 f   libucrtd:wcstombs.obj
 0001:00039380       ?fin$0@?0???$?RV<lambda_53fc7fc888e23d815d7080162c0aeeb2>@@AEAV<lambda_4e7105787b7b0e0227fbf2b2d883fa65>@@V<lambda_8ddc48ad9d26c778cb15812d1d88fc8a>@@@?$__crt_seh_guarded_call@H@@QEAAH$$QEAV<lambda_53fc7fc888e23d815d7080162c0aeeb2>@@AEAV<lambda_4e7105787b7b0e0227fbf2b2d883fa65>@@$$QEAV<lambda_8ddc48ad9d26c778cb15812d1d88fc8a>@@@Z@4HA 000000014003a380 f   libucrtd:close.obj
 0001:00039380       ?fin$0@?0???$?RV<lambda_4e3dbe6921bc0b5a1a6bc6573fdc859e>@@AEAV<lambda_5533cddd4bda0037814beee657757329>@@V<lambda_47cffbaa968af5c721c38a4a6f8da44d>@@@?$__crt_seh_guarded_call@H@@QEAAH$$QEAV<lambda_4e3dbe6921bc0b5a1a6bc6573fdc859e>@@AEAV<lambda_5533cddd4bda0037814beee657757329>@@$$QEAV<lambda_47cffbaa968af5c721c38a4a6f8da44d>@@@Z@4HA 000000014003a380 f   libucrtd:commit.obj
 0001:000393a0       _write$fin$0               000000014003a3a0 f   libucrtd:write.obj
 0001:000393c0       fclose$fin$0               000000014003a3c0 f   libucrtd:fclose.obj
 0001:000393f0       common_control87$filt$0    000000014003a3f0 f   libucrtd:ieee.obj
 0001:00039440       _ctrlfp$filt$0             000000014003a440 f   libucrtd:fpctrl.obj
 0001:00039490       _IsNonwritableInCurrentImage$filt$0 000000014003a490 f   LIBCMTD:pesect.obj
 0002:00000390       ?pre_cpp_initializer@@3P6AXXZEA 000000014003b390     LIBCMTD:exe_winmain.obj
 0002:000003a8       ?pre_c_initializer@@3P6AHXZEA 000000014003b3a8     LIBCMTD:exe_winmain.obj
 0002:000003b0       ?post_pgo_initializer@@3P6AHXZEA 000000014003b3b0     LIBCMTD:exe_winmain.obj
 0002:00000420       $SG64594                   000000014003b420     win32_platform.obj
 0002:00000470       $SG64609                   000000014003b470     win32_platform.obj
 0002:00000498       $SG64729                   000000014003b498     win32_platform.obj
 0002:000004a8       $SG64755                   000000014003b4a8     win32_platform.obj
 0002:000004b0       $SG64758                   000000014003b4b0     win32_platform.obj
 0002:000004d0       $SG64759                   000000014003b4d0     win32_platform.obj
 0002:00000508       GS_ExceptionPointers       000000014003b508     LIBCMTD:gs_report.obj
 0002:00000570       ?tokenTable@@3QBUStringLiteral@@B 000000014003b570     libvcruntimed:undname.obj
 0002:00000670       ?nameTable@@3QBUStringLiteral@@B 000000014003b670     libvcruntimed:undname.obj
 0002:00000ba0       ?rttiTable@@3QBUStringLiteral@@B 000000014003bba0     libvcruntimed:undname.obj
 0002:00000bf0       ?IndirectionName@@3QBUStringLiteral@@B 000000014003bbf0     libvcruntimed:undname.obj
 0002:00000c50       ?PrefixName@@3QBUStringLiteral@@B 000000014003bc50     libvcruntimed:undname.obj
 0002:00001330       ?module_names@?A0x61a31dd3@@3QBQEB_WB 000000014003c330     libvcruntimed:winapi_downlevel.obj
 0002:000015b0       ?candidate_modules@?1??try_get_FlsAlloc@@YAP6AKP6AXPEAX@Z@ZXZ@4QBW4module_id@?A0x61a31dd3@@B 000000014003c5b0     libvcruntimed:winapi_downlevel.obj
 0002:000015c8       ?candidate_modules@?1??try_get_FlsFree@@YAP6AHK@ZXZ@4QBW4module_id@?A0x61a31dd3@@B 000000014003c5c8     libvcruntimed:winapi_downlevel.obj
 0002:000015d8       ?candidate_modules@?1??try_get_FlsGetValue@@YAP6APEAXK@ZXZ@4QBW4module_id@?A0x61a31dd3@@B 000000014003c5d8     libvcruntimed:winapi_downlevel.obj
 0002:000015f0       ?candidate_modules@?1??try_get_FlsSetValue@@YAP6AHKPEAX@ZXZ@4QBW4module_id@?A0x61a31dd3@@B 000000014003c5f0     libvcruntimed:winapi_downlevel.obj
 0002:00001608       ?candidate_modules@?1??try_get_InitializeCriticalSectionEx@@YAP6AHPEAU_RTL_CRITICAL_SECTION@@KK@ZXZ@4QBW4module_id@?A0x61a31dd3@@B 000000014003c608     libvcruntimed:winapi_downlevel.obj
 0002:00001630       ?ExceptionTemplate@?1??UnwindNestedFrames@__FrameHandler3@@SAXPEA_KPEAUEHExceptionRecord@@PEAU_CONTEXT@@0PEAXPEBU_s_FuncInfo@@HHPEBU_s_HandlerType@@PEAU_xDISPATCHER_CONTEXT@@E@Z@4U_EXCEPTION_RECORD@@B 000000014003c630     libvcruntimed:risctrnsctrl.obj
 0002:00002458       $cppxdata$??R<lambda_d121dba8a4adeaf3a9819e48611155df>@@QEBAHXZ 000000014003d458     libucrtd:onexit.obj
 0002:000024c0       __acrt_initializers        000000014003d4c0     libucrtd:initialization.obj
 0002:000025c0       ?block_use_names@@3QBQEBDB 000000014003d5c0     libucrtd:debug_heap.obj
 0002:00005848       ?report_type_messages@@3QBQEB_WB 0000000140040848     libucrtd:dbgrpt.obj
 0002:000058a8       ?more_info_string@@3QEB_WEB 00000001400408a8     libucrtd:dbgrpt.obj
 0002:00005bae       ?empty_string@?1???$common_message_window@D@@YAHHQEAXQEBD111@Z@4QBDB 0000000140040bae     libucrtd:dbgrpt.obj
 0002:00005e28       ?empty_string@?1???$common_message_window@_W@@YAHHQEAXQEB_W111@Z@4QB_WB 0000000140040e28     libucrtd:dbgrpt.obj
 0002:00006340       ?errtable@@3QBUerrentry@?A0x31fdb9ec@@B 0000000140041340     libucrtd:errno.obj
 0002:000064d0       $cppxdata$??1?$__crt_win32_buffer@DU__crt_win32_buffer_internal_dynamic_resizing@@@@QEAA@XZ 00000001400414d0     libucrtd:argv_wildcards.obj
 0002:000064d0       $cppxdata$??1?$__crt_win32_buffer@_WU__crt_win32_buffer_internal_dynamic_resizing@@@@QEAA@XZ 00000001400414d0     libucrtd:argv_wildcards.obj
 0002:000068e8       $cppxdata$??1?$__crt_win32_buffer@DU__crt_win32_buffer_no_resizing@@@@QEAA@XZ 00000001400418e8     libucrtd:getmodulefilenamea.obj
 0002:00006910       ?_mb_locale_names@@3QBQEB_WB 0000000140041910     libucrtd:mbctype.obj
 0002:00007f10       ?module_names@?A0x391cf84c@@3QBQEB_WB 0000000140042f10     libucrtd:winapi_thunks.obj
 0002:00008494       ?candidate_modules@?1??try_get_AreFileApisANSI@@YAP6AHXZXZ@4QBW4module_id@?A0x391cf84c@@B 0000000140043494     libucrtd:winapi_thunks.obj
 0002:000084a8       ?candidate_modules@?1??try_get_FlsAlloc@@YAP6AKP6AXPEAX@Z@ZXZ@4QBW4module_id@?A0x391cf84c@@B 00000001400434a8     libucrtd:winapi_thunks.obj
 0002:000084b0       ?candidate_modules@?1??try_get_FlsFree@@YAP6AHK@ZXZ@4QBW4module_id@?A0x391cf84c@@B 00000001400434b0     libucrtd:winapi_thunks.obj
 0002:000084b8       ?candidate_modules@?1??try_get_FlsGetValue@@YAP6APEAXK@ZXZ@4QBW4module_id@?A0x391cf84c@@B 00000001400434b8     libucrtd:winapi_thunks.obj
 0002:000084c0       ?candidate_modules@?1??try_get_FlsSetValue@@YAP6AHKPEAX@ZXZ@4QBW4module_id@?A0x391cf84c@@B 00000001400434c0     libucrtd:winapi_thunks.obj
 0002:000084c8       ?candidate_modules@?1??try_get_GetActiveWindow@@YAP6APEAUHWND__@@XZXZ@4QBW4module_id@?A0x391cf84c@@B 00000001400434c8     libucrtd:winapi_thunks.obj
 0002:000084e0       ?candidate_modules@?1??try_get_GetLastActivePopup@@YAP6APEAUHWND__@@PEAU2@@ZXZ@4QBW4module_id@?A0x391cf84c@@B 00000001400434e0     libucrtd:winapi_thunks.obj
 0002:00008500       ?candidate_modules@?1??try_get_GetProcessWindowStation@@YAP6APEAUHWINSTA__@@XZXZ@4QBW4module_id@?A0x391cf84c@@B 0000000140043500     libucrtd:winapi_thunks.obj
 0002:00008520       ?candidate_modules@?1??try_get_GetUserObjectInformationW@@YAP6AHPEAXH0KPEAK@ZXZ@4QBW4module_id@?A0x391cf84c@@B 0000000140043520     libucrtd:winapi_thunks.obj
 0002:00008548       ?candidate_modules@?1??try_get_InitializeCriticalSectionEx@@YAP6AHPEAU_RTL_CRITICAL_SECTION@@KK@ZXZ@4QBW4module_id@?A0x391cf84c@@B 0000000140043548     libucrtd:winapi_thunks.obj
 0002:00008550       ?candidate_modules@?1??try_get_LCMapStringEx@@YAP6AHPEB_WK0HPEA_WHPEAU_nlsversioninfo@@PEAX_J@ZXZ@4QBW4module_id@?A0x391cf84c@@B 0000000140043550     libucrtd:winapi_thunks.obj
 0002:00008568       ?candidate_modules@?1??try_get_LocaleNameToLCID@@YAP6AKPEB_WK@ZXZ@4QBW4module_id@?A0x391cf84c@@B 0000000140043568     libucrtd:winapi_thunks.obj
 0002:00008588       ?candidate_modules@?1??try_get_MessageBoxA@@YAP6AHPEAUHWND__@@PEBD1I@ZXZ@4QBW4module_id@?A0x391cf84c@@B 0000000140043588     libucrtd:winapi_thunks.obj
 0002:000085a0       ?candidate_modules@?1??try_get_MessageBoxW@@YAP6AHPEAUHWND__@@PEB_W1I@ZXZ@4QBW4module_id@?A0x391cf84c@@B 00000001400435a0     libucrtd:winapi_thunks.obj
 0002:000085b4       ?candidate_modules@?1??try_get_AppPolicyGetProcessTerminationMethod@@YAP6AJPEAXPEAW4AppPolicyProcessTerminationMethod@@@ZXZ@4QBW4module_id@?A0x391cf84c@@B 00000001400435b4     libucrtd:winapi_thunks.obj
 0002:000085e0       ?candidate_modules@?1??try_get_AppPolicyGetShowDeveloperDiagnostic@@YAP6AJPEAXPEAW4AppPolicyShowDeveloperDiagnostic@@@ZXZ@4QBW4module_id@?A0x391cf84c@@B 00000001400435e0     libucrtd:winapi_thunks.obj
 0002:0000860c       ?candidate_modules@?1??try_get_AppPolicyGetWindowingModel@@YAP6AJPEAXPEAW4AppPolicyWindowingModel@@@ZXZ@4QBW4module_id@?A0x391cf84c@@B 000000014004360c     libucrtd:winapi_thunks.obj
 0002:00008c60       $cppxdata$?fp_format_a@@YAHQEBNPEAD_KQEAD2H_NIQEAU__crt_locale_pointers@@W4__acrt_rounding_mode@@@Z 0000000140043c60     libucrtd:cvt.obj
 0002:00008c90       ?strings@?1??fp_format_nan_or_infinity@@YAHW4__acrt_fp_class@@_NPEAD_K1@Z@4QAY03QEBDA 0000000140043c90     libucrtd:cvt.obj
 0002:0000a108       $cppxdata$?shortsort@@YAXPEAD0_KP6AHPEBX2@Z@Z 0000000140045108     libucrtd:qsort.obj
 0002:0000a4f0       ?LcidToLocaleNameTable@?A0x881e4c05@@3QBULcidToLocaleName@1@B 00000001400454f0     libucrtd:lcidtoname_downlevel.obj
 0002:0000bf40       ?LocaleNameToIndexTable@?A0x881e4c05@@3QBULocaleNameIndex@1@B 0000000140046f40     libucrtd:lcidtoname_downlevel.obj
 0002:0000eb80       $cppxdata$?_wcstombs_l_helper@@YA_KPEADPEB_W_KPEAU__crt_locale_pointers@@@Z 0000000140049b80     libucrtd:wcstombs.obj
 0002:0000eff0       __real_ninf                0000000140049ff0     libucrtd:log10.obj
 0002:0000f000       __real_inf                 000000014004a000     libucrtd:log10.obj
 0002:0000f010       __real_neg_qnan            000000014004a010     libucrtd:log10.obj
 0002:0000f020       __real_qnanbit             000000014004a020     libucrtd:log10.obj
 0002:0000f030       __int_1023                 000000014004a030     libucrtd:log10.obj
 0002:0000f040       __mask_001                 000000014004a040     libucrtd:log10.obj
 0002:0000f050       __mask_mant                000000014004a050     libucrtd:log10.obj
 0002:0000f060       __mask_mant_top8           000000014004a060     libucrtd:log10.obj
 0002:0000f070       __mask_mant9               000000014004a070     libucrtd:log10.obj
 0002:0000f080       __real_log10_e             000000014004a080     libucrtd:log10.obj
 0002:0000f090       __real_log10_e_lead        000000014004a090     libucrtd:log10.obj
 0002:0000f0a0       __real_log10_e_tail        000000014004a0a0     libucrtd:log10.obj
 0002:0000f0b0       __real_log10_2_lead        000000014004a0b0     libucrtd:log10.obj
 0002:0000f0c0       __real_log10_2_tail        000000014004a0c0     libucrtd:log10.obj
 0002:0000f0d0       __real_two                 000000014004a0d0     libucrtd:log10.obj
 0002:0000f0e0       __real_one                 000000014004a0e0     libucrtd:log10.obj
 0002:0000f0f0       __real_half                000000014004a0f0     libucrtd:log10.obj
 0002:0000f100       __mask_100                 000000014004a100     libucrtd:log10.obj
 0002:0000f110       __real_1_over_512          000000014004a110     libucrtd:log10.obj
 0002:0000f120       __real_1_over_2            000000014004a120     libucrtd:log10.obj
 0002:0000f130       __real_1_over_3            000000014004a130     libucrtd:log10.obj
 0002:0000f140       __real_1_over_4            000000014004a140     libucrtd:log10.obj
 0002:0000f150       __real_1_over_5            000000014004a150     libucrtd:log10.obj
 0002:0000f160       __real_1_over_6            000000014004a160     libucrtd:log10.obj
 0002:0000f170       __real_neg_1023            000000014004a170     libucrtd:log10.obj
 0002:0000f180       __mask_2045                000000014004a180     libucrtd:log10.obj
 0002:0000f190       __real_threshold           000000014004a190     libucrtd:log10.obj
 0002:0000f1a0       __real_near_one_lt         000000014004a1a0     libucrtd:log10.obj
 0002:0000f1b0       __real_near_one_gt         000000014004a1b0     libucrtd:log10.obj
 0002:0000f1c0       __real_min_norm            000000014004a1c0     libucrtd:log10.obj
 0002:0000f1d0       __real_notsign             000000014004a1d0     libucrtd:log10.obj
 0002:0000f1e0       __real_ca1                 000000014004a1e0     libucrtd:log10.obj
 0002:0000f1f0       __real_ca2                 000000014004a1f0     libucrtd:log10.obj
 0002:0000f200       __real_ca3                 000000014004a200     libucrtd:log10.obj
 0002:0000f210       __real_ca4                 000000014004a210     libucrtd:log10.obj
 0002:0000f220       __mask_lower               000000014004a220     libucrtd:log10.obj
 0002:0000f230       __flag_x_zero              000000014004a230     libucrtd:log10.obj
 0002:0000f234       __flag_x_neg               000000014004a234     libucrtd:log10.obj
 0002:0000f238       __flag_x_nan               000000014004a238     libucrtd:log10.obj
 0002:00010db0       __real@433fffffffffffff    000000014004bdb0     libucrtd:fpsr.obj
 0002:00010db8       __real@c33fffffffffffff    000000014004bdb8     libucrtd:fpsr.obj
 0002:00011530       $unwind$WinMain            000000014004c530     win32_platform.obj
 0002:0001153c       $unwind$?DEBUGFreeFileMemory@@YAXPEAX@Z 000000014004c53c     win32_platform.obj
 0002:00011544       $unwind$?DEBUGReadFile@@YA?AUdebug_read_file_result@@PEAD@Z 000000014004c544     win32_platform.obj
 0002:00011550       $unwind$?DEBUGWriteFile@@YA_NPEADIPEAX@Z 000000014004c550     win32_platform.obj
 0002:00011558       $unwind$?Win32InitializeBackbuffer@@YAXAEAUwin32_pixel_buffer@@FF@Z 000000014004c558     win32_platform.obj
 0002:00011564       $unwind$?Win32ClearBackbuffer@@YAXAEAUwin32_pixel_buffer@@@Z 000000014004c564     win32_platform.obj
 0002:0001156c       $unwind$?Win32DisplayPixelBuffer@@YAXAEAUwin32_pixel_buffer@@PEAUHDC__@@@Z 000000014004c56c     win32_platform.obj
 0002:00011574       $unwind$?Win32MainWindowProc@@YA_JPEAUHWND__@@I_K_J@Z 000000014004c574     win32_platform.obj
 0002:0001157c       $unwind$?Win32InitializeWindow@@YAXAEAUwin32_window@@FFPEBD@Z 000000014004c57c     win32_platform.obj
 0002:00011588       $unwind$?Win32InitializeMemory@@YAXAEAUengine_memory@@@Z 000000014004c588     win32_platform.obj
 0002:00011590       $unwind$?Win32Update@@YAXAEAUwin32_window@@@Z 000000014004c590     win32_platform.obj
 0002:00011598       $unwind$?Win32TranslateKeyInput@@YA?AW4KEYBOARD_BUTTON@@E@Z 000000014004c598     win32_platform.obj
 0002:000115a0       $unwind$?Win32ProcessMessages@@YA_NAEAUwin32_window@@AEAUengine_input@@AEAH@Z 000000014004c5a0     win32_platform.obj
 0002:000115a8       $unwind$?Win32GetWriteTime@@YA?AU_FILETIME@@PEAD@Z 000000014004c5a8     win32_platform.obj
 0002:000115b4       $unwind$?Win32LoadEngineCode@@YAXPEAUwin32_engine_code@@PEAD1@Z 000000014004c5b4     win32_platform.obj
 0002:000115bc       $unwind$?Win32UnloadEngineCode@@YAXPEAUwin32_engine_code@@@Z 000000014004c5bc     win32_platform.obj
 0002:000115c4       $unwind$?Win32InitializeVulkan@@YAXXZ 000000014004c5c4     win32_platform.obj
 0002:000115cc       $unwind$?zero@?$duration@_JU?$ratio@$00$0DLJKMKAA@@std@@@chrono@std@@SA?AV123@XZ 000000014004c5cc     win32_platform.obj
 0002:000115cc       $unwind$?parse_digit@__crt_strtox@@YAI_W@Z 000000014004c5cc     libucrtd:atox.obj
 0002:000115cc       $unwind$?is_block_an_aligned_allocation@@YA_NQEBX@Z 000000014004c5cc     libucrtd:debug_heap.obj
 0002:000115cc       $unwind$free               000000014004c5cc     libucrtd:free.obj
 0002:000115cc       $unwind$_free_base         000000014004c5cc     libucrtd:free_base.obj
 0002:000115cc       $unwind$_callnewh          000000014004c5cc     libucrtd:new_handler.obj
 0002:000115cc       $unwind$??R<lambda_e157831efee4ea0afb0a2ace5dd5fd0d>@@QEBAXXZ 000000014004c5cc     libucrtd:per_thread_data.obj
 0002:000115cc       $unwind$?construct_ptd_array@@YAXQEAU__acrt_ptd@@@Z 000000014004c5cc     libucrtd:per_thread_data.obj
 0002:000115cc       $unwind$?destroy_ptd@@YAXQEAU__acrt_ptd@@@Z 000000014004c5cc     libucrtd:per_thread_data.obj
 0002:000115cc       $unwind$?destroy_ptd_array@@YAXQEAU__acrt_ptd@@@Z 000000014004c5cc     libucrtd:per_thread_data.obj
 0002:000115cc       $unwind$?release@?$__crt_unique_heap_ptr@U__acrt_ptd@@U__crt_internal_free_policy@@@@QEAAXXZ 000000014004c5cc     libucrtd:per_thread_data.obj
 0002:000115cc       $unwind$?try_load_library_from_system_directory@@YAPEAUHINSTANCE__@@QEB_W@Z 000000014004c5cc     libucrtd:winapi_thunks.obj
 0002:000115cc       $unwind$__acrt_AppPolicyGetProcessTerminationMethodInternal 000000014004c5cc     libucrtd:winapi_thunks.obj
 0002:000115cc       $unwind$__acrt_AppPolicyGetShowDeveloperDiagnosticInternal 000000014004c5cc     libucrtd:winapi_thunks.obj
 0002:000115cc       $unwind$__acrt_AppPolicyGetWindowingModelInternal 000000014004c5cc     libucrtd:winapi_thunks.obj
 0002:000115cc       $unwind$__acrt_FlsAlloc    000000014004c5cc     libucrtd:winapi_thunks.obj
 0002:000115cc       $unwind$__acrt_DownlevelLocaleNameToLCID 000000014004c5cc     libucrtd:lcidtoname_downlevel.obj
 0002:000115cc       $unwind$__acrt_add_locale_ref 000000014004c5cc     libucrtd:locale_refcounting.obj
 0002:000115cc       $unwind$__acrt_release_locale_ref 000000014004c5cc     libucrtd:locale_refcounting.obj
 0002:000115cc       $unwind$?release@?$__crt_unique_heap_ptr@U__crt_multibyte_data@@U__crt_internal_free_policy@@@@QEAAXXZ 000000014004c5cc     libucrtd:wsetlocale.obj
 0002:000115cc       $unwind$??R<lambda_4e7105787b7b0e0227fbf2b2d883fa65>@@QEBAHXZ 000000014004c5cc     libucrtd:close.obj
 0002:000115cc       $unwind$?release@?$__crt_unique_heap_ptr@U__crt_lowio_handle_data@@U__crt_internal_free_policy@@@@QEAAXXZ 000000014004c5cc     libucrtd:osfinfo.obj
 0002:000115cc       $unwind$??R<lambda_bd5a608237428601b7e45fbdc72b1ae8>@@QEBAXXZ 000000014004c5cc     libucrtd:mbctype.obj
 0002:000115cc       $unwind$__acrt_initialize_invalid_parameter_handler 000000014004c5cc     libucrtd:invalid_parameter.obj
 0002:000115cc       $unwind$??R<lambda_df1553121bfa390f1154bd84936f2730>@@QEBAHXZ 000000014004c5cc     libucrtd:argv_parsing.obj
 0002:000115cc       $unwind$?release@?$__crt_unique_heap_ptr@EU__crt_internal_free_policy@@@@QEAAXXZ 000000014004c5cc     libucrtd:argv_parsing.obj
 0002:000115cc       $unwind$?release@?$__crt_unique_heap_ptr@PEADU__crt_internal_free_policy@@@@QEAAXXZ 000000014004c5cc     libucrtd:argv_parsing.obj
 0002:000115cc       $unwind$??1?$argument_list@D@?A0x5f5c8891@@QEAA@XZ 000000014004c5cc     libucrtd:argv_wildcards.obj
 0002:000115cc       $unwind$?close@__crt_findfile_traits@@SA_NPEAX@Z 000000014004c5cc     libucrtd:argv_wildcards.obj
 0002:000115cc       $unwind$?close@__crt_hmodule_traits@@SA_NPEAUHINSTANCE__@@@Z 000000014004c5cc     libucrtd:exit.obj
 0002:000115cc       $unwind$_register_thread_local_exe_atexit_callback 000000014004c5cc     libucrtd:exit.obj
 0002:000115cc       $unwind$?release@?$__crt_unique_heap_ptr@P6AXXZU__crt_internal_free_policy@@@@QEAAXXZ 000000014004c5cc     libucrtd:onexit.obj
 0002:000115cc       $unwind$_execute_onexit_table 000000014004c5cc     libucrtd:onexit.obj
 0002:000115cc       $unwind$_initialize_onexit_table 000000014004c5cc     libucrtd:onexit.obj
 0002:000115cc       $unwind$?release@?$__crt_unique_heap_ptr@PEAU__crt_stdio_stream_data@@U__crt_internal_free_policy@@@@QEAAXXZ 000000014004c5cc     libucrtd:_file.obj
 0002:000115cc       $unwind$_lock_file         000000014004c5cc     libucrtd:_file.obj
 0002:000115cc       $unwind$_unlock_file       000000014004c5cc     libucrtd:_file.obj
 0002:000115cc       $unwind$?is_in_use@__crt_stdio_stream@@QEBA_NXZ 000000014004c5cc     libucrtd:closeall.obj
 0002:000115cc       $unwind$?__acrt_stdio_reset_buffer@@YAXV__crt_stdio_stream@@@Z 000000014004c5cc     libucrtd:fflush.obj
 0002:000115cc       $unwind$_fflush_nolock     000000014004c5cc     libucrtd:fflush.obj
 0002:000115cc       $unwind$??$scratch_data@D@formatting_buffer@__crt_stdio_output@@QEAAPEADXZ 000000014004c5cc     libucrtd:output.obj
 0002:000115cc       $unwind$?is_string_backed@__crt_stdio_stream@@QEBA_NXZ 000000014004c5cc     libucrtd:output.obj
 0002:000115cc       $unwind$?state_case_flag@?$output_processor@DV?$string_output_adapter@D@__crt_stdio_output@@V?$format_validation_base@DV?$string_output_adapter@D@__crt_stdio_output@@@2@@__crt_stdio_output@@AEAA_NXZ 000000014004c5cc     libucrtd:output.obj
 0002:000115cc       $unwind$?state_case_flag@?$output_processor@_WV?$string_output_adapter@_W@__crt_stdio_output@@V?$format_validation_base@_WV?$string_output_adapter@_W@__crt_stdio_output@@@2@@__crt_stdio_output@@AEAA_NXZ 000000014004c5cc     libucrtd:output.obj
 0002:000115cc       $unwind$?type_case_Z@?$output_processor@DV?$string_output_adapter@D@__crt_stdio_output@@V?$format_validation_base@DV?$string_output_adapter@D@__crt_stdio_output@@@2@@__crt_stdio_output@@AEAA_NXZ 000000014004c5cc     libucrtd:output.obj
 0002:000115cc       $unwind$?type_case_Z@?$output_processor@_WV?$string_output_adapter@_W@__crt_stdio_output@@V?$format_validation_base@_WV?$string_output_adapter@_W@__crt_stdio_output@@@2@@__crt_stdio_output@@AEAA_NXZ 000000014004c5cc     libucrtd:output.obj
 0002:000115cc       $unwind$?type_case_s@?$output_processor@DV?$string_output_adapter@D@__crt_stdio_output@@V?$format_validation_base@DV?$string_output_adapter@D@__crt_stdio_output@@@2@@__crt_stdio_output@@AEAA_NXZ 000000014004c5cc     libucrtd:output.obj
 0002:000115cc       $unwind$?type_case_s@?$output_processor@_WV?$string_output_adapter@_W@__crt_stdio_output@@V?$format_validation_base@_WV?$string_output_adapter@_W@__crt_stdio_output@@@2@@__crt_stdio_output@@AEAA_NXZ 000000014004c5cc     libucrtd:output.obj
 0002:000115cc       $unwind$_set_statfp        000000014004c5cc     libucrtd:fpctrl.obj
 0002:000115cc       $unwind$??$translate_control_exception_mask@W4__acrt_fenv_abstract_control@@W4__acrt_fenv_machine_sse_control@@@@YA?AW4__acrt_fenv_abstract_control@@W4__acrt_fenv_machine_sse_control@@@Z 000000014004c5cc     libucrtd:_fenvutils.obj
 0002:000115cc       $unwind$??$translate_control_rounding_control@W4__acrt_fenv_abstract_control@@W4__acrt_fenv_machine_sse_control@@@@YA?AW4__acrt_fenv_abstract_control@@W4__acrt_fenv_machine_sse_control@@@Z 000000014004c5cc     libucrtd:_fenvutils.obj
 0002:000115cc       $unwind$?set_machine_sse_control@@YAXW4__acrt_fenv_machine_sse_control@@@Z 000000014004c5cc     libucrtd:_fenvutils.obj
 0002:000115cc       $unwind$?to_abstract_control@@YA?AW4__acrt_fenv_abstract_control@@W4__acrt_fenv_machine_sse_control@@@Z 000000014004c5cc     libucrtd:_fenvutils.obj
 0002:000115cc       $unwind$?translate_control_denormal_control_from_sse@@YA?AW4__acrt_fenv_abstract_control@@W4__acrt_fenv_machine_sse_control@@@Z 000000014004c5cc     libucrtd:_fenvutils.obj
 0002:000115cc       $unwind$feholdexcept       000000014004c5cc     libucrtd:feholdexcept.obj
 0002:000115cc       $unwind$__acrt_invoke_user_matherr 000000014004c5cc     libucrtd:matherr.obj
 0002:000115cc       $unwind$__setusermatherr   000000014004c5cc     libucrtd:matherr.obj
 0002:000115cc       $unwind$__report_gsfailure 000000014004c5cc     LIBCMTD:gs_report.obj
 0002:000115cc       $unwind$atexit             000000014004c5cc     LIBCMTD:utility.obj
 0002:000115cc       $unwind$__scrt_unhandled_exception_filter 000000014004c5cc     LIBCMTD:utility_desktop.obj
 0002:000115cc       $unwind$_IsExceptionObjectToBeDestroyed 000000014004c5cc     libvcruntimed:ehhelpers.obj
 0002:000115cc       $unwind$?getESTypes@__FrameHandler3@@SAPEBU_s_ESTypeList@@PEBU_s_FuncInfo@@@Z 000000014004c5cc     libvcruntimed:frame.obj
 0002:000115cc       $unwind$__except_validate_context_record 000000014004c5cc     libvcruntimed:jbcxrval.obj
 0002:000115cc       $unwind$?release@?$__crt_unique_heap_ptr@U__vcrt_ptd@@U__crt_internal_free_policy@@@@QEAAXXZ 000000014004c5cc     libvcruntimed:per_thread_data.obj
 0002:000115cc       $unwind$_FindAndUnlinkFrame 000000014004c5cc     libvcruntimed:risctrnsctrl.obj
 0002:000115cc       $unwind$?release@?$__crt_unique_heap_ptr@DU__crt_public_free_policy@@@@QEAAXXZ 000000014004c5cc     libvcruntimed:std_exception.obj
 0002:000115cc       $unwind$?release@?$__crt_unique_heap_ptr@DU__crt_internal_free_policy@@@@QEAAXXZ 000000014004c5cc     libvcruntimed:std_type_info.obj
 0002:000115cc       $unwind$?try_load_library_from_system_directory@@YAPEAUHINSTANCE__@@QEB_W@Z 000000014004c5cc     libvcruntimed:winapi_downlevel.obj
 0002:000115d4       $unwind$??0?$time_point@Usteady_clock@chrono@std@@V?$duration@_JU?$ratio@$00$0DLJKMKAA@@std@@@23@@chrono@std@@QEAA@XZ 000000014004c5d4     win32_platform.obj
 0002:000115d4       $unwind$_putwch_nolock     000000014004c5d4     libucrtd:putwch.obj
 0002:000115d4       $unwind$??0big_integer@__crt_strtox@@QEAA@XZ 000000014004c5d4     libucrtd:cfout.obj
 0002:000115d4       $unwind$??0scoped_fp_state_reset@?A0x71ca7cfb@@QEAA@XZ 000000014004c5d4     libucrtd:cfout.obj
 0002:000115d4       $unwind$??1scoped_fp_state_reset@?A0x71ca7cfb@@QEAA@XZ 000000014004c5d4     libucrtd:cfout.obj
 0002:000115d4       $unwind$??1_LocaleUpdate@@QEAA@XZ 000000014004c5d4     libucrtd:debug_heap.obj
 0002:000115d4       $unwind$_CrtIsValidHeapPointer 000000014004c5d4     libucrtd:debug_heap.obj
 0002:000115d4       $unwind$malloc             000000014004c5d4     libucrtd:malloc.obj
 0002:000115d4       $unwind$??$__crt_fast_decode_pointer@P6AH_K@Z@@YAP6AH_K@ZQ6AH0@Z@Z 000000014004c5d4     libucrtd:new_handler.obj
 0002:000115d4       $unwind$?value@?$dual_state_global@P6AH_K@Z@__crt_state_management@@QEAAAEAP6AH_K@ZXZ 000000014004c5d4     libucrtd:new_handler.obj
 0002:000115d4       $unwind$__acrt_initialize_new_handler 000000014004c5d4     libucrtd:new_handler.obj
 0002:000115d4       $unwind$?value@?$dual_state_global@J@__crt_state_management@@QEAAAEAJXZ 000000014004c5d4     libucrtd:new_mode.obj
 0002:000115d4       $unwind$?_deallocate@?$__crt_win32_buffer@DU__crt_win32_buffer_no_resizing@@@@AEAAXXZ 000000014004c5d4     libucrtd:getmodulefilenamea.obj
 0002:000115d4       $unwind$?set_to_nullptr@?$__crt_win32_buffer@DU__crt_win32_buffer_no_resizing@@@@QEAAXXZ 000000014004c5d4     libucrtd:getmodulefilenamea.obj
 0002:000115d4       $unwind$??$?BX@__crt_fast_encoded_nullptr_t@@QEBAPEAXXZ 000000014004c5d4     libucrtd:initialization.obj
 0002:000115d4       $unwind$??$__crt_fast_encode_pointer@PEAX@@YAPEAXQEAX@Z 000000014004c5d4     libucrtd:initialization.obj
 0002:000115d4       $unwind$??0__crt_scoped_get_last_error_reset@@QEAA@XZ 000000014004c5d4     libucrtd:per_thread_data.obj
 0002:000115d4       $unwind$??1?$__crt_unique_heap_ptr@U__acrt_ptd@@U__crt_internal_free_policy@@@@QEAA@XZ 000000014004c5d4     libucrtd:per_thread_data.obj
 0002:000115d4       $unwind$??1__crt_scoped_get_last_error_reset@@QEAA@XZ 000000014004c5d4     libucrtd:per_thread_data.obj
 0002:000115d4       $unwind$??B?$__crt_unique_heap_ptr@U__acrt_ptd@@U__crt_internal_free_policy@@@@QEBA_NXZ 000000014004c5d4     libucrtd:per_thread_data.obj
 0002:000115d4       $unwind$??R<lambda_04ddeca75b7c13fd67716e8dfcef87ee>@@QEBAXXZ 000000014004c5d4     libucrtd:per_thread_data.obj
 0002:000115d4       $unwind$??R<lambda_0ae27a3a962d80f24befdcbee591983d>@@QEBAXXZ 000000014004c5d4     libucrtd:per_thread_data.obj
 0002:000115d4       $unwind$??R<lambda_2d41944a1d46af3157314b8a01080d33>@@QEBAXXZ 000000014004c5d4     libucrtd:per_thread_data.obj
 0002:000115d4       $unwind$??R<lambda_6992ecaafeb10aed2b74cb1fae11a551>@@QEBAXXZ 000000014004c5d4     libucrtd:per_thread_data.obj
 0002:000115d4       $unwind$??R<lambda_74a0ef281e44d15e1136f792f539efb3>@@QEBAXXZ 000000014004c5d4     libucrtd:per_thread_data.obj
 0002:000115d4       $unwind$??R<lambda_8f455de75cd7d7f24b4096f044d8b9e6>@@QEBAXXZ 000000014004c5d4     libucrtd:per_thread_data.obj
 0002:000115d4       $unwind$??R<lambda_92619d2358a28f41a33ba319515a20b9>@@QEBAXXZ 000000014004c5d4     libucrtd:per_thread_data.obj
 0002:000115d4       $unwind$??R<lambda_aa500f224e6afead328df44964fe2772>@@QEBAXXZ 000000014004c5d4     libucrtd:per_thread_data.obj
 0002:000115d4       $unwind$??R<lambda_aa87e3671a710a21b5dc78c0bdf72e11>@@QEBAXXZ 000000014004c5d4     libucrtd:per_thread_data.obj
 0002:000115d4       $unwind$??R<lambda_dc504788e8f1664fe9b84e20bfb512f2>@@QEBAXXZ 000000014004c5d4     libucrtd:per_thread_data.obj
 0002:000115d4       $unwind$?destroy_fls@@YAXPEAX@Z 000000014004c5d4     libucrtd:per_thread_data.obj
 0002:000115d4       $unwind$?appmodel_get_policy@developer_information_policy_properties@?1??__acrt_get_developer_information_policy@@YA?AW4developer_information_policy@@XZ@SAJPEAW4AppPolicyShowDeveloperDiagnostic@@@Z 000000014004c5d4     libucrtd:win_policies.obj
 0002:000115d4       $unwind$?appmodel_get_policy@process_end_policy_properties@?1??__acrt_get_process_end_policy@@YA?AW4process_end_policy@@XZ@SAJPEAW4AppPolicyProcessTerminationMethod@@@Z 000000014004c5d4     libucrtd:win_policies.obj
 0002:000115d4       $unwind$?appmodel_get_policy@windowing_model_policy_properties@?1??__acrt_get_windowing_model_policy@@YA?AW4windowing_model_policy@@XZ@SAJPEAW4AppPolicyWindowingModel@@@Z 000000014004c5d4     libucrtd:win_policies.obj
 0002:000115d4       $unwind$??$__crt_fast_decode_pointer@PEAX@@YAPEAXQEAX@Z 000000014004c5d4     libucrtd:winapi_thunks.obj
 0002:000115d4       $unwind$??1?$__crt_scoped_stack_ptr@_W@@QEAA@XZ 000000014004c5d4     libucrtd:getstringtypea.obj
 0002:000115d4       $unwind$__acrt_locale_free_monetary 000000014004c5d4     libucrtd:initmon.obj
 0002:000115d4       $unwind$__acrt_locale_free_numeric 000000014004c5d4     libucrtd:initnum.obj
 0002:000115d4       $unwind$??$free_crt_array@D$01@@YAXAEAY01PEAD@Z 000000014004c5d4     libucrtd:inittime.obj
 0002:000115d4       $unwind$??$free_crt_array@D$06@@YAXAEAY06PEAD@Z 000000014004c5d4     libucrtd:inittime.obj
 0002:000115d4       $unwind$??$free_crt_array@D$0M@@@YAXAEAY0M@PEAD@Z 000000014004c5d4     libucrtd:inittime.obj
 0002:000115d4       $unwind$??$free_crt_array@_W$01@@YAXAEAY01PEA_W@Z 000000014004c5d4     libucrtd:inittime.obj
 0002:000115d4       $unwind$??$free_crt_array@_W$06@@YAXAEAY06PEA_W@Z 000000014004c5d4     libucrtd:inittime.obj
 0002:000115d4       $unwind$??$free_crt_array@_W$0M@@@YAXAEAY0M@PEA_W@Z 000000014004c5d4     libucrtd:inittime.obj
 0002:000115d4       $unwind$__acrt_locale_free_time 000000014004c5d4     libucrtd:inittime.obj
 0002:000115d4       $unwind$__acrt_locale_free_lc_time_if_unreferenced 000000014004c5d4     libucrtd:locale_refcounting.obj
 0002:000115d4       $unwind$??1?$__crt_unique_heap_ptr@U__crt_multibyte_data@@U__crt_internal_free_policy@@@@QEAA@XZ 000000014004c5d4     libucrtd:wsetlocale.obj
 0002:000115d4       $unwind$??B?$__crt_unique_heap_ptr@U__crt_multibyte_data@@U__crt_internal_free_policy@@@@QEBA_NXZ 000000014004c5d4     libucrtd:wsetlocale.obj
 0002:000115d4       $unwind$??R<lambda_38119f0e861e05405d8a144b9b982f0a>@@QEBAXXZ 000000014004c5d4     libucrtd:wsetlocale.obj
 0002:000115d4       $unwind$??R<lambda_410d79af7f07d98d83a3f525b3859a53>@@QEBAXXZ 000000014004c5d4     libucrtd:wsetlocale.obj
 0002:000115d4       $unwind$?value@?$dual_state_global@PEAU__crt_locale_data@@@__crt_state_management@@QEAAAEAPEAU__crt_locale_data@@XZ 000000014004c5d4     libucrtd:wsetlocale.obj
 0002:000115d4       $unwind$??R<lambda_53fc7fc888e23d815d7080162c0aeeb2>@@QEBAXXZ 000000014004c5d4     libucrtd:close.obj
 0002:000115d4       $unwind$??R<lambda_8ddc48ad9d26c778cb15812d1d88fc8a>@@QEBAXXZ 000000014004c5d4     libucrtd:close.obj
 0002:000115d4       $unwind$??R<lambda_47cffbaa968af5c721c38a4a6f8da44d>@@QEBAXXZ 000000014004c5d4     libucrtd:commit.obj
 0002:000115d4       $unwind$??R<lambda_4e3dbe6921bc0b5a1a6bc6573fdc859e>@@QEBAXXZ 000000014004c5d4     libucrtd:commit.obj
 0002:000115d4       $unwind$??1?$__crt_unique_heap_ptr@U__crt_lowio_handle_data@@U__crt_internal_free_policy@@@@QEAA@XZ 000000014004c5d4     libucrtd:osfinfo.obj
 0002:000115d4       $unwind$??B?$__crt_unique_heap_ptr@U__crt_lowio_handle_data@@U__crt_internal_free_policy@@@@QEBA_NXZ 000000014004c5d4     libucrtd:osfinfo.obj
 0002:000115d4       $unwind$?value@?$dual_state_global@H@__crt_state_management@@QEAAAEAHXZ 000000014004c5d4     libucrtd:setmode.obj
 0002:000115d4       $unwind$??R<lambda_728235dc0fc2b1f82d1fa5b3e7102d8f>@@QEBAXXZ 000000014004c5d4     libucrtd:mbctype.obj
 0002:000115d4       $unwind$??R<lambda_efa02eb69bf647d2f7ff0dd6f1103f72>@@QEBAXXZ 000000014004c5d4     libucrtd:mbctype.obj
 0002:000115d4       $unwind$?value@?$dual_state_global@PEAE@__crt_state_management@@QEAAAEAPEAEXZ 000000014004c5d4     libucrtd:mbctype.obj
 0002:000115d4       $unwind$?value@?$dual_state_global@PEAU__crt_multibyte_data@@@__crt_state_management@@QEAAAEAPEAU__crt_multibyte_data@@XZ 000000014004c5d4     libucrtd:mbctype.obj
 0002:000115d4       $unwind$??$output_debug_string@AEBQEB_W@?$__crt_char_traits@_W@@SAXAEBQEB_W@Z 000000014004c5d4     libucrtd:crtmbox.obj
 0002:000115d4       $unwind$??$tcslen@AEAY0BAF@D@?$__crt_char_traits@D@@SA_KAEAY0BAF@D@Z 000000014004c5d4     libucrtd:dbgrpt.obj
 0002:000115d4       $unwind$??$tcslen@AEAY0BAF@_W@?$__crt_char_traits@_W@@SA_KAEAY0BAF@_W@Z 000000014004c5d4     libucrtd:dbgrpt.obj
 0002:000115d4       $unwind$??$tcslen@AEBQEBD@?$__crt_char_traits@D@@SA_KAEBQEBD@Z 000000014004c5d4     libucrtd:dbgrpt.obj
 0002:000115d4       $unwind$??$tcslen@AEBQEB_W@?$__crt_char_traits@_W@@SA_KAEBQEB_W@Z 000000014004c5d4     libucrtd:dbgrpt.obj
 0002:000115d4       $unwind$??$__crt_fast_decode_pointer@P6AXPEB_W00I_K@Z@@YAP6AXPEB_W00I_K@ZQ6AX000I1@Z@Z 000000014004c5d4     libucrtd:invalid_parameter.obj
 0002:000115d4       $unwind$?value@?$dual_state_global@P6AXPEB_W00I_K@Z@__crt_state_management@@QEAAAEAP6AXPEB_W00I_K@ZXZ 000000014004c5d4     libucrtd:invalid_parameter.obj
 0002:000115d4       $unwind$??$?B$$A6AXH@Z@__crt_fast_encoded_nullptr_t@@QEBAP6AXH@ZXZ 000000014004c5d4     libucrtd:signal.obj
 0002:000115d4       $unwind$??$__crt_fast_decode_pointer@P6AXH@Z@@YAP6AXH@ZQ6AXH@Z@Z 000000014004c5d4     libucrtd:signal.obj
 0002:000115d4       $unwind$??$__crt_fast_encode_pointer@P6AXH@Z@@YAP6AXH@ZQ6AXH@Z@Z 000000014004c5d4     libucrtd:signal.obj
 0002:000115d4       $unwind$??R<lambda_44731a7d0e6d81c3e6aa82d741081786>@@QEBAP6AXH@ZXZ 000000014004c5d4     libucrtd:signal.obj
 0002:000115d4       $unwind$??R<lambda_450d765d439847d4c735a33c368b5fc0>@@QEBAXXZ 000000014004c5d4     libucrtd:signal.obj
 0002:000115d4       $unwind$??R<lambda_601a2a7da3b7a96e9554ac7215c4b07c>@@QEBAXXZ 000000014004c5d4     libucrtd:signal.obj
 0002:000115d4       $unwind$?value@?$dual_state_global@P6AXH@Z@__crt_state_management@@QEAAAEAP6AXH@ZXZ 000000014004c5d4     libucrtd:signal.obj
 0002:000115d4       $unwind$__acrt_initialize_signal_handlers 000000014004c5d4     libucrtd:signal.obj
 0002:000115d4       $unwind$??$set_program_name@PEAD@?$__crt_char_traits@D@@SAX$$QEAPEAD@Z 000000014004c5d4     libucrtd:argv_parsing.obj
 0002:000115d4       $unwind$??1?$__crt_unique_heap_ptr@EU__crt_internal_free_policy@@@@QEAA@XZ 000000014004c5d4     libucrtd:argv_parsing.obj
 0002:000115d4       $unwind$??1?$__crt_unique_heap_ptr@PEADU__crt_internal_free_policy@@@@QEAA@XZ 000000014004c5d4     libucrtd:argv_parsing.obj
 0002:000115d4       $unwind$??B?$__crt_unique_heap_ptr@EU__crt_internal_free_policy@@@@QEBA_NXZ 000000014004c5d4     libucrtd:argv_parsing.obj
 0002:000115d4       $unwind$??1?$__crt_unique_handle_t@U__crt_findfile_traits@@@@QEAA@XZ 000000014004c5d4     libucrtd:argv_wildcards.obj
 0002:000115d4       $unwind$?_deallocate@?$__crt_win32_buffer@DU__crt_win32_buffer_internal_dynamic_resizing@@@@AEAAXXZ 000000014004c5d4     libucrtd:argv_wildcards.obj
 0002:000115d4       $unwind$?_deallocate@?$__crt_win32_buffer@_WU__crt_win32_buffer_internal_dynamic_resizing@@@@AEAAXXZ 000000014004c5d4     libucrtd:argv_wildcards.obj
 0002:000115d4       $unwind$?close@?$__crt_unique_handle_t@U__crt_findfile_traits@@@@QEAAXXZ 000000014004c5d4     libucrtd:argv_wildcards.obj
 0002:000115d4       $unwind$?set_to_nullptr@?$__crt_win32_buffer@DU__crt_win32_buffer_internal_dynamic_resizing@@@@QEAAXXZ 000000014004c5d4     libucrtd:argv_wildcards.obj
 0002:000115d4       $unwind$?set_to_nullptr@?$__crt_win32_buffer@_WU__crt_win32_buffer_internal_dynamic_resizing@@@@QEAAXXZ 000000014004c5d4     libucrtd:argv_wildcards.obj
 0002:000115d4       $unwind$??$?B$$A6AXPEAXK0@Z@__crt_fast_encoded_nullptr_t@@QEBAP6AXPEAXK0@ZXZ 000000014004c5d4     libucrtd:exit.obj
 0002:000115d4       $unwind$??$__crt_fast_decode_pointer@P6AXPEAXK0@Z@@YAP6AXPEAXK0@ZQ6AX0K0@Z@Z 000000014004c5d4     libucrtd:exit.obj
 0002:000115d4       $unwind$??$__crt_fast_encode_pointer@P6AXPEAXK0@Z@@YAP6AXPEAXK0@ZQ6AX0K0@Z@Z 000000014004c5d4     libucrtd:exit.obj
 0002:000115d4       $unwind$??$__crt_interlocked_read@J@@YAJPEDJ@Z 000000014004c5d4     libucrtd:exit.obj
 0002:000115d4       $unwind$??1?$__crt_unique_handle_t@U__crt_hmodule_traits@@@@QEAA@XZ 000000014004c5d4     libucrtd:exit.obj
 0002:000115d4       $unwind$??R<lambda_2358e3775559c9db80273638284d5e45>@@QEBAXXZ 000000014004c5d4     libucrtd:exit.obj
 0002:000115d4       $unwind$??R<lambda_d80eeec6fff315bfe5c115232f3240e3>@@QEBAXXZ 000000014004c5d4     libucrtd:exit.obj
 0002:000115d4       $unwind$?close@?$__crt_unique_handle_t@U__crt_hmodule_traits@@@@QEAAXXZ 000000014004c5d4     libucrtd:exit.obj
 0002:000115d4       $unwind$??$?B$$A6AXXZ@__crt_fast_encoded_nullptr_t@@QEBAP6AXXZXZ 000000014004c5d4     libucrtd:onexit.obj
 0002:000115d4       $unwind$??$?BP6AXXZ@__crt_fast_encoded_nullptr_t@@QEBAPEAP6AXXZXZ 000000014004c5d4     libucrtd:onexit.obj
 0002:000115d4       $unwind$??$__crt_fast_decode_pointer@P6AXXZ@@YAP6AXXZQ6AXXZ@Z 000000014004c5d4     libucrtd:onexit.obj
 0002:000115d4       $unwind$??$__crt_fast_decode_pointer@PEAP6AXXZ@@YAPEAP6AXXZQEAP6AXXZ@Z 000000014004c5d4     libucrtd:onexit.obj
 0002:000115d4       $unwind$??$__crt_fast_encode_pointer@P6AHXZ@@YAP6AHXZQ6AHXZ@Z 000000014004c5d4     libucrtd:onexit.obj
 0002:000115d4       $unwind$??$__crt_fast_encode_pointer@P6AXXZ@@YAP6AXXZQ6AXXZ@Z 000000014004c5d4     libucrtd:onexit.obj
 0002:000115d4       $unwind$??$__crt_fast_encode_pointer@PEAP6AXXZ@@YAPEAP6AXXZQEAP6AXXZ@Z 000000014004c5d4     libucrtd:onexit.obj
 0002:000115d4       $unwind$??1?$__crt_unique_heap_ptr@P6AXXZU__crt_internal_free_policy@@@@QEAA@XZ 000000014004c5d4     libucrtd:onexit.obj
 0002:000115d4       $unwind$??R<lambda_00e911965883f7966597d4c465c83ebc>@@QEBAXXZ 000000014004c5d4     libucrtd:onexit.obj
 0002:000115d4       $unwind$??R<lambda_6a47f4c8fd0152770a780fc1d70204eb>@@QEBAXXZ 000000014004c5d4     libucrtd:onexit.obj
 0002:000115d4       $unwind$??R<lambda_6aaa2265f5b6a89667e7d7630012e97a>@@QEBAXXZ 000000014004c5d4     libucrtd:onexit.obj
 0002:000115d4       $unwind$??R<lambda_dce957679fd779aa27c4ca5c39e09098>@@QEBAXXZ 000000014004c5d4     libucrtd:onexit.obj
 0002:000115d4       $unwind$_crt_atexit        000000014004c5d4     libucrtd:onexit.obj
 0002:000115d4       $unwind$??1?$__crt_unique_heap_ptr@PEAU__crt_stdio_stream_data@@U__crt_internal_free_policy@@@@QEAA@XZ 000000014004c5d4     libucrtd:_file.obj
 0002:000115d4       $unwind$?has_crt_buffer@__crt_stdio_stream@@QEBA_NXZ 000000014004c5d4     libucrtd:_freebuf.obj
 0002:000115d4       $unwind$??R<lambda_842d9ff0dc9ef11c61343bbaebe7f885>@@QEBAXXZ 000000014004c5d4     libucrtd:fflush.obj
 0002:000115d4       $unwind$??R<lambda_886d6c58226a84441f68b9f2b8217b83>@@QEBAXXZ 000000014004c5d4     libucrtd:fflush.obj
 0002:000115d4       $unwind$??R<lambda_c5860995281e5c4ce005b3de8f5874ee>@@QEBAXXZ 000000014004c5d4     libucrtd:fflush.obj
 0002:000115d4       $unwind$??R<lambda_d90129c13df834fdcbf8d2b88dafcf2d>@@QEBAXXZ 000000014004c5d4     libucrtd:fflush.obj
 0002:000115d4       $unwind$??R<lambda_f7f22ab5edc0698d5f6905b0d3f44752>@@QEBAXXZ 000000014004c5d4     libucrtd:fflush.obj
 0002:000115d4       $unwind$?lowio_handle@__crt_stdio_stream@@QEBAHXZ 000000014004c5d4     libucrtd:fileno.obj
 0002:000115d4       $unwind$??$count@D@formatting_buffer@__crt_stdio_output@@QEBA_KXZ 000000014004c5d4     libucrtd:output.obj
 0002:000115d4       $unwind$??$count@_W@formatting_buffer@__crt_stdio_output@@QEBA_KXZ 000000014004c5d4     libucrtd:output.obj
 0002:000115d4       $unwind$??$data@D@formatting_buffer@__crt_stdio_output@@QEAAPEADXZ 000000014004c5d4     libucrtd:output.obj
 0002:000115d4       $unwind$??$data@_W@formatting_buffer@__crt_stdio_output@@QEAAPEA_WXZ 000000014004c5d4     libucrtd:output.obj
 0002:000115d4       $unwind$??$scratch_count@D@formatting_buffer@__crt_stdio_output@@QEBA_KXZ 000000014004c5d4     libucrtd:output.obj
 0002:000115d4       $unwind$??0?$common_data@D@__crt_stdio_output@@IEAA@XZ 000000014004c5d4     libucrtd:output.obj
 0002:000115d4       $unwind$??0?$common_data@_W@__crt_stdio_output@@IEAA@XZ 000000014004c5d4     libucrtd:output.obj
 0002:000115d4       $unwind$??0formatting_buffer@__crt_stdio_output@@QEAA@XZ 000000014004c5d4     libucrtd:output.obj
 0002:000115d4       $unwind$??1?$common_data@D@__crt_stdio_output@@QEAA@XZ 000000014004c5d4     libucrtd:output.obj
 0002:000115d4       $unwind$??1?$common_data@_W@__crt_stdio_output@@QEAA@XZ 000000014004c5d4     libucrtd:output.obj
 0002:000115d4       $unwind$??1?$format_validation_base@DV?$string_output_adapter@D@__crt_stdio_output@@@__crt_stdio_output@@QEAA@XZ 000000014004c5d4     libucrtd:output.obj
 0002:000115d4       $unwind$??1?$format_validation_base@_WV?$string_output_adapter@_W@__crt_stdio_output@@@__crt_stdio_output@@QEAA@XZ 000000014004c5d4     libucrtd:output.obj
 0002:000115d4       $unwind$??1?$output_adapter_data@DV?$string_output_adapter@D@__crt_stdio_output@@@__crt_stdio_output@@QEAA@XZ 000000014004c5d4     libucrtd:output.obj
 0002:000115d4       $unwind$??1?$output_adapter_data@_WV?$string_output_adapter@_W@__crt_stdio_output@@@__crt_stdio_output@@QEAA@XZ 000000014004c5d4     libucrtd:output.obj
 0002:000115d4       $unwind$??1?$output_processor@DV?$string_output_adapter@D@__crt_stdio_output@@V?$format_validation_base@DV?$string_output_adapter@D@__crt_stdio_output@@@2@@__crt_stdio_output@@QEAA@XZ 000000014004c5d4     libucrtd:output.obj
 0002:000115d4       $unwind$??1?$output_processor@_WV?$string_output_adapter@_W@__crt_stdio_output@@V?$format_validation_base@_WV?$string_output_adapter@_W@__crt_stdio_output@@@2@@__crt_stdio_output@@QEAA@XZ 000000014004c5d4     libucrtd:output.obj
 0002:000115d4       $unwind$??1?$standard_base@DV?$string_output_adapter@D@__crt_stdio_output@@@__crt_stdio_output@@QEAA@XZ 000000014004c5d4     libucrtd:output.obj
 0002:000115d4       $unwind$??1?$standard_base@_WV?$string_output_adapter@_W@__crt_stdio_output@@@__crt_stdio_output@@QEAA@XZ 000000014004c5d4     libucrtd:output.obj
 0002:000115d4       $unwind$??1formatting_buffer@__crt_stdio_output@@QEAA@XZ 000000014004c5d4     libucrtd:output.obj
 0002:000115d4       $unwind$?get@__crt_deferred_errno_cache@@QEAAAEAHXZ 000000014004c5d4     libucrtd:output.obj
 0002:000115d4       $unwind$?get_flags@__crt_stdio_stream@@QEBAJXZ 000000014004c5d4     libucrtd:output.obj
 0002:000115d4       $unwind$?state_case_normal_common@?$output_processor@DV?$string_output_adapter@D@__crt_stdio_output@@V?$format_validation_base@DV?$string_output_adapter@D@__crt_stdio_output@@@2@@__crt_stdio_output@@AEAA_NXZ 000000014004c5d4     libucrtd:output.obj
 0002:000115d4       $unwind$?state_case_normal_common@?$output_processor@_WV?$string_output_adapter@_W@__crt_stdio_output@@V?$format_validation_base@_WV?$string_output_adapter@_W@__crt_stdio_output@@@2@@__crt_stdio_output@@AEAA_NXZ 000000014004c5d4     libucrtd:output.obj
 0002:000115d4       $unwind$?state_case_precision@?$output_processor@DV?$string_output_adapter@D@__crt_stdio_output@@V?$format_validation_base@DV?$string_output_adapter@D@__crt_stdio_output@@@2@@__crt_stdio_output@@AEAA_NXZ 000000014004c5d4     libucrtd:output.obj
 0002:000115d4       $unwind$?state_case_precision@?$output_processor@_WV?$string_output_adapter@_W@__crt_stdio_output@@V?$format_validation_base@_WV?$string_output_adapter@_W@__crt_stdio_output@@@2@@__crt_stdio_output@@AEAA_NXZ 000000014004c5d4     libucrtd:output.obj
 0002:000115d4       $unwind$?state_case_width@?$output_processor@DV?$string_output_adapter@D@__crt_stdio_output@@V?$format_validation_base@DV?$string_output_adapter@D@__crt_stdio_output@@@2@@__crt_stdio_output@@AEAA_NXZ 000000014004c5d4     libucrtd:output.obj
 0002:000115d4       $unwind$?state_case_width@?$output_processor@_WV?$string_output_adapter@_W@__crt_stdio_output@@V?$format_validation_base@_WV?$string_output_adapter@_W@__crt_stdio_output@@@2@@__crt_stdio_output@@AEAA_NXZ 000000014004c5d4     libucrtd:output.obj
 0002:000115d4       $unwind$?tchar_string@?$common_data@D@__crt_stdio_output@@IEAAAEAPEADXZ 000000014004c5d4     libucrtd:output.obj
 0002:000115d4       $unwind$?tchar_string@?$common_data@_W@__crt_stdio_output@@IEAAAEAPEA_WXZ 000000014004c5d4     libucrtd:output.obj
 0002:000115d4       $unwind$?type_case_X@?$output_processor@DV?$string_output_adapter@D@__crt_stdio_output@@V?$format_validation_base@DV?$string_output_adapter@D@__crt_stdio_output@@@2@@__crt_stdio_output@@AEAA_NXZ 000000014004c5d4     libucrtd:output.obj
 0002:000115d4       $unwind$?type_case_X@?$output_processor@_WV?$string_output_adapter@_W@__crt_stdio_output@@V?$format_validation_base@_WV?$string_output_adapter@_W@__crt_stdio_output@@@2@@__crt_stdio_output@@AEAA_NXZ 000000014004c5d4     libucrtd:output.obj
 0002:000115d4       $unwind$?type_case_c@?$output_processor@DV?$string_output_adapter@D@__crt_stdio_output@@V?$format_validation_base@DV?$string_output_adapter@D@__crt_stdio_output@@@2@@__crt_stdio_output@@AEAA_NXZ 000000014004c5d4     libucrtd:output.obj
 0002:000115d4       $unwind$?type_case_c@?$output_processor@_WV?$string_output_adapter@_W@__crt_stdio_output@@V?$format_validation_base@_WV?$string_output_adapter@_W@__crt_stdio_output@@@2@@__crt_stdio_output@@AEAA_NXZ 000000014004c5d4     libucrtd:output.obj
 0002:000115d4       $unwind$?type_case_d@?$output_processor@DV?$string_output_adapter@D@__crt_stdio_output@@V?$format_validation_base@DV?$string_output_adapter@D@__crt_stdio_output@@@2@@__crt_stdio_output@@AEAA_NXZ 000000014004c5d4     libucrtd:output.obj
 0002:000115d4       $unwind$?type_case_d@?$output_processor@_WV?$string_output_adapter@_W@__crt_stdio_output@@V?$format_validation_base@_WV?$string_output_adapter@_W@__crt_stdio_output@@@2@@__crt_stdio_output@@AEAA_NXZ 000000014004c5d4     libucrtd:output.obj
 0002:000115d4       $unwind$?type_case_o@?$output_processor@DV?$string_output_adapter@D@__crt_stdio_output@@V?$format_validation_base@DV?$string_output_adapter@D@__crt_stdio_output@@@2@@__crt_stdio_output@@AEAA_NXZ 000000014004c5d4     libucrtd:output.obj
 0002:000115d4       $unwind$?type_case_o@?$output_processor@_WV?$string_output_adapter@_W@__crt_stdio_output@@V?$format_validation_base@_WV?$string_output_adapter@_W@__crt_stdio_output@@@2@@__crt_stdio_output@@AEAA_NXZ 000000014004c5d4     libucrtd:output.obj
 0002:000115d4       $unwind$?type_case_p@?$output_processor@DV?$string_output_adapter@D@__crt_stdio_output@@V?$format_validation_base@DV?$string_output_adapter@D@__crt_stdio_output@@@2@@__crt_stdio_output@@AEAA_NXZ 000000014004c5d4     libucrtd:output.obj
 0002:000115d4       $unwind$?type_case_p@?$output_processor@_WV?$string_output_adapter@_W@__crt_stdio_output@@V?$format_validation_base@_WV?$string_output_adapter@_W@__crt_stdio_output@@@2@@__crt_stdio_output@@AEAA_NXZ 000000014004c5d4     libucrtd:output.obj
 0002:000115d4       $unwind$?type_case_u@?$output_processor@DV?$string_output_adapter@D@__crt_stdio_output@@V?$format_validation_base@DV?$string_output_adapter@D@__crt_stdio_output@@@2@@__crt_stdio_output@@AEAA_NXZ 000000014004c5d4     libucrtd:output.obj
 0002:000115d4       $unwind$?type_case_u@?$output_processor@_WV?$string_output_adapter@_W@__crt_stdio_output@@V?$format_validation_base@_WV?$string_output_adapter@_W@__crt_stdio_output@@@2@@__crt_stdio_output@@AEAA_NXZ 000000014004c5d4     libucrtd:output.obj
 0002:000115d4       $unwind$?type_case_x@?$output_processor@DV?$string_output_adapter@D@__crt_stdio_output@@V?$format_validation_base@DV?$string_output_adapter@D@__crt_stdio_output@@@2@@__crt_stdio_output@@AEAA_NXZ 000000014004c5d4     libucrtd:output.obj
 0002:000115d4       $unwind$?type_case_x@?$output_processor@_WV?$string_output_adapter@_W@__crt_stdio_output@@V?$format_validation_base@_WV?$string_output_adapter@_W@__crt_stdio_output@@@2@@__crt_stdio_output@@AEAA_NXZ 000000014004c5d4     libucrtd:output.obj
 0002:000115d4       $unwind$?update_field_width@?$standard_base@DV?$string_output_adapter@D@__crt_stdio_output@@@__crt_stdio_output@@IEAA_NXZ 000000014004c5d4     libucrtd:output.obj
 0002:000115d4       $unwind$?update_field_width@?$standard_base@_WV?$string_output_adapter@_W@__crt_stdio_output@@@__crt_stdio_output@@IEAA_NXZ 000000014004c5d4     libucrtd:output.obj
 0002:000115d4       $unwind$?update_precision@?$standard_base@DV?$string_output_adapter@D@__crt_stdio_output@@@__crt_stdio_output@@IEAA_NXZ 000000014004c5d4     libucrtd:output.obj
 0002:000115d4       $unwind$?update_precision@?$standard_base@_WV?$string_output_adapter@_W@__crt_stdio_output@@@__crt_stdio_output@@IEAA_NXZ 000000014004c5d4     libucrtd:output.obj
 0002:000115d4       $unwind$?__acrt_stdio_free_stream@@YAXV__crt_stdio_stream@@@Z 000000014004c5d4     libucrtd:stream.obj
 0002:000115d4       $unwind$wcslen             000000014004c5d4     libucrtd:strnlen.obj
 0002:000115d4       $unwind$fegetenv           000000014004c5d4     libucrtd:fegetenv.obj
 0002:000115d4       $unwind$??$__crt_fast_decode_pointer@P6AHPEAU_exception@@@Z@@YAP6AHPEAU_exception@@@ZQ6AH0@Z@Z 000000014004c5d4     libucrtd:matherr.obj
 0002:000115d4       $unwind$??$__crt_fast_encode_pointer@P6AHPEAU_exception@@@Z@@YAP6AHPEAU_exception@@@ZQ6AH0@Z@Z 000000014004c5d4     libucrtd:matherr.obj
 0002:000115d4       $unwind$?value@?$dual_state_global@P6AHPEAU_exception@@@Z@__crt_state_management@@QEAAAEAP6AHPEAU_exception@@@ZXZ 000000014004c5d4     libucrtd:matherr.obj
 0002:000115d4       $unwind$__acrt_initialize_user_matherr 000000014004c5d4     libucrtd:matherr.obj
 0002:000115d4       $unwind$??3@YAXPEAX@Z      000000014004c5d4     LIBCMTD:delete_scalar.obj
 0002:000115d4       $unwind$WinMainCRTStartup  000000014004c5d4     LIBCMTD:exe_winmain.obj
 0002:000115d4       $unwind$__raise_securityfailure 000000014004c5d4     LIBCMTD:gs_report.obj
 0002:000115d4       $unwind$ReadPointerNoFence 000000014004c5d4     LIBCMTD:guard_support.obj
 0002:000115d4       $unwind$_ValidateImageBase 000000014004c5d4     LIBCMTD:pesect.obj
 0002:000115d4       $unwind$?is_potentially_valid_image_base@@YA_NQEAX@Z 000000014004c5d4     LIBCMTD:utility.obj
 0002:000115d4       $unwind$??0bad_exception@std@@QEAA@XZ 000000014004c5d4     libvcruntimed:frame.obj
 0002:000115d4       $unwind$??1bad_exception@std@@UEAA@XZ 000000014004c5d4     libvcruntimed:frame.obj
 0002:000115d4       $unwind$??1exception@std@@UEAA@XZ 000000014004c5d4     libvcruntimed:frame.obj
 0002:000115d4       $unwind$?__RethrowException@@YAXPEAUEHExceptionRecord@@@Z 000000014004c5d4     libvcruntimed:frame.obj
 0002:000115d4       $unwind$__vcrt_EncodePointer 000000014004c5d4     libvcruntimed:frame.obj
 0002:000115d4       $unwind$??0scoped_get_last_error_reset@?A0x26810693@@QEAA@XZ 000000014004c5d4     libvcruntimed:per_thread_data.obj
 0002:000115d4       $unwind$??1?$__crt_unique_heap_ptr@U__vcrt_ptd@@U__crt_internal_free_policy@@@@QEAA@XZ 000000014004c5d4     libvcruntimed:per_thread_data.obj
 0002:000115d4       $unwind$??1scoped_get_last_error_reset@?A0x26810693@@QEAA@XZ 000000014004c5d4     libvcruntimed:per_thread_data.obj
 0002:000115d4       $unwind$??B?$__crt_unique_heap_ptr@U__vcrt_ptd@@U__crt_internal_free_policy@@@@QEBA_NXZ 000000014004c5d4     libvcruntimed:per_thread_data.obj
 0002:000115d4       $unwind$?store_and_initialize_ptd@@YA_NQEAU__vcrt_ptd@@@Z 000000014004c5d4     libvcruntimed:per_thread_data.obj
 0002:000115d4       $unwind$__vcrt_freefls     000000014004c5d4     libvcruntimed:per_thread_data.obj
 0002:000115d4       $unwind$_SetImageBase      000000014004c5d4     libvcruntimed:risctrnsctrl.obj
 0002:000115d4       $unwind$_SetThrowImageBase 000000014004c5d4     libvcruntimed:risctrnsctrl.obj
 0002:000115d4       $unwind$??1?$__crt_unique_heap_ptr@DU__crt_public_free_policy@@@@QEAA@XZ 000000014004c5d4     libvcruntimed:std_exception.obj
 0002:000115d4       $unwind$??B?$__crt_unique_heap_ptr@DU__crt_public_free_policy@@@@QEBA_NXZ 000000014004c5d4     libvcruntimed:std_exception.obj
 0002:000115d4       $unwind$__std_exception_destroy 000000014004c5d4     libvcruntimed:std_exception.obj
 0002:000115d4       $unwind$??1?$__crt_unique_heap_ptr@DU__crt_internal_free_policy@@@@QEAA@XZ 000000014004c5d4     libvcruntimed:std_type_info.obj
 0002:000115d4       $unwind$??B?$__crt_unique_heap_ptr@DU__crt_internal_free_policy@@@@QEBA_NXZ 000000014004c5d4     libvcruntimed:std_type_info.obj
 0002:000115d4       $unwind$??$__crt_interlocked_read_pointer@UHINSTANCE__@@@@YAPEAUHINSTANCE__@@PEDSEAU0@@Z 000000014004c5d4     libvcruntimed:winapi_downlevel.obj
 0002:000115d4       $unwind$??$__crt_interlocked_read_pointer@X@@YAPEAXPEDSEAX@Z 000000014004c5d4     libvcruntimed:winapi_downlevel.obj
 0002:000115dc       $unwind$?Clear@keyboard@@QEAAXXZ 000000014004c5dc     win32_platform.obj
 0002:000115dc       $unwind$?WheelDelta@mouse@@QEAAHXZ 000000014004c5dc     win32_platform.obj
 0002:000115dc       $unwind$?get@?$c_string_character_source@D@__crt_strtox@@QEAADXZ 000000014004c5dc     libucrtd:atox.obj
 0002:000115dc       $unwind$?get@?$c_string_character_source@_W@__crt_strtox@@QEAA_WXZ 000000014004c5dc     libucrtd:atox.obj
 0002:000115dc       $unwind$?has_surrogate@?A0xc60ee810@@YA_NPEAU_Mbstatet@@@Z 000000014004c5dc     libucrtd:c16rtomb.obj
 0002:000115dc       $unwind$?is_first_surrogate@?A0xc60ee810@@YA_N_S@Z 000000014004c5dc     libucrtd:c16rtomb.obj
 0002:000115dc       $unwind$?is_second_surrogate@?A0xc60ee810@@YA_N_S@Z 000000014004c5dc     libucrtd:c16rtomb.obj
 0002:000115dc       $unwind$?is_zero@__crt_strtox@@YA_NAEBUbig_integer@1@@Z 000000014004c5dc     libucrtd:cfout.obj
 0002:000115dc       $unwind$?__acrt_fp_classify@@YA?AW4__acrt_fp_class@@AEBN@Z 000000014004c5dc     libucrtd:cvt.obj
 0002:000115dc       $unwind$?__acrt_fp_is_negative@@YA_NAEBN@Z 000000014004c5dc     libucrtd:cvt.obj
 0002:000115dc       $unwind$_CrtSetDumpClient  000000014004c5dc     libucrtd:debug_heap.obj
 0002:000115dc       $unwind$__acrt_get_locale_data_prefix 000000014004c5dc     libucrtd:debug_heap.obj
 0002:000115dc       $unwind$?detach@?$__crt_unique_heap_ptr@U__acrt_ptd@@U__crt_internal_free_policy@@@@QEAAPEAU__acrt_ptd@@XZ 000000014004c5dc     libucrtd:per_thread_data.obj
 0002:000115dc       $unwind$?is_valid@?$__crt_unique_heap_ptr@U__acrt_ptd@@U__crt_internal_free_policy@@@@QEBA_NXZ 000000014004c5dc     libucrtd:per_thread_data.obj
 0002:000115dc       $unwind$_MallocaComputeSize 000000014004c5dc     libucrtd:getstringtypea.obj
 0002:000115dc       $unwind$??B?$__crt_scoped_stack_ptr@_W@@QEBA_NXZ 000000014004c5dc     libucrtd:lcmapstringa.obj
 0002:000115dc       $unwind$?detach@?$__crt_unique_heap_ptr@U__crt_multibyte_data@@U__crt_internal_free_policy@@@@QEAAPEAU__crt_multibyte_data@@XZ 000000014004c5dc     libucrtd:wsetlocale.obj
 0002:000115dc       $unwind$?is_valid@?$__crt_unique_heap_ptr@U__crt_multibyte_data@@U__crt_internal_free_policy@@@@QEBA_NXZ 000000014004c5dc     libucrtd:wsetlocale.obj
 0002:000115dc       $unwind$?detach@?$__crt_unique_heap_ptr@U__crt_lowio_handle_data@@U__crt_internal_free_policy@@@@QEAAPEAU__crt_lowio_handle_data@@XZ 000000014004c5dc     libucrtd:osfinfo.obj
 0002:000115dc       $unwind$?is_valid@?$__crt_unique_heap_ptr@U__crt_lowio_handle_data@@U__crt_internal_free_policy@@@@QEBA_NXZ 000000014004c5dc     libucrtd:osfinfo.obj
 0002:000115dc       $unwind$?setSBCS@@YAXPEAU__crt_multibyte_data@@@Z 000000014004c5dc     libucrtd:mbctype.obj
 0002:000115dc       $unwind$__acrt_should_sync_with_global_locale 000000014004c5dc     libucrtd:mbctype.obj
 0002:000115dc       $unwind$?detach@?$__crt_unique_heap_ptr@EU__crt_internal_free_policy@@@@QEAAPEAEXZ 000000014004c5dc     libucrtd:argv_parsing.obj
 0002:000115dc       $unwind$?detach@?$__crt_unique_heap_ptr@PEADU__crt_internal_free_policy@@@@QEAAPEAPEADXZ 000000014004c5dc     libucrtd:argv_parsing.obj
 0002:000115dc       $unwind$?is_valid@?$__crt_unique_heap_ptr@EU__crt_internal_free_policy@@@@QEBA_NXZ 000000014004c5dc     libucrtd:argv_parsing.obj
 0002:000115dc       $unwind$?__crt_fast_encode_pointer@@YA?AU__crt_fast_encoded_nullptr_t@@$$T@Z 000000014004c5dc     libucrtd:exit.obj
 0002:000115dc       $unwind$?__crt_interlocked_read_32@@YAHPEDH@Z 000000014004c5dc     libucrtd:exit.obj
 0002:000115dc       $unwind$?detach@?$__crt_unique_heap_ptr@P6AXXZU__crt_internal_free_policy@@@@QEAAPEAP6AXXZXZ 000000014004c5dc     libucrtd:onexit.obj
 0002:000115dc       $unwind$?detach@?$__crt_unique_heap_ptr@PEAU__crt_stdio_stream_data@@U__crt_internal_free_policy@@@@QEAAPEAPEAU__crt_stdio_stream_data@@XZ 000000014004c5dc     libucrtd:_file.obj
 0002:000115dc       $unwind$??$read_va_arg@C@__crt_stdio_output@@YACAEAPEAD@Z 000000014004c5dc     libucrtd:output.obj
 0002:000115dc       $unwind$??$read_va_arg@E@__crt_stdio_output@@YAEAEAPEAD@Z 000000014004c5dc     libucrtd:output.obj
 0002:000115dc       $unwind$??$read_va_arg@F@__crt_stdio_output@@YAFAEAPEAD@Z 000000014004c5dc     libucrtd:output.obj
 0002:000115dc       $unwind$??$read_va_arg@G@__crt_stdio_output@@YAGAEAPEAD@Z 000000014004c5dc     libucrtd:output.obj
 0002:000115dc       $unwind$??$read_va_arg@H@__crt_stdio_output@@YAHAEAPEAD@Z 000000014004c5dc     libucrtd:output.obj
 0002:000115dc       $unwind$??$read_va_arg@I@__crt_stdio_output@@YAIAEAPEAD@Z 000000014004c5dc     libucrtd:output.obj
 0002:000115dc       $unwind$??$read_va_arg@PEAD@__crt_stdio_output@@YAPEADAEAPEAD@Z 000000014004c5dc     libucrtd:output.obj
 0002:000115dc       $unwind$??$read_va_arg@PEAUansi_string@?1??type_case_Z@?$output_processor@DV?$string_output_adapter@D@__crt_stdio_output@@V?$format_validation_base@DV?$string_output_adapter@D@__crt_stdio_output@@@2@@__crt_stdio_output@@AEAA_NXZ@@__crt_stdio_output@@YAPEAUansi_string@?1??type_case_Z@?$output_processor@DV?$string_output_adapter@D@__crt_stdio_output@@V?$format_validation_base@DV?$string_output_adapter@D@__crt_stdio_output@@@2@@0@AEAA_NXZ@AEAPEAD@Z 000000014004c5dc     libucrtd:output.obj
 0002:000115dc       $unwind$??$read_va_arg@PEAUansi_string@?1??type_case_Z@?$output_processor@_WV?$string_output_adapter@_W@__crt_stdio_output@@V?$format_validation_base@_WV?$string_output_adapter@_W@__crt_stdio_output@@@2@@__crt_stdio_output@@AEAA_NXZ@@__crt_stdio_output@@YAPEAUansi_string@?1??type_case_Z@?$output_processor@_WV?$string_output_adapter@_W@__crt_stdio_output@@V?$format_validation_base@_WV?$string_output_adapter@_W@__crt_stdio_output@@@2@@0@AEAA_NXZ@AEAPEAD@Z 000000014004c5dc     libucrtd:output.obj
 0002:000115dc       $unwind$??$read_va_arg@PEAX@__crt_stdio_output@@YAPEAXAEAPEAD@Z 000000014004c5dc     libucrtd:output.obj
 0002:000115dc       $unwind$??$read_va_arg@U_CRT_DOUBLE@@@__crt_stdio_output@@YA?AU_CRT_DOUBLE@@AEAPEAD@Z 000000014004c5dc     libucrtd:output.obj
 0002:000115dc       $unwind$??$read_va_arg@_J@__crt_stdio_output@@YA_JAEAPEAD@Z 000000014004c5dc     libucrtd:output.obj
 0002:000115dc       $unwind$??$read_va_arg@_K@__crt_stdio_output@@YA_KAEAPEAD@Z 000000014004c5dc     libucrtd:output.obj
 0002:000115dc       $unwind$??$read_va_arg@_W@__crt_stdio_output@@YA_WAEAPEAD@Z 000000014004c5dc     libucrtd:output.obj
 0002:000115dc       $unwind$?advance_to_next_pass@?$standard_base@DV?$string_output_adapter@D@__crt_stdio_output@@@__crt_stdio_output@@IEAA_NXZ 000000014004c5dc     libucrtd:output.obj
 0002:000115dc       $unwind$?advance_to_next_pass@?$standard_base@_WV?$string_output_adapter@_W@__crt_stdio_output@@@__crt_stdio_output@@IEAA_NXZ 000000014004c5dc     libucrtd:output.obj
 0002:000115dc       $unwind$?valid@__crt_stdio_stream@@QEBA_NXZ 000000014004c5dc     libucrtd:output.obj
 0002:000115dc       $unwind$_handle_nan        000000014004c5dc     libucrtd:libm_error.obj
 0002:000115dc       $unwind$ReadNoFence64      000000014004c5dc     LIBCMTD:guard_support.obj
 0002:000115dc       $unwind$?isEHs@__FrameHandler3@@SA_NPEBU_s_FuncInfo@@@Z 000000014004c5dc     libvcruntimed:frame.obj
 0002:000115dc       $unwind$?isNoExcept@__FrameHandler3@@SA_NPEBU_s_FuncInfo@@@Z 000000014004c5dc     libvcruntimed:frame.obj
 0002:000115dc       $unwind$?what@exception@std@@UEBAPEBDXZ 000000014004c5dc     libvcruntimed:frame.obj
 0002:000115dc       $unwind$?detach@?$__crt_unique_heap_ptr@U__vcrt_ptd@@U__crt_internal_free_policy@@@@QEAAPEAU__vcrt_ptd@@XZ 000000014004c5dc     libvcruntimed:per_thread_data.obj
 0002:000115dc       $unwind$?is_valid@?$__crt_unique_heap_ptr@U__vcrt_ptd@@U__crt_internal_free_policy@@@@QEBA_NXZ 000000014004c5dc     libvcruntimed:per_thread_data.obj
 0002:000115dc       $unwind$?detach@?$__crt_unique_heap_ptr@DU__crt_public_free_policy@@@@QEAAPEADXZ 000000014004c5dc     libvcruntimed:std_exception.obj
 0002:000115dc       $unwind$?is_valid@?$__crt_unique_heap_ptr@DU__crt_public_free_policy@@@@QEBA_NXZ 000000014004c5dc     libvcruntimed:std_exception.obj
 0002:000115dc       $unwind$?__crt_interlocked_read_64@@YA_JPED_J@Z 000000014004c5dc     libvcruntimed:std_type_info.obj
 0002:000115dc       $unwind$?is_valid@?$__crt_unique_heap_ptr@DU__crt_internal_free_policy@@@@QEBA_NXZ 000000014004c5dc     libvcruntimed:std_type_info.obj
 0002:000115e4       $unwind$?ToggleKey@keyboard@@QEAAXW4KEYBOARD_BUTTON@@@Z 000000014004c5e4     win32_platform.obj
 0002:000115e4       $unwind$?siglookup@@YAPEAU__crt_signal_action_t@@HQEAU1@@Z 000000014004c5e4     libucrtd:signal.obj
 0002:000115e4       $unwind$??R<lambda_cfae5a0e6efa98e0d1aa03c4cec8f74e>@@QEBA_ND@Z 000000014004c5e4     libucrtd:argv_wildcards.obj
 0002:000115e4       $unwind$?set_flags@__crt_stdio_stream@@QEBA_NJ@Z 000000014004c5e4     libucrtd:_sftbuf.obj
 0002:000115e4       $unwind$?unset_flags@__crt_stdio_stream@@QEBA_NJ@Z 000000014004c5e4     libucrtd:_sftbuf.obj
 0002:000115e4       $unwind$?has_flag@?$output_processor@DV?$string_output_adapter@D@__crt_stdio_output@@V?$format_validation_base@DV?$string_output_adapter@D@__crt_stdio_output@@@2@@__crt_stdio_output@@AEBA_NI@Z 000000014004c5e4     libucrtd:output.obj
 0002:000115e4       $unwind$?has_flag@?$output_processor@_WV?$string_output_adapter@_W@__crt_stdio_output@@V?$format_validation_base@_WV?$string_output_adapter@_W@__crt_stdio_output@@@2@@__crt_stdio_output@@AEBA_NI@Z 000000014004c5e4     libucrtd:output.obj
 0002:000115ec       $unwind$__dcrt_terminate_console_output 000000014004c5ec     libucrtd:initcon.obj
 0002:000115ec       $unwind$??$uninitialize_environment_internal@D@@YAXAEAPEAPEAD@Z 000000014004c5ec     libucrtd:environment_initialization.obj
 0002:000115ec       $unwind$??$uninitialize_environment_internal@_W@@YAXAEAPEAPEA_W@Z 000000014004c5ec     libucrtd:environment_initialization.obj
 0002:000115ec       $unwind$__dcrt_uninitialize_environments_nolock 000000014004c5ec     libucrtd:environment_initialization.obj
 0002:000115ec       $unwind$__acrt_initialize_heap 000000014004c5ec     libucrtd:heap_handle.obj
 0002:000115ec       $unwind$_query_new_mode    000000014004c5ec     libucrtd:new_mode.obj
 0002:000115ec       $unwind$__acrt_initialize  000000014004c5ec     libucrtd:initialization.obj
 0002:000115ec       $unwind$initialize_c       000000014004c5ec     libucrtd:initialization.obj
 0002:000115ec       $unwind$initialize_global_variables 000000014004c5ec     libucrtd:initialization.obj
 0002:000115ec       $unwind$__acrt_getptd_noexit 000000014004c5ec     libucrtd:per_thread_data.obj
 0002:000115ec       $unwind$__acrt_initialize_ptd 000000014004c5ec     libucrtd:per_thread_data.obj
 0002:000115ec       $unwind$__acrt_get_developer_information_policy 000000014004c5ec     libucrtd:win_policies.obj
 0002:000115ec       $unwind$__acrt_get_process_end_policy 000000014004c5ec     libucrtd:win_policies.obj
 0002:000115ec       $unwind$__acrt_get_windowing_model_policy 000000014004c5ec     libucrtd:win_policies.obj
 0002:000115ec       $unwind$?try_get_AppPolicyGetProcessTerminationMethod@@YAP6AJPEAXPEAW4AppPolicyProcessTerminationMethod@@@ZXZ 000000014004c5ec     libucrtd:winapi_thunks.obj
 0002:000115ec       $unwind$?try_get_AppPolicyGetShowDeveloperDiagnostic@@YAP6AJPEAXPEAW4AppPolicyShowDeveloperDiagnostic@@@ZXZ 000000014004c5ec     libucrtd:winapi_thunks.obj
 0002:000115ec       $unwind$?try_get_AppPolicyGetWindowingModel@@YAP6AJPEAXPEAW4AppPolicyWindowingModel@@@ZXZ 000000014004c5ec     libucrtd:winapi_thunks.obj
 0002:000115ec       $unwind$?try_get_AreFileApisANSI@@YAP6AHXZXZ 000000014004c5ec     libucrtd:winapi_thunks.obj
 0002:000115ec       $unwind$?try_get_FlsAlloc@@YAP6AKP6AXPEAX@Z@ZXZ 000000014004c5ec     libucrtd:winapi_thunks.obj
 0002:000115ec       $unwind$?try_get_FlsFree@@YAP6AHK@ZXZ 000000014004c5ec     libucrtd:winapi_thunks.obj
 0002:000115ec       $unwind$?try_get_FlsGetValue@@YAP6APEAXK@ZXZ 000000014004c5ec     libucrtd:winapi_thunks.obj
 0002:000115ec       $unwind$?try_get_FlsSetValue@@YAP6AHKPEAX@ZXZ 000000014004c5ec     libucrtd:winapi_thunks.obj
 0002:000115ec       $unwind$?try_get_GetActiveWindow@@YAP6APEAUHWND__@@XZXZ 000000014004c5ec     libucrtd:winapi_thunks.obj
 0002:000115ec       $unwind$?try_get_GetLastActivePopup@@YAP6APEAUHWND__@@PEAU1@@ZXZ 000000014004c5ec     libucrtd:winapi_thunks.obj
 0002:000115ec       $unwind$?try_get_GetProcessWindowStation@@YAP6APEAUHWINSTA__@@XZXZ 000000014004c5ec     libucrtd:winapi_thunks.obj
 0002:000115ec       $unwind$?try_get_GetUserObjectInformationW@@YAP6AHPEAXH0KPEAK@ZXZ 000000014004c5ec     libucrtd:winapi_thunks.obj
 0002:000115ec       $unwind$?try_get_InitializeCriticalSectionEx@@YAP6AHPEAU_RTL_CRITICAL_SECTION@@KK@ZXZ 000000014004c5ec     libucrtd:winapi_thunks.obj
 0002:000115ec       $unwind$?try_get_LCMapStringEx@@YAP6AHPEB_WK0HPEA_WHPEAU_nlsversioninfo@@PEAX_J@ZXZ 000000014004c5ec     libucrtd:winapi_thunks.obj
 0002:000115ec       $unwind$?try_get_LocaleNameToLCID@@YAP6AKPEB_WK@ZXZ 000000014004c5ec     libucrtd:winapi_thunks.obj
 0002:000115ec       $unwind$?try_get_MessageBoxA@@YAP6AHPEAUHWND__@@PEBD1I@ZXZ 000000014004c5ec     libucrtd:winapi_thunks.obj
 0002:000115ec       $unwind$?try_get_MessageBoxW@@YAP6AHPEAUHWND__@@PEB_W1I@ZXZ 000000014004c5ec     libucrtd:winapi_thunks.obj
 0002:000115ec       $unwind$__fpecode          000000014004c5ec     libucrtd:signal.obj
 0002:000115ec       $unwind$__acrt_initialize_command_line 000000014004c5ec     libucrtd:argv_data.obj
 0002:000115ec       $unwind$_get_narrow_winmain_command_line 000000014004c5ec     libucrtd:argv_winmain.obj
 0002:000115ec       $unwind$_c_exit            000000014004c5ec     libucrtd:exit.obj
 0002:000115ec       $unwind$_cexit             000000014004c5ec     libucrtd:exit.obj
 0002:000115ec       $unwind$_flushall          000000014004c5ec     libucrtd:fflush.obj
 0002:000115ec       $unwind$fegetround         000000014004c5ec     libucrtd:fegetround.obj
 0002:000115ec       $unwind$?__scrt_common_main@@YAHXZ 000000014004c5ec     LIBCMTD:exe_winmain.obj
 0002:000115ec       $unwind$?configure_argv@__scrt_narrow_argv_policy@@SAHXZ 000000014004c5ec     LIBCMTD:exe_winmain.obj
 0002:000115ec       $unwind$?initialize_environment@__scrt_narrow_environment_policy@@SAHXZ 000000014004c5ec     LIBCMTD:exe_winmain.obj
 0002:000115ec       $unwind$?post_pgo_initialization@@YAHXZ 000000014004c5ec     LIBCMTD:exe_winmain.obj
 0002:000115ec       $unwind$?pre_c_initialization@@YAHXZ 000000014004c5ec     LIBCMTD:exe_winmain.obj
 0002:000115ec       $unwind$?pre_cpp_initialization@@YAXXZ 000000014004c5ec     LIBCMTD:exe_winmain.obj
 0002:000115ec       $unwind$?set_app_type@__scrt_winmain_policy@@SAXXZ 000000014004c5ec     LIBCMTD:exe_winmain.obj
 0002:000115ec       $unwind$?set_fmode@__scrt_file_policy@@SAXXZ 000000014004c5ec     LIBCMTD:exe_winmain.obj
 0002:000115ec       $unwind$__report_rangecheckfailure 000000014004c5ec     LIBCMTD:gs_report.obj
 0002:000115ec       $unwind$?__scrt_initialize_type_info@@YAXXZ 000000014004c5ec     LIBCMTD:tncleanup.obj
 0002:000115ec       $unwind$__scrt_initialize_mta 000000014004c5ec     LIBCMTD:utility_desktop.obj
 0002:000115ec       $unwind$__scrt_set_unhandled_exception_filter 000000014004c5ec     LIBCMTD:utility_desktop.obj
 0002:000115ec       $unwind$__current_exception 000000014004c5ec     libvcruntimed:ehhelpers.obj
 0002:000115ec       $unwind$__current_exception_context 000000014004c5ec     libvcruntimed:ehhelpers.obj
 0002:000115ec       $unwind$__vcrt_initialize  000000014004c5ec     libvcruntimed:initialization.obj
 0002:000115ec       $unwind$__vcrt_initialize_ptd 000000014004c5ec     libvcruntimed:per_thread_data.obj
 0002:000115ec       $unwind$__vcrt_uninitialize_ptd 000000014004c5ec     libvcruntimed:per_thread_data.obj
 0002:000115ec       $unwind$_GetImageBase      000000014004c5ec     libvcruntimed:risctrnsctrl.obj
 0002:000115ec       $unwind$_GetThrowImageBase 000000014004c5ec     libvcruntimed:risctrnsctrl.obj
 0002:000115ec       $unwind$?try_get_FlsAlloc@@YAP6AKP6AXPEAX@Z@ZXZ 000000014004c5ec     libvcruntimed:winapi_downlevel.obj
 0002:000115ec       $unwind$?try_get_FlsFree@@YAP6AHK@ZXZ 000000014004c5ec     libvcruntimed:winapi_downlevel.obj
 0002:000115ec       $unwind$?try_get_FlsGetValue@@YAP6APEAXK@ZXZ 000000014004c5ec     libvcruntimed:winapi_downlevel.obj
 0002:000115ec       $unwind$?try_get_FlsSetValue@@YAP6AHKPEAX@ZXZ 000000014004c5ec     libvcruntimed:winapi_downlevel.obj
 0002:000115ec       $unwind$?try_get_InitializeCriticalSectionEx@@YAP6AHPEAU_RTL_CRITICAL_SECTION@@KK@ZXZ 000000014004c5ec     libvcruntimed:winapi_downlevel.obj
 0002:000115f4       $unwind$?initialize_multibyte@@YAHXZ 000000014004c5f4     libucrtd:multibyte_initializer.obj
 0002:000115f4       $unwind$initialize_pointers 000000014004c5f4     libucrtd:initialization.obj
 0002:000115f4       $unwind$__acrt_initialize_locks 000000014004c5f4     libucrtd:locks.obj
 0002:000115f4       $unwind$?try_get_ptd_head@@YAPEAU__acrt_ptd@@XZ 000000014004c5f4     libucrtd:per_thread_data.obj
 0002:000115f4       $unwind$__acrt_getptd      000000014004c5f4     libucrtd:per_thread_data.obj
 0002:000115f4       $unwind$__acrt_getptd_head 000000014004c5f4     libucrtd:per_thread_data.obj
 0002:000115f4       $unwind$?should_write_error_to_console@@YA_NXZ 000000014004c5f4     libucrtd:report_runtime_error.obj
 0002:000115f4       $unwind$__acrt_AreFileApisANSI 000000014004c5f4     libucrtd:winapi_thunks.obj
 0002:000115f4       $unwind$__acrt_can_show_message_box 000000014004c5f4     libucrtd:winapi_thunks.obj
 0002:000115f4       $unwind$__pctype_func      000000014004c5f4     libucrtd:ctype.obj
 0002:000115f4       $unwind$__acrt_initialize_multibyte 000000014004c5f4     libucrtd:mbctype.obj
 0002:000115f4       $unwind$__acrt_update_thread_multibyte_data 000000014004c5f4     libucrtd:mbctype.obj
 0002:000115f4       $unwind$__doserrno         000000014004c5f4     libucrtd:errno.obj
 0002:000115f4       $unwind$_errno             000000014004c5f4     libucrtd:errno.obj
 0002:000115f4       $unwind$_invalid_parameter_noinfo 000000014004c5f4     libucrtd:invalid_parameter.obj
 0002:000115f4       $unwind$abort              000000014004c5f4     libucrtd:abort.obj
 0002:000115f4       $unwind$?is_managed_app@@YA_NXZ 000000014004c5f4     libucrtd:exit.obj
 0002:000115f4       $unwind$?should_call_terminate_process@@YA_NXZ 000000014004c5f4     libucrtd:exit.obj
 0002:000115f4       $unwind$__acrt_uninitialize_stdio 000000014004c5f4     libucrtd:_file.obj
 0002:000115f4       $unwind$_clrfp             000000014004c5f4     libucrtd:fpctrl.obj
 0002:000115f4       $unwind$_statfp            000000014004c5f4     libucrtd:fpctrl.obj
 0002:000115f4       $unwind$_clearfp           000000014004c5f4     libucrtd:ieee.obj
 0002:000115f4       $unwind$?get_machine_sse_control@@YA?AW4__acrt_fenv_machine_sse_control@@XZ 000000014004c5f4     libucrtd:_fenvutils.obj
 0002:000115f4       $unwind$?get_machine_sse_status@@YA?AW4__acrt_fenv_machine_sse_status@@XZ 000000014004c5f4     libucrtd:_fenvutils.obj
 0002:000115f4       $unwind$__acrt_fenv_get_control 000000014004c5f4     libucrtd:_fenvutils.obj
 0002:000115f4       $unwind$__acrt_fenv_get_status 000000014004c5f4     libucrtd:_fenvutils.obj
 0002:000115f4       $unwind$__acrt_has_user_matherr 000000014004c5f4     libucrtd:matherr.obj
 0002:000115f4       $unwind$__scrt_initialize_default_local_stdio_options 000000014004c5f4     LIBCMTD:default_local_stdio_options.obj
 0002:000115f4       $unwind$?invoke_main@@YAHXZ 000000014004c5f4     LIBCMTD:exe_winmain.obj
 0002:000115f4       $unwind$?set_commode@__scrt_file_policy@@SAXXZ 000000014004c5f4     LIBCMTD:exe_winmain.obj
 0002:000115f4       $unwind$__security_init_cookie 000000014004c5f4     LIBCMTD:gs_support.obj
 0002:000115f4       $unwind$_guard_icall_checks_enforced 000000014004c5f4     LIBCMTD:guard_support.obj
 0002:000115f4       $unwind$__scrt_is_managed_app 000000014004c5f4     LIBCMTD:utility_desktop.obj
 0002:000115f4       $unwind$__vcrt_initialize_locks 000000014004c5f4     libvcruntimed:locks.obj
 0002:000115f4       $unwind$__vcrt_uninitialize_locks 000000014004c5f4     libvcruntimed:locks.obj
 0002:000115f4       $unwind$__vcrt_getptd      000000014004c5f4     libvcruntimed:per_thread_data.obj
 0002:000115fc       $unwind$?__scrt_common_main_seh@@YAHXZ 000000014004c5fc     LIBCMTD:exe_winmain.obj
 0002:0001161c       $unwind$?dtor$0@?0??fp_format_a@@YAHQEBNPEAD_KQEAD2H_NIQEAU__crt_locale_pointers@@W4__acrt_rounding_mode@@@Z@4HA 000000014004c61c     libucrtd:cvt.obj
 0002:0001161c       $unwind$?dtor$0@?0??_wcstombs_l_helper@@YA_KPEADPEB_W_KPEAU__crt_locale_pointers@@@Z@4HA 000000014004c61c     libucrtd:wcstombs.obj
 0002:0001161c       $unwind$?filt$0@?0??is_bad_read_pointer@@YA_NQEBX_K@Z@4HA 000000014004c61c     libucrtd:debug_heap.obj
 0002:0001161c       $unwind$_free_dbg$fin$0    000000014004c61c     libucrtd:debug_heap.obj
 0002:0001161c       $unwind$_query_new_handler$fin$0 000000014004c61c     libucrtd:new_handler.obj
 0002:0001161c       $unwind$?fin$0@?0???$?RV<lambda_0ae27a3a962d80f24befdcbee591983d>@@AEAV<lambda_8d0ee55de4b1038c4002e0adecdf1839>@@V<lambda_dc504788e8f1664fe9b84e20bfb512f2>@@@?$__crt_seh_guarded_call@X@@QEAAX$$QEAV<lambda_0ae27a3a962d80f24befdcbee591983d>@@AEAV<lambda_8d0ee55de4b1038c4002e0adecdf1839>@@$$QEAV<lambda_dc504788e8f1664fe9b84e20bfb512f2>@@@Z@4HA 000000014004c61c     libucrtd:per_thread_data.obj
 0002:0001161c       $unwind$?fin$0@?0???$?RV<lambda_2d41944a1d46af3157314b8a01080d33>@@AEAV<lambda_8f455de75cd7d7f24b4096f044d8b9e6>@@V<lambda_aa500f224e6afead328df44964fe2772>@@@?$__crt_seh_guarded_call@X@@QEAAX$$QEAV<lambda_2d41944a1d46af3157314b8a01080d33>@@AEAV<lambda_8f455de75cd7d7f24b4096f044d8b9e6>@@$$QEAV<lambda_aa500f224e6afead328df44964fe2772>@@@Z@4HA 000000014004c61c     libucrtd:per_thread_data.obj
 0002:0001161c       $unwind$?fin$0@?0???$?RV<lambda_74a0ef281e44d15e1136f792f539efb3>@@AEAV<lambda_e157831efee4ea0afb0a2ace5dd5fd0d>@@V<lambda_04ddeca75b7c13fd67716e8dfcef87ee>@@@?$__crt_seh_guarded_call@X@@QEAAX$$QEAV<lambda_74a0ef281e44d15e1136f792f539efb3>@@AEAV<lambda_e157831efee4ea0afb0a2ace5dd5fd0d>@@$$QEAV<lambda_04ddeca75b7c13fd67716e8dfcef87ee>@@@Z@4HA 000000014004c61c     libucrtd:per_thread_data.obj
 0002:0001161c       $unwind$?fin$0@?0???$?RV<lambda_aa87e3671a710a21b5dc78c0bdf72e11>@@AEAV<lambda_92619d2358a28f41a33ba319515a20b9>@@V<lambda_6992ecaafeb10aed2b74cb1fae11a551>@@@?$__crt_seh_guarded_call@X@@QEAAX$$QEAV<lambda_aa87e3671a710a21b5dc78c0bdf72e11>@@AEAV<lambda_92619d2358a28f41a33ba319515a20b9>@@$$QEAV<lambda_6992ecaafeb10aed2b74cb1fae11a551>@@@Z@4HA 000000014004c61c     libucrtd:per_thread_data.obj
 0002:0001161c       $unwind$__acrt_update_thread_locale_data$fin$0 000000014004c61c     libucrtd:locale_refcounting.obj
 0002:0001161c       $unwind$?fin$0@?0???$?RV<lambda_410d79af7f07d98d83a3f525b3859a53>@@AEAV<lambda_3e16ef9562a7dcce91392c22ab16ea36>@@V<lambda_38119f0e861e05405d8a144b9b982f0a>@@@?$__crt_seh_guarded_call@X@@QEAAX$$QEAV<lambda_410d79af7f07d98d83a3f525b3859a53>@@AEAV<lambda_3e16ef9562a7dcce91392c22ab16ea36>@@$$QEAV<lambda_38119f0e861e05405d8a144b9b982f0a>@@@Z@4HA 000000014004c61c     libucrtd:wsetlocale.obj
 0002:0001161c       $unwind$?fin$0@?0???$?RV<lambda_53fc7fc888e23d815d7080162c0aeeb2>@@AEAV<lambda_4e7105787b7b0e0227fbf2b2d883fa65>@@V<lambda_8ddc48ad9d26c778cb15812d1d88fc8a>@@@?$__crt_seh_guarded_call@H@@QEAAH$$QEAV<lambda_53fc7fc888e23d815d7080162c0aeeb2>@@AEAV<lambda_4e7105787b7b0e0227fbf2b2d883fa65>@@$$QEAV<lambda_8ddc48ad9d26c778cb15812d1d88fc8a>@@@Z@4HA 000000014004c61c     libucrtd:close.obj
 0002:0001161c       $unwind$?fin$0@?0???$?RV<lambda_4e3dbe6921bc0b5a1a6bc6573fdc859e>@@AEAV<lambda_5533cddd4bda0037814beee657757329>@@V<lambda_47cffbaa968af5c721c38a4a6f8da44d>@@@?$__crt_seh_guarded_call@H@@QEAAH$$QEAV<lambda_4e3dbe6921bc0b5a1a6bc6573fdc859e>@@AEAV<lambda_5533cddd4bda0037814beee657757329>@@$$QEAV<lambda_47cffbaa968af5c721c38a4a6f8da44d>@@@Z@4HA 000000014004c61c     libucrtd:commit.obj
 0002:0001161c       $unwind$__acrt_initialize_lowio$fin$0 000000014004c61c     libucrtd:ioinit.obj
 0002:0001161c       $unwind$?fin$0@?0???$?RV<lambda_efa02eb69bf647d2f7ff0dd6f1103f72>@@AEAV<lambda_bd5a608237428601b7e45fbdc72b1ae8>@@V<lambda_728235dc0fc2b1f82d1fa5b3e7102d8f>@@@?$__crt_seh_guarded_call@X@@QEAAX$$QEAV<lambda_efa02eb69bf647d2f7ff0dd6f1103f72>@@AEAV<lambda_bd5a608237428601b7e45fbdc72b1ae8>@@$$QEAV<lambda_728235dc0fc2b1f82d1fa5b3e7102d8f>@@@Z@4HA 000000014004c61c     libucrtd:mbctype.obj
 0002:0001161c       $unwind$?fin$0@?0??update_thread_multibyte_data_internal@@YAPEAU__crt_multibyte_data@@QEAU__acrt_ptd@@QEAPEAU1@@Z@4HA 000000014004c61c     libucrtd:mbctype.obj
 0002:0001161c       $unwind$?fin$0@?0???$?RV<lambda_450d765d439847d4c735a33c368b5fc0>@@AEAV<lambda_44731a7d0e6d81c3e6aa82d741081786>@@V<lambda_601a2a7da3b7a96e9554ac7215c4b07c>@@@?$__crt_seh_guarded_call@P6AXH@Z@@QEAAP6AXH@Z$$QEAV<lambda_450d765d439847d4c735a33c368b5fc0>@@AEAV<lambda_44731a7d0e6d81c3e6aa82d741081786>@@$$QEAV<lambda_601a2a7da3b7a96e9554ac7215c4b07c>@@@Z@4HA 000000014004c61c     libucrtd:signal.obj
 0002:0001161c       $unwind$terminate$filt$0   000000014004c61c     libucrtd:terminate.obj
 0002:0001161c       $unwind$?filt$0@?0???R<lambda_6e4b09c48022b2350581041d5f6b0c4c>@@QEBA@XZ@4HA 000000014004c61c     libucrtd:exit.obj
 0002:0001161c       $unwind$?fin$0@?0???$?RV<lambda_d80eeec6fff315bfe5c115232f3240e3>@@AEAV<lambda_6e4b09c48022b2350581041d5f6b0c4c>@@V<lambda_2358e3775559c9db80273638284d5e45>@@@?$__crt_seh_guarded_call@X@@QEAAX$$QEAV<lambda_d80eeec6fff315bfe5c115232f3240e3>@@AEAV<lambda_6e4b09c48022b2350581041d5f6b0c4c>@@$$QEAV<lambda_2358e3775559c9db80273638284d5e45>@@@Z@4HA 000000014004c61c     libucrtd:exit.obj
 0002:0001161c       $unwind$?dtor$0@?0???R<lambda_d121dba8a4adeaf3a9819e48611155df>@@QEBAHXZ@4HA 000000014004c61c     libucrtd:onexit.obj
 0002:0001161c       $unwind$?fin$0@?0???$?RV<lambda_6a47f4c8fd0152770a780fc1d70204eb>@@AEAV<lambda_d121dba8a4adeaf3a9819e48611155df>@@V<lambda_6aaa2265f5b6a89667e7d7630012e97a>@@@?$__crt_seh_guarded_call@H@@QEAAH$$QEAV<lambda_6a47f4c8fd0152770a780fc1d70204eb>@@AEAV<lambda_d121dba8a4adeaf3a9819e48611155df>@@$$QEAV<lambda_6aaa2265f5b6a89667e7d7630012e97a>@@@Z@4HA 000000014004c61c     libucrtd:onexit.obj
 0002:0001161c       $unwind$?fin$0@?0???$?RV<lambda_dce957679fd779aa27c4ca5c39e09098>@@AEAV<lambda_3b83eb014488ad801d84acef5aaf14d3>@@V<lambda_00e911965883f7966597d4c465c83ebc>@@@?$__crt_seh_guarded_call@H@@QEAAH$$QEAV<lambda_dce957679fd779aa27c4ca5c39e09098>@@AEAV<lambda_3b83eb014488ad801d84acef5aaf14d3>@@$$QEAV<lambda_00e911965883f7966597d4c465c83ebc>@@@Z@4HA 000000014004c61c     libucrtd:onexit.obj
 0002:0001161c       $unwind$_fcloseall$fin$0   000000014004c61c     libucrtd:closeall.obj
 0002:0001161c       $unwind$?fin$0@?0???$?RV<lambda_842d9ff0dc9ef11c61343bbaebe7f885>@@AEAV<lambda_c5860995281e5c4ce005b3de8f5874ee>@@V<lambda_d90129c13df834fdcbf8d2b88dafcf2d>@@@?$__crt_seh_guarded_call@X@@QEAAX$$QEAV<lambda_842d9ff0dc9ef11c61343bbaebe7f885>@@AEAV<lambda_c5860995281e5c4ce005b3de8f5874ee>@@$$QEAV<lambda_d90129c13df834fdcbf8d2b88dafcf2d>@@@Z@4HA 000000014004c61c     libucrtd:fflush.obj
 0002:0001161c       $unwind$?fin$0@?0???$?RV<lambda_886d6c58226a84441f68b9f2b8217b83>@@AEAV<lambda_ab61a845afdef5b7c387490eaf3616ee>@@V<lambda_f7f22ab5edc0698d5f6905b0d3f44752>@@@?$__crt_seh_guarded_call@X@@QEAAX$$QEAV<lambda_886d6c58226a84441f68b9f2b8217b83>@@AEAV<lambda_ab61a845afdef5b7c387490eaf3616ee>@@$$QEAV<lambda_f7f22ab5edc0698d5f6905b0d3f44752>@@@Z@4HA 000000014004c61c     libucrtd:fflush.obj
 0002:0001161c       $unwind$?dtor$0@?0??shortsort@@YAXPEAD0_KP6AHPEBX2@Z@Z@4HA 000000014004c61c     libucrtd:qsort.obj
 0002:0001161c       $unwind$_ctrlfp$filt$0     000000014004c61c     libucrtd:fpctrl.obj
 0002:0001161c       $unwind$?filt$0@?0??__scrt_common_main_seh@@YAHXZ@4HA 000000014004c61c     LIBCMTD:exe_winmain.obj
 0002:0001161c       $unwind$_IsNonwritableInCurrentImage$filt$0 000000014004c61c     LIBCMTD:pesect.obj
 0002:0001161c       $unwind$__scrt_is_nonwritable_in_current_image$filt$0 000000014004c61c     LIBCMTD:utility.obj
 0002:0001161c       $unwind$__DestructExceptionObject$filt$0 000000014004c61c     libvcruntimed:ehhelpers.obj
 0002:0001161c       $unwind$?filt$0@?0???$BuildCatchObjectHelperInternal@V__FrameHandler3@@@@YAHPEAUEHExceptionRecord@@PEAXPEBU_s_HandlerType@@PEBU_s_CatchableType@@@Z@4HA 000000014004c61c     libvcruntimed:frame.obj
 0002:0001161c       $unwind$?filt$0@?0???$BuildCatchObjectInternal@V__FrameHandler3@@@@YAXPEAUEHExceptionRecord@@PEAXPEBU_s_HandlerType@@PEBU_s_CatchableType@@@Z@4HA 000000014004c61c     libvcruntimed:frame.obj
 0002:0001161c       $unwind$?filt$0@?0??CxxCallCatchBlock@__FrameHandler3@@SAPEAXPEAU_EXCEPTION_RECORD@@@Z@4HA 000000014004c61c     libvcruntimed:frame.obj
 0002:0001161c       $unwind$?filt$0@?0??FrameUnwindToState@__FrameHandler3@@SAXPEA_KPEAU_xDISPATCHER_CONTEXT@@PEBU_s_FuncInfo@@H@Z@4HA 000000014004c61c     libvcruntimed:frame.obj
 0002:0001161c       $unwind$?fin$1@?0??CxxCallCatchBlock@__FrameHandler3@@SAPEAXPEAU_EXCEPTION_RECORD@@@Z@4HA 000000014004c61c     libvcruntimed:frame.obj
 0002:0001161c       $unwind$?fin$1@?0??FrameUnwindToState@__FrameHandler3@@SAXPEA_KPEAU_xDISPATCHER_CONTEXT@@PEBU_s_FuncInfo@@H@Z@4HA 000000014004c61c     libvcruntimed:frame.obj
 0002:00011624       $unwind$?validate@?$c_string_character_source@D@__crt_strtox@@QEBA_NXZ 000000014004c624     libucrtd:atox.obj
 0002:00011624       $unwind$?validate@?$c_string_character_source@_W@__crt_strtox@@QEBA_NXZ 000000014004c624     libucrtd:atox.obj
 0002:00011624       $unwind$?is_contraction_possible@@YA_N_K@Z 000000014004c624     libucrtd:expand.obj
 0002:00011624       $unwind$_malloc_base       000000014004c624     libucrtd:malloc_base.obj
 0002:00011624       $unwind$?issue_debug_notification@@YA_NQEB_W@Z 000000014004c624     libucrtd:report_runtime_error.obj
 0002:00011624       $unwind$_freea_crt         000000014004c624     libucrtd:getstringtypea.obj
 0002:00011624       $unwind$?GetTableIndexFromLocaleName@@YAHPEB_W@Z 000000014004c624     libucrtd:lcidtoname_downlevel.obj
 0002:00011624       $unwind$__acrt_free_locale 000000014004c624     libucrtd:locale_refcounting.obj
 0002:00011624       $unwind$??R<lambda_5533cddd4bda0037814beee657757329>@@QEBAHXZ 000000014004c624     libucrtd:commit.obj
 0002:00011624       $unwind$__acrt_lowio_destroy_handle_array 000000014004c624     libucrtd:osfinfo.obj
 0002:00011624       $unwind$__acrt_stdio_free_buffer_nolock 000000014004c624     libucrtd:_freebuf.obj
 0002:00011624       $unwind$__acrt_stdio_flush_nolock 000000014004c624     libucrtd:fflush.obj
 0002:00011624       $unwind$_fileno            000000014004c624     libucrtd:fileno.obj
 0002:00011624       $unwind$?state_case_normal@?$output_processor@DV?$string_output_adapter@D@__crt_stdio_output@@V?$format_validation_base@DV?$string_output_adapter@D@__crt_stdio_output@@@2@@__crt_stdio_output@@AEAA_NXZ 000000014004c624     libucrtd:output.obj
 0002:00011624       $unwind$?state_case_normal@?$output_processor@_WV?$string_output_adapter@_W@__crt_stdio_output@@V?$format_validation_base@_WV?$string_output_adapter@_W@__crt_stdio_output@@@2@@__crt_stdio_output@@AEAA_NXZ 000000014004c624     libucrtd:output.obj
 0002:00011624       $unwind$?validate@?$string_output_adapter@D@__crt_stdio_output@@QEBA_NXZ 000000014004c624     libucrtd:output.obj
 0002:00011624       $unwind$?validate@?$string_output_adapter@_W@__crt_stdio_output@@QEBA_NXZ 000000014004c624     libucrtd:output.obj
 0002:00011624       $unwind$?validate_and_update_state_at_end_of_format_string@?$format_validation_base@DV?$string_output_adapter@D@__crt_stdio_output@@@__crt_stdio_output@@IEBA_NXZ 000000014004c624     libucrtd:output.obj
 0002:00011624       $unwind$?validate_and_update_state_at_end_of_format_string@?$format_validation_base@_WV?$string_output_adapter@_W@__crt_stdio_output@@@__crt_stdio_output@@IEBA_NXZ 000000014004c624     libucrtd:output.obj
 0002:00011624       $unwind$_onexit            000000014004c624     LIBCMTD:utility.obj
 0002:00011624       $unwind$__FrameUnwindFilter 000000014004c624     libvcruntimed:ehhelpers.obj
 0002:00011624       $unwind$?Is_bad_exception_allowed@@YAEPEBU_s_ESTypeList@@@Z 000000014004c624     libvcruntimed:frame.obj
 0002:00011624       $unwind$__vcrt_FlsAlloc    000000014004c624     libvcruntimed:winapi_downlevel.obj
 0002:0001162c       $unwind$__scrt_is_nonwritable_in_current_image 000000014004c62c     LIBCMTD:utility.obj
 0002:0001164c       $unwind$?internal_getptd_noexit@@YAPEAU__acrt_ptd@@XZ 000000014004c64c     libucrtd:per_thread_data.obj
 0002:0001164c       $unwind$?initialize_stdio_handles_nolock@@YAXXZ 000000014004c64c     libucrtd:ioinit.obj
 0002:0001164c       $unwind$__acrt_initialize_fmode 000000014004c64c     libucrtd:txtmode.obj
 0002:0001164c       $unwind$??$common_wincmdln@E@@YAPEAEXZ 000000014004c64c     libucrtd:argv_winmain.obj
 0002:0001164c       $unwind$__scrt_acquire_startup_lock 000000014004c64c     LIBCMTD:utility.obj
 0002:00011654       $unwind$__ascii_towupper   000000014004c654     libucrtd:atox.obj
 0002:00011654       $unwind$__acrt_uninitialize 000000014004c654     libucrtd:initialization.obj
 0002:00011654       $unwind$report_memory_leaks 000000014004c654     libucrtd:initialization.obj
 0002:00011654       $unwind$uninitialize_allocated_io_buffers 000000014004c654     libucrtd:initialization.obj
 0002:00011654       $unwind$uninitialize_environment 000000014004c654     libucrtd:initialization.obj
 0002:00011654       $unwind$uninitialize_vcruntime 000000014004c654     libucrtd:initialization.obj
 0002:00011654       $unwind$__acrt_lock        000000014004c654     libucrtd:locks.obj
 0002:00011654       $unwind$__acrt_unlock      000000014004c654     libucrtd:locks.obj
 0002:00011654       $unwind$__acrt_uninitialize_ptd 000000014004c654     libucrtd:per_thread_data.obj
 0002:00011654       $unwind$__ascii_towlower   000000014004c654     libucrtd:wsetlocale.obj
 0002:00011654       $unwind$__acrt_lowio_lock_fh 000000014004c654     libucrtd:osfinfo.obj
 0002:00011654       $unwind$__acrt_lowio_unlock_fh 000000014004c654     libucrtd:osfinfo.obj
 0002:00011654       $unwind$?do_locale_initialization@@YAXD@Z 000000014004c654     libucrtd:argv_parsing.obj
 0002:00011654       $unwind$_configure_narrow_argv 000000014004c654     libucrtd:argv_parsing.obj
 0002:00011654       $unwind$?do_locale_initialization@@YAXE@Z 000000014004c654     libucrtd:argv_winmain.obj
 0002:00011654       $unwind$?exit_or_terminate_process@@YAXI@Z 000000014004c654     libucrtd:exit.obj
 0002:00011654       $unwind$_exit              000000014004c654     libucrtd:exit.obj
 0002:00011654       $unwind$exit               000000014004c654     libucrtd:exit.obj
 0002:00011654       $unwind$?is_stream_flushable_or_commitable@@YA_NJ@Z 000000014004c654     libucrtd:fflush.obj
 0002:00011654       $unwind$??$to_abstract_status@W4__acrt_fenv_machine_sse_status@@@@YA?AW4__acrt_fenv_abstract_status@@W4__acrt_fenv_machine_sse_status@@@Z 000000014004c654     libucrtd:_fenvutils.obj
 0002:00011654       $unwind$?__acrt_fenv_shift_abstract_sse_status@@YA?AW4__acrt_fenv_abstract_status@@W41@@Z 000000014004c654     libucrtd:_fenvutils.obj
 0002:00011654       $unwind$?__acrt_fenv_unshift_abstract_sse_status@@YA?AW4__acrt_fenv_abstract_status@@W41@@Z 000000014004c654     libucrtd:_fenvutils.obj
 0002:00011654       $unwind$?to_machine_sse_status@@YA?AW4__acrt_fenv_machine_sse_status@@W4__acrt_fenv_abstract_status@@@Z 000000014004c654     libucrtd:_fenvutils.obj
 0002:00011654       $unwind$__acrt_fenv_get_common_round_control 000000014004c654     libucrtd:_fenvutils.obj
 0002:00011654       $unwind$__acrt_fenv_set_control 000000014004c654     libucrtd:_fenvutils.obj
 0002:00011654       $unwind$__acrt_fenv_set_status 000000014004c654     libucrtd:_fenvutils.obj
 0002:00011654       $unwind$__report_securityfailure 000000014004c654     LIBCMTD:gs_report.obj
 0002:00011654       $unwind$__scrt_initialize_crt 000000014004c654     LIBCMTD:utility.obj
 0002:00011654       $unwind$__scrt_release_startup_lock 000000014004c654     LIBCMTD:utility.obj
 0002:00011654       $unwind$__vcrt_uninitialize 000000014004c654     libvcruntimed:initialization.obj
 0002:0001165c       $unwind$??$is_overflow_condition@K@__crt_strtox@@YA_NIK@Z 000000014004c65c     libucrtd:atox.obj
 0002:0001165c       $unwind$_control87         000000014004c65c     libucrtd:ieee.obj
 0002:0001165c       $unwind$__scrt_uninitialize_crt 000000014004c65c     LIBCMTD:utility.obj
 0002:00011664       $unwind$__scrt_initialize_onexit_tables 000000014004c664     LIBCMTD:utility.obj
 0002:00011670       $unwind$?is_space@__crt_strtox@@YA_N_WPEAU__crt_locale_pointers@@@Z 000000014004c670     libucrtd:atox.obj
 0002:00011670       $unwind$??0big_integer@__crt_strtox@@QEAA@AEBU01@@Z 000000014004c670     libucrtd:cfout.obj
 0002:00011670       $unwind$??4big_integer@__crt_strtox@@QEAAAEAU01@AEBU01@@Z 000000014004c670     libucrtd:cfout.obj
 0002:00011670       $unwind$??9__crt_strtox@@YA_NAEBUbig_integer@0@0@Z 000000014004c670     libucrtd:cfout.obj
 0002:00011670       $unwind$iswctype           000000014004c670     libucrtd:iswctype.obj
 0002:00011670       $unwind$_realloc_base      000000014004c670     libucrtd:realloc_base.obj
 0002:00011670       $unwind$?allocate@?$__crt_win32_buffer@DU__crt_win32_buffer_no_resizing@@@@QEAAH_K@Z 000000014004c670     libucrtd:getmodulefilenamea.obj
 0002:00011670       $unwind$??$uninitialize@V<lambda_af27fe6ede5d83bbdbd622796c194e9c>@@@?$dual_state_global@PEAU__crt_multibyte_data@@@__crt_state_management@@QEAAX$$QEAV<lambda_af27fe6ede5d83bbdbd622796c194e9c>@@@Z 000000014004c670     libucrtd:initialization.obj
 0002:00011670       $unwind$__acrt_execute_uninitializers 000000014004c670     libucrtd:shared_initialization.obj
 0002:00011670       $unwind$?try_get_first_available_module@@YAPEAUHINSTANCE__@@QEBW4module_id@?A0x391cf84c@@0@Z 000000014004c670     libucrtd:winapi_thunks.obj
 0002:00011670       $unwind$?free_crt_array_internal@@YAXQEAPEBX_K@Z 000000014004c670     libucrtd:inittime.obj
 0002:00011670       $unwind$_updatetlocinfoEx_nolock 000000014004c670     libucrtd:locale_refcounting.obj
 0002:00011670       $unwind$??$uninitialize@V<lambda_363eea9039da1e8169e2d060c7fe5cbc>@@@?$dual_state_global@PEAU__crt_locale_data@@@__crt_state_management@@QEAAX$$QEAV<lambda_363eea9039da1e8169e2d060c7fe5cbc>@@@Z 000000014004c670     libucrtd:wsetlocale.obj
 0002:00011670       $unwind$??$initialize_from_array@$$BY10BAA@E@?$dual_state_global@PEAE@__crt_state_management@@QEAAXAEAY10BAA@E@Z 000000014004c670     libucrtd:mbctype.obj
 0002:00011670       $unwind$??$initialize_from_array@$$BY10BAB@E@?$dual_state_global@PEAE@__crt_state_management@@QEAAXAEAY10BAB@E@Z 000000014004c670     libucrtd:mbctype.obj
 0002:00011670       $unwind$??$initialize_from_array@$$BY00Q6AXPEB_W00I_K@Z@?$dual_state_global@P6AXPEB_W00I_K@Z@__crt_state_management@@QEAAXAEAY00Q6AXPEB_W00I_K@Z@Z 000000014004c670     libucrtd:invalid_parameter.obj
 0002:00011670       $unwind$?allocate@?$__crt_win32_buffer@DU__crt_win32_buffer_internal_dynamic_resizing@@@@QEAAH_K@Z 000000014004c670     libucrtd:argv_wildcards.obj
 0002:00011670       $unwind$?allocate@?$__crt_win32_buffer@_WU__crt_win32_buffer_internal_dynamic_resizing@@@@QEAAH_K@Z 000000014004c670     libucrtd:argv_wildcards.obj
 0002:00011670       $unwind$?append@?$argument_list@D@?A0x5f5c8891@@QEAAHQEAD@Z 000000014004c670     libucrtd:argv_wildcards.obj
 0002:00011670       $unwind$?get_file_name@@YAPEADQEAV?$__crt_win32_buffer@DU__crt_win32_buffer_internal_dynamic_resizing@@@@QEA_W@Z 000000014004c670     libucrtd:argv_wildcards.obj
 0002:00011670       $unwind$?get_wide@@YAPEA_WQEAV?$__crt_win32_buffer@_WU__crt_win32_buffer_internal_dynamic_resizing@@@@QEAD@Z 000000014004c670     libucrtd:argv_wildcards.obj
 0002:00011670       $unwind$_initterm          000000014004c670     libucrtd:initterm.obj
 0002:00011670       $unwind$?common_flush_all_should_try_to_flush_stream@@YA_NV__crt_stdio_stream@@QEAH@Z 000000014004c670     libucrtd:fflush.obj
 0002:00011670       $unwind$??$extract_argument_from_va_list@U_CRT_DOUBLE@@U1@@?$standard_base@DV?$string_output_adapter@D@__crt_stdio_output@@@__crt_stdio_output@@IEAA_NAEAU_CRT_DOUBLE@@@Z 000000014004c670     libucrtd:output.obj
 0002:00011670       $unwind$??$extract_argument_from_va_list@U_CRT_DOUBLE@@U1@@?$standard_base@_WV?$string_output_adapter@_W@__crt_stdio_output@@@__crt_stdio_output@@IEAA_NAEAU_CRT_DOUBLE@@@Z 000000014004c670     libucrtd:output.obj
 0002:00011670       $unwind$?force_decimal_point@__crt_stdio_output@@YAXPEADQEAU__crt_locale_pointers@@@Z 000000014004c670     libucrtd:output.obj
 0002:00011670       $unwind$?type_case_c_tchar@?$output_processor@_WV?$string_output_adapter@_W@__crt_stdio_output@@V?$format_validation_base@_WV?$string_output_adapter@_W@__crt_stdio_output@@@2@@__crt_stdio_output@@AEAA_N_W@Z 000000014004c670     libucrtd:output.obj
 0002:00011670       $unwind$??$common_strnlen_c@$00G@@YA_KQEBG_K@Z 000000014004c670     libucrtd:strnlen.obj
 0002:00011670       $unwind$??$common_strnlen_c@$0A@E@@YA_KQEBE_K@Z 000000014004c670     libucrtd:strnlen.obj
 0002:00011670       $unwind$??$common_strnlen_c@$0A@G@@YA_KQEBG_K@Z 000000014004c670     libucrtd:strnlen.obj
 0002:00011670       $unwind$?find_pe_section@@YAPEAU_IMAGE_SECTION_HEADER@@QEAE_K@Z 000000014004c670     LIBCMTD:utility.obj
 0002:00011670       $unwind$?_CallMemberFunction0@@YAXQEAX0@Z 000000014004c670     libvcruntimed:ehhelpers.obj
 0002:00011670       $unwind$?StateFromControlPc@__FrameHandler3@@SAHPEBU_s_FuncInfo@@PEAU_xDISPATCHER_CONTEXT@@@Z 000000014004c670     libvcruntimed:ehstate.obj
 0002:00011670       $unwind$??8type_info@@QEBA_NAEBV0@@Z 000000014004c670     libvcruntimed:frame.obj
 0002:00011670       $unwind$??9iterator@HandlerMap@__FrameHandler3@@QEBA_NAEBV012@@Z 000000014004c670     libvcruntimed:frame.obj
 0002:00011670       $unwind$?ExecutionInCatch@__FrameHandler3@@SA_NPEAU_xDISPATCHER_CONTEXT@@PEBU_s_FuncInfo@@@Z 000000014004c670     libvcruntimed:risctrnsctrl.obj
 0002:00011670       $unwind$_CreateFrameInfo   000000014004c670     libvcruntimed:risctrnsctrl.obj
 0002:00011670       $unwind$?try_get_first_available_module@@YAPEAUHINSTANCE__@@QEBW4module_id@?A0x61a31dd3@@0@Z 000000014004c670     libvcruntimed:winapi_downlevel.obj
 0002:00011678       $unwind$__get_entropy      000000014004c678     LIBCMTD:gs_support.obj
 0002:00011680       $unwind$__acrt_locale_changed 000000014004c680     libucrtd:debug_heap.obj
 0002:00011680       $unwind$_get_printf_count_output 000000014004c680     libucrtd:printf_count_output.obj
 0002:00011680       $unwind$?get_zero_pack@?$__crt_simd_pack_traits@$0A@@@SA?AT__m128i@@XZ 000000014004c680     libucrtd:strnlen.obj
 0002:00011680       $unwind$__scrt_is_user_matherr_present 000000014004c680     LIBCMTD:matherr_detection.obj
 0002:00011680       $unwind$__scrt_is_ucrt_dll_in_use 000000014004c680     LIBCMTD:ucrt_detection.obj
 0002:00011688       $unwind$__scrt_get_show_window_mode 000000014004c688     LIBCMTD:utility_desktop.obj
 0002:00011694       $unwind$__scrt_fastfail    000000014004c694     LIBCMTD:utility_desktop.obj
 0002:000116a0       $unwind$??$common_initialize_environment_nolock@D@@YAHXZ 000000014004c6a0     libucrtd:environment_initialization.obj
 0002:000116a0       $unwind$_RTC_Initialize    000000014004c6a0     LIBCMTD:initsect.obj
 0002:000116a0       $unwind$_RTC_Terminate     000000014004c6a0     LIBCMTD:initsect.obj
 0002:000116ac       $unwind$__isa_available_init 000000014004c6ac     LIBCMTD:cpu_disp.obj
 0002:000116c0       $xdatasym                  000000014004c6c0     LIBCMTD:guard_dispatch.obj
 0002:000116c8       $xdatasym                  000000014004c6c8     LIBCMTD:guard_xfg_dispatch.obj
 0002:000116cc       $unwind$__ascii_wcsnicmp   000000014004c6cc     libucrtd:wcsnicmp.obj
 0002:000116cc       $unwind$__GSHandlerCheckCommon 000000014004c6cc     LIBCMTD:gshandler.obj
 0002:000116d4       $unwind$?shift_bytes@@YAXQEAD_K0H@Z 000000014004c6d4     libucrtd:cvt.obj
 0002:000116d4       $unwind$??$message_box@$$TAEBQEB_WAEBQEB_WK@?$__crt_char_traits@_W@@SAH$$QEA$$TAEBQEB_W1$$QEAK@Z 000000014004c6d4     libucrtd:crtmbox.obj
 0002:000116d4       $unwind$??$message_box@PEAUHWND__@@AEBQEB_WAEBQEB_WAEBI@?$__crt_char_traits@_W@@SAH$$QEAPEAUHWND__@@AEBQEB_W1AEBI@Z 000000014004c6d4     libucrtd:crtmbox.obj
 0002:000116d4       $unwind$_invoke_watson     000000014004c6d4     libucrtd:invalid_parameter.obj
 0002:000116d4       $unwind$??$tcsncpy_s@AEAPEAD_KAEAPEADAEB_K@?$__crt_char_traits@D@@SAHAEAPEAD$$QEA_K0AEB_K@Z 000000014004c6d4     libucrtd:argv_wildcards.obj
 0002:000116d4       $unwind$??$tcsncpy_s@PEADAEB_KAEBQEBDAEB_K@?$__crt_char_traits@D@@SAH$$QEAPEADAEB_KAEBQEBD1@Z 000000014004c6d4     libucrtd:argv_wildcards.obj
 0002:000116d4       $unwind$??$tcsncpy_s@PEAD_KAEBQEBDAEB_K@?$__crt_char_traits@D@@SAH$$QEAPEAD$$QEA_KAEBQEBDAEB_K@Z 000000014004c6d4     libucrtd:argv_wildcards.obj
 0002:000116d4       $unwind$??0?$output_adapter_data@DV?$string_output_adapter@D@__crt_stdio_output@@@__crt_stdio_output@@IEAA@AEBV?$string_output_adapter@D@1@_KQEBDQEAU__crt_locale_pointers@@QEAD@Z 000000014004c6d4     libucrtd:output.obj
 0002:000116d4       $unwind$??0?$output_adapter_data@_WV?$string_output_adapter@_W@__crt_stdio_output@@@__crt_stdio_output@@IEAA@AEBV?$string_output_adapter@_W@1@_KQEB_WQEAU__crt_locale_pointers@@QEAD@Z 000000014004c6d4     libucrtd:output.obj
 0002:000116d4       $unwind$strncpy_s          000000014004c6d4     libucrtd:strncpy_s.obj
 0002:000116d4       $unwind$wcsncpy_s          000000014004c6d4     libucrtd:wcsncpy_s.obj
 0002:000116d4       $unwind$__GSHandlerCheck   000000014004c6d4     LIBCMTD:gshandler.obj
 0002:000116d4       $unwind$?BuildCatchObject@__FrameHandler3@@SAXPEAUEHExceptionRecord@@PEAXPEBU_s_HandlerType@@PEBU_s_CatchableType@@@Z 000000014004c6d4     libvcruntimed:frame.obj
 0002:000116e0       $xdatasym                  000000014004c6e0     LIBCMTD:amdsecgs.obj
 0002:000116e4       $unwind$?capture_current_context@@YAXQEAU_CONTEXT@@@Z 000000014004c6e4     libucrtd:invalid_parameter.obj
 0002:000116e4       $unwind$capture_current_context 000000014004c6e4     LIBCMTD:gs_report.obj
 0002:000116e4       $unwind$capture_previous_context 000000014004c6e4     LIBCMTD:gs_report.obj
 0002:000116ec       $unwind$??$parse_integer@KV?$c_string_character_source@D@__crt_strtox@@@__crt_strtox@@YAKQEAU__crt_locale_pointers@@V?$c_string_character_source@D@0@H_N@Z 000000014004c6ec     libucrtd:atox.obj
 0002:000116ec       $unwind$??$parse_integer@KV?$c_string_character_source@_W@__crt_strtox@@@__crt_strtox@@YAKQEAU__crt_locale_pointers@@V?$c_string_character_source@_W@0@H_N@Z 000000014004c6ec     libucrtd:atox.obj
 0002:000116ec       $unwind$?fp_format_e@@YAHQEBNQEAD_K12H_NIQEAU__crt_locale_pointers@@W4__acrt_rounding_mode@@@Z 000000014004c6ec     libucrtd:cvt.obj
 0002:000116ec       $unwind$_wcstombs_s_l      000000014004c6ec     libucrtd:wcstombs.obj
 0002:000116ec       $unwind$??$__InternalCxxFrameHandler@V__FrameHandler3@@@@YA?AW4_EXCEPTION_DISPOSITION@@PEAUEHExceptionRecord@@PEA_KPEAU_CONTEXT@@PEAU_xDISPATCHER_CONTEXT@@PEBU_s_FuncInfo@@H1E@Z 000000014004c6ec     libvcruntimed:frame.obj
 0002:000116ec       $unwind$__C_specific_handler 000000014004c6ec     libvcruntimed:riscchandler.obj
 0002:000116f4       $unwind$??R<lambda_af27fe6ede5d83bbdbd622796c194e9c>@@QEBAXAEAPEAU__crt_multibyte_data@@@Z 000000014004c6f4     libucrtd:initialization.obj
 0002:000116f4       $unwind$??$?RU__acrt_ptd@@@__crt_internal_free_policy@@QEBAXQEBU__acrt_ptd@@@Z 000000014004c6f4     libucrtd:per_thread_data.obj
 0002:000116f4       $unwind$?replace_current_thread_locale_nolock@@YAXQEAU__acrt_ptd@@QEAU__crt_locale_data@@@Z 000000014004c6f4     libucrtd:per_thread_data.obj
 0002:000116f4       $unwind$__acrt_update_locale_info 000000014004c6f4     libucrtd:locale_update.obj
 0002:000116f4       $unwind$__acrt_update_multibyte_info 000000014004c6f4     libucrtd:locale_update.obj
 0002:000116f4       $unwind$??$?RU__crt_multibyte_data@@@__crt_internal_free_policy@@QEBAXQEBU__crt_multibyte_data@@@Z 000000014004c6f4     libucrtd:wsetlocale.obj
 0002:000116f4       $unwind$??R<lambda_363eea9039da1e8169e2d060c7fe5cbc>@@QEBAXAEAPEAU__crt_locale_data@@@Z 000000014004c6f4     libucrtd:wsetlocale.obj
 0002:000116f4       $unwind$??$?RU__crt_lowio_handle_data@@@__crt_internal_free_policy@@QEBAXQEBU__crt_lowio_handle_data@@@Z 000000014004c6f4     libucrtd:osfinfo.obj
 0002:000116f4       $unwind$??$?RE@__crt_internal_free_policy@@QEBAXQEBE@Z 000000014004c6f4     libucrtd:argv_parsing.obj
 0002:000116f4       $unwind$??$?RPEAD@__crt_internal_free_policy@@QEBAXQEBQEAD@Z 000000014004c6f4     libucrtd:argv_parsing.obj
 0002:000116f4       $unwind$?expand_argv_wildcards@@YAHQEAPEADQEAPEAPEAD@Z 000000014004c6f4     libucrtd:argv_parsing.obj
 0002:000116f4       $unwind$?<lambda_invoker_cdecl>@<lambda_a1ce4c8ae42411fd470c77163914f50e>@@CAHPEBX0@Z 000000014004c6f4     libucrtd:argv_wildcards.obj
 0002:000116f4       $unwind$??$tcspbrk@AEAPEADAEAY02$$CBD@?$__crt_char_traits@D@@SAPEADAEAPEADAEAY02$$CBD@Z 000000014004c6f4     libucrtd:argv_wildcards.obj
 0002:000116f4       $unwind$?deallocate@__crt_win32_buffer_internal_dynamic_resizing@@SAXQEAXAEBV__crt_win32_buffer_empty_debug_info@@@Z 000000014004c6f4     libucrtd:argv_wildcards.obj
 0002:000116f4       $unwind$?previous_character@@YAPEADQEAD0@Z 000000014004c6f4     libucrtd:argv_wildcards.obj
 0002:000116f4       $unwind$?strpbrk@@YAPEADQEADQEBD@Z 000000014004c6f4     libucrtd:argv_wildcards.obj
 0002:000116f4       $unwind$__acrt_expand_narrow_argv_wildcards 000000014004c6f4     libucrtd:argv_wildcards.obj
 0002:000116f4       $unwind$??$__crt_get_proc_address@P6AXI@Z@@YAP6AXI@ZQEAUHINSTANCE__@@QEBD@Z 000000014004c6f4     libucrtd:exit.obj
 0002:000116f4       $unwind$??$?RP6AXXZ@__crt_internal_free_policy@@QEBAXQEBQ6AXXZ@Z 000000014004c6f4     libucrtd:onexit.obj
 0002:000116f4       $unwind$??$?RPEAU__crt_stdio_stream_data@@@__crt_internal_free_policy@@QEBAXQEBQEAU__crt_stdio_stream_data@@@Z 000000014004c6f4     libucrtd:_file.obj
 0002:000116f4       $unwind$??$extract_argument_from_va_list@C_J@?$standard_base@DV?$string_output_adapter@D@__crt_stdio_output@@@__crt_stdio_output@@IEAA_NAEA_J@Z 000000014004c6f4     libucrtd:output.obj
 0002:000116f4       $unwind$??$extract_argument_from_va_list@C_J@?$standard_base@_WV?$string_output_adapter@_W@__crt_stdio_output@@@__crt_stdio_output@@IEAA_NAEA_J@Z 000000014004c6f4     libucrtd:output.obj
 0002:000116f4       $unwind$??$extract_argument_from_va_list@E_J@?$standard_base@DV?$string_output_adapter@D@__crt_stdio_output@@@__crt_stdio_output@@IEAA_NAEA_J@Z 000000014004c6f4     libucrtd:output.obj
 0002:000116f4       $unwind$??$extract_argument_from_va_list@E_J@?$standard_base@_WV?$string_output_adapter@_W@__crt_stdio_output@@@__crt_stdio_output@@IEAA_NAEA_J@Z 000000014004c6f4     libucrtd:output.obj
 0002:000116f4       $unwind$??$extract_argument_from_va_list@F_J@?$standard_base@DV?$string_output_adapter@D@__crt_stdio_output@@@__crt_stdio_output@@IEAA_NAEA_J@Z 000000014004c6f4     libucrtd:output.obj
 0002:000116f4       $unwind$??$extract_argument_from_va_list@F_J@?$standard_base@_WV?$string_output_adapter@_W@__crt_stdio_output@@@__crt_stdio_output@@IEAA_NAEA_J@Z 000000014004c6f4     libucrtd:output.obj
 0002:000116f4       $unwind$??$extract_argument_from_va_list@GD@?$standard_base@DV?$string_output_adapter@D@__crt_stdio_output@@@__crt_stdio_output@@IEAA_NAEAD@Z 000000014004c6f4     libucrtd:output.obj
 0002:000116f4       $unwind$??$extract_argument_from_va_list@G_J@?$standard_base@DV?$string_output_adapter@D@__crt_stdio_output@@@__crt_stdio_output@@IEAA_NAEA_J@Z 000000014004c6f4     libucrtd:output.obj
 0002:000116f4       $unwind$??$extract_argument_from_va_list@G_J@?$standard_base@_WV?$string_output_adapter@_W@__crt_stdio_output@@@__crt_stdio_output@@IEAA_NAEA_J@Z 000000014004c6f4     libucrtd:output.obj
 0002:000116f4       $unwind$??$extract_argument_from_va_list@H_J@?$standard_base@DV?$string_output_adapter@D@__crt_stdio_output@@@__crt_stdio_output@@IEAA_NAEA_J@Z 000000014004c6f4     libucrtd:output.obj
 0002:000116f4       $unwind$??$extract_argument_from_va_list@H_J@?$standard_base@_WV?$string_output_adapter@_W@__crt_stdio_output@@@__crt_stdio_output@@IEAA_NAEA_J@Z 000000014004c6f4     libucrtd:output.obj
 0002:000116f4       $unwind$??$extract_argument_from_va_list@I_J@?$standard_base@DV?$string_output_adapter@D@__crt_stdio_output@@@__crt_stdio_output@@IEAA_NAEA_J@Z 000000014004c6f4     libucrtd:output.obj
 0002:000116f4       $unwind$??$extract_argument_from_va_list@I_J@?$standard_base@_WV?$string_output_adapter@_W@__crt_stdio_output@@@__crt_stdio_output@@IEAA_NAEA_J@Z 000000014004c6f4     libucrtd:output.obj
 0002:000116f4       $unwind$??$extract_argument_from_va_list@PEADPEAD@?$standard_base@DV?$string_output_adapter@D@__crt_stdio_output@@@__crt_stdio_output@@IEAA_NAEAPEAD@Z 000000014004c6f4     libucrtd:output.obj
 0002:000116f4       $unwind$??$extract_argument_from_va_list@PEADPEAD@?$standard_base@_WV?$string_output_adapter@_W@__crt_stdio_output@@@__crt_stdio_output@@IEAA_NAEAPEAD@Z 000000014004c6f4     libucrtd:output.obj
 0002:000116f4       $unwind$??$extract_argument_from_va_list@PEAUansi_string@?1??type_case_Z@?$output_processor@DV?$string_output_adapter@D@__crt_stdio_output@@V?$format_validation_base@DV?$string_output_adapter@D@__crt_stdio_output@@@2@@__crt_stdio_output@@AEAA_NXZ@PEAU1?1??234@AEAA_NXZ@@?$standard_base@DV?$string_output_adapter@D@__crt_stdio_output@@@__crt_stdio_output@@IEAA_NAEAPEAUansi_string@?1??type_case_Z@?$output_processor@DV?$string_output_adapter@D@__crt_stdio_output@@V?$format_validation_base@DV?$string_output_adapter@D@__crt_stdio_output@@@2@@1@AEAA_NXZ@@Z 000000014004c6f4     libucrtd:output.obj
 0002:000116f4       $unwind$??$extract_argument_from_va_list@PEAUansi_string@?1??type_case_Z@?$output_processor@_WV?$string_output_adapter@_W@__crt_stdio_output@@V?$format_validation_base@_WV?$string_output_adapter@_W@__crt_stdio_output@@@2@@__crt_stdio_output@@AEAA_NXZ@PEAU1?1??234@AEAA_NXZ@@?$standard_base@_WV?$string_output_adapter@_W@__crt_stdio_output@@@__crt_stdio_output@@IEAA_NAEAPEAUansi_string@?1??type_case_Z@?$output_processor@_WV?$string_output_adapter@_W@__crt_stdio_output@@V?$format_validation_base@_WV?$string_output_adapter@_W@__crt_stdio_output@@@2@@1@AEAA_NXZ@@Z 000000014004c6f4     libucrtd:output.obj
 0002:000116f4       $unwind$??$extract_argument_from_va_list@PEAXPEAX@?$standard_base@DV?$string_output_adapter@D@__crt_stdio_output@@@__crt_stdio_output@@IEAA_NAEAPEAX@Z 000000014004c6f4     libucrtd:output.obj
 0002:000116f4       $unwind$??$extract_argument_from_va_list@PEAXPEAX@?$standard_base@_WV?$string_output_adapter@_W@__crt_stdio_output@@@__crt_stdio_output@@IEAA_NAEAPEAX@Z 000000014004c6f4     libucrtd:output.obj
 0002:000116f4       $unwind$??$extract_argument_from_va_list@_J_J@?$standard_base@DV?$string_output_adapter@D@__crt_stdio_output@@@__crt_stdio_output@@IEAA_NAEA_J@Z 000000014004c6f4     libucrtd:output.obj
 0002:000116f4       $unwind$??$extract_argument_from_va_list@_J_J@?$standard_base@_WV?$string_output_adapter@_W@__crt_stdio_output@@@__crt_stdio_output@@IEAA_NAEA_J@Z 000000014004c6f4     libucrtd:output.obj
 0002:000116f4       $unwind$??$extract_argument_from_va_list@_K_J@?$standard_base@DV?$string_output_adapter@D@__crt_stdio_output@@@__crt_stdio_output@@IEAA_NAEA_J@Z 000000014004c6f4     libucrtd:output.obj
 0002:000116f4       $unwind$??$extract_argument_from_va_list@_K_J@?$standard_base@_WV?$string_output_adapter@_W@__crt_stdio_output@@@__crt_stdio_output@@IEAA_NAEA_J@Z 000000014004c6f4     libucrtd:output.obj
 0002:000116f4       $unwind$??$extract_argument_from_va_list@_W_W@?$standard_base@DV?$string_output_adapter@D@__crt_stdio_output@@@__crt_stdio_output@@IEAA_NAEA_W@Z 000000014004c6f4     libucrtd:output.obj
 0002:000116f4       $unwind$??$extract_argument_from_va_list@_W_W@?$standard_base@_WV?$string_output_adapter@_W@__crt_stdio_output@@@__crt_stdio_output@@IEAA_NAEA_W@Z 000000014004c6f4     libucrtd:output.obj
 0002:000116f4       $unwind$??4?$__crt_unique_heap_ptr@DU__crt_internal_free_policy@@@@QEAAAEAV0@$$QEAV0@@Z 000000014004c6f4     libucrtd:output.obj
 0002:000116f4       $unwind$?crop_zeroes@__crt_stdio_output@@YAXPEADQEAU__crt_locale_pointers@@@Z 000000014004c6f4     libucrtd:output.obj
 0002:000116f4       $unwind$??$common_strnlen@$00G@@YA_KQEBG_K@Z 000000014004c6f4     libucrtd:strnlen.obj
 0002:000116f4       $unwind$??$common_strnlen@$0A@E@@YA_KQEBE_K@Z 000000014004c6f4     libucrtd:strnlen.obj
 0002:000116f4       $unwind$??$common_strnlen@$0A@G@@YA_KQEBG_K@Z 000000014004c6f4     libucrtd:strnlen.obj
 0002:000116f4       $unwind$strnlen            000000014004c6f4     libucrtd:strnlen.obj
 0002:000116f4       $unwind$wcsnlen            000000014004c6f4     libucrtd:strnlen.obj
 0002:000116f4       $unwind$??3@YAXPEAX_K@Z    000000014004c6f4     LIBCMTD:delete_scalar_size.obj
 0002:000116f4       $unwind$_FindPESection     000000014004c6f4     LIBCMTD:pesect.obj
 0002:000116f4       $unwind$??0bad_exception@std@@QEAA@AEBV01@@Z 000000014004c6f4     libvcruntimed:frame.obj
 0002:000116f4       $unwind$?begin@HandlerMap@__FrameHandler3@@QEAA?AViterator@12@XZ 000000014004c6f4     libvcruntimed:frame.obj
 0002:000116f4       $unwind$?end@HandlerMap@__FrameHandler3@@QEAA?AViterator@12@XZ 000000014004c6f4     libvcruntimed:frame.obj
 0002:000116f4       $unwind$??$?RU__vcrt_ptd@@@__crt_internal_free_policy@@QEBAXQEBU__vcrt_ptd@@@Z 000000014004c6f4     libvcruntimed:per_thread_data.obj
 0002:000116f4       $unwind$??$?RD@__crt_public_free_policy@@QEBAXQEBD@Z 000000014004c6f4     libvcruntimed:std_exception.obj
 0002:000116f4       $unwind$??$?RD@__crt_internal_free_policy@@QEBAXQEBD@Z 000000014004c6f4     libvcruntimed:std_type_info.obj
 0002:000116f4       $unwind$__std_type_info_compare 000000014004c6f4     libvcruntimed:std_type_info.obj
 0002:000116fc       $unwind$?store_first_surrogate@?A0xc60ee810@@YAX_SPEAU_Mbstatet@@@Z 000000014004c6fc     libucrtd:c16rtomb.obj
 0002:000116fc       $unwind$??8__crt_strtox@@YA_NAEBUbig_integer@0@0@Z 000000014004c6fc     libucrtd:cfout.obj
 0002:000116fc       $unwind$?wcsncnt@@YA_KPEB_W_K@Z 000000014004c6fc     libucrtd:wcstombs.obj
 0002:000116fc       $unwind$?initialize@?$dual_state_global@P6AH_K@Z@__crt_state_management@@QEAAXQ6AH_K@Z@Z 000000014004c6fc     libucrtd:new_handler.obj
 0002:000116fc       $unwind$?initialize@?$dual_state_global@PEAU__crt_locale_data@@@__crt_state_management@@QEAAXQEAU__crt_locale_data@@@Z 000000014004c6fc     libucrtd:initialization.obj
 0002:000116fc       $unwind$?initialize@?$dual_state_global@PEAU__crt_multibyte_data@@@__crt_state_management@@QEAAXQEAU__crt_multibyte_data@@@Z 000000014004c6fc     libucrtd:mbctype.obj
 0002:000116fc       $unwind$?initialize@?$dual_state_global@P6AXH@Z@__crt_state_management@@QEAAXQ6AXH@Z@Z 000000014004c6fc     libucrtd:signal.obj
 0002:000116fc       $unwind$__strncnt          000000014004c6fc     libucrtd:strncnt.obj
 0002:000116fc       $unwind$??$last_reached@$0A@@@YA_NQEBX0@Z 000000014004c6fc     libucrtd:strnlen.obj
 0002:000116fc       $unwind$?compare_equals@?$__crt_simd_traits@$0A@E@@SA?AT__m128i@@T2@0@Z 000000014004c6fc     libucrtd:strnlen.obj
 0002:000116fc       $unwind$?compare_equals@?$__crt_simd_traits@$0A@G@@SA?AT__m128i@@T2@0@Z 000000014004c6fc     libucrtd:strnlen.obj
 0002:000116fc       $unwind$?initialize@?$dual_state_global@P6AHPEAU_exception@@@Z@__crt_state_management@@QEAAXQ6AHPEAU_exception@@@Z@Z 000000014004c6fc     libucrtd:matherr.obj
 0002:000116fc       $unwind$__AdjustPointer    000000014004c6fc     libvcruntimed:ehhelpers.obj
 0002:000116fc       $unwind$??8iterator@HandlerMap@__FrameHandler3@@QEBA_NAEBV012@@Z 000000014004c6fc     libvcruntimed:frame.obj
 0002:000116fc       $unwind$??Miterator@TryBlockMap@__FrameHandler3@@QEBA_NAEBV012@@Z 000000014004c6fc     libvcruntimed:frame.obj
 0002:00011704       $unwind$__DestructExceptionObject 000000014004c704     libvcruntimed:ehhelpers.obj
 0002:00011724       $unwind$?is_space@__crt_strtox@@YA_NDQEAU__crt_locale_pointers@@@Z 000000014004c724     libucrtd:atox.obj
 0002:00011724       $unwind$__acrt_FlsSetValue 000000014004c724     libucrtd:winapi_thunks.obj
 0002:00011724       $unwind$__acrt_LocaleNameToLCID 000000014004c724     libucrtd:winapi_thunks.obj
 0002:00011724       $unwind$?has_any_of@__crt_stdio_stream@@QEBA_NJ@Z 000000014004c724     libucrtd:_sftbuf.obj
 0002:00011724       $unwind$?has_all_of@__crt_stdio_stream@@QEBA_NJ@Z 000000014004c724     libucrtd:fflush.obj
 0002:00011724       $unwind$_exception_enabled 000000014004c724     libucrtd:libm_error.obj
 0002:00011724       $unwind$?_FilterSetCurrentException@@YAKPEAU_EXCEPTION_POINTERS@@E@Z 000000014004c724     libvcruntimed:ehhelpers.obj
 0002:00011724       $unwind$?CatchTryBlock@__FrameHandler3@@SAPEBU_s_TryBlockMapEntry@@PEBU_s_FuncInfo@@H@Z 000000014004c724     libvcruntimed:risctrnsctrl.obj
 0002:00011730       $xdatasym                  000000014004c730     libvcruntimed:notify.obj
 0002:0001173c       $unwind$__vcrt_getptd_noexit 000000014004c73c     libvcruntimed:per_thread_data.obj
 0002:00011744       $unwind$memcpy_s           000000014004c744     libucrtd:cfout.obj
 0002:00011744       $unwind$??$parse_integer_from_string@JDPEAPEAD@__crt_strtox@@YAJQEBDQEAPEADHQEAU__crt_locale_pointers@@@Z 000000014004c744     libucrtd:strtox.obj
 0002:00011744       $unwind$??$parse_integer_from_string@J_WPEAPEA_W@__crt_strtox@@YAJQEB_WQEAPEA_WHQEAU__crt_locale_pointers@@@Z 000000014004c744     libucrtd:strtox.obj
 0002:00011744       $unwind$__acrt_MessageBoxW 000000014004c744     libucrtd:winapi_thunks.obj
 0002:00011744       $unwind$memcpy_s           000000014004c744     libucrtd:mbctype.obj
 0002:00011744       $unwind$_snwprintf_s       000000014004c744     libucrtd:dbgrpt.obj
 0002:00011744       $unwind$_snprintf_s        000000014004c744     libucrtd:dbgrptt.obj
 0002:00011744       $unwind$??$parse_command_line@D@@YAXPEADPEAPEAD0PEA_K2@Z 000000014004c744     libucrtd:argv_parsing.obj
 0002:00011744       $unwind$?write_string@?$string_output_adapter@D@__crt_stdio_output@@QEBAXQEBDHQEAHAEAV__crt_deferred_errno_cache@@@Z 000000014004c744     libucrtd:output.obj
 0002:00011744       $unwind$?write_string@?$string_output_adapter@_W@__crt_stdio_output@@QEBAXQEB_WHQEAHAEAV__crt_deferred_errno_cache@@@Z 000000014004c744     libucrtd:output.obj
 0002:00011744       $unwind$__stdio_common_vsnprintf_s 000000014004c744     libucrtd:output.obj
 0002:00011744       $unwind$__stdio_common_vsnwprintf_s 000000014004c744     libucrtd:output.obj
 0002:00011744       $unwind$_raise_exc         000000014004c744     libucrtd:fpexcept.obj
 0002:00011744       $unwind$__GSHandlerCheck_EH 000000014004c744     LIBCMTD:gshandlereh.obj
 0002:00011744       $unwind$__GSHandlerCheck_SEH 000000014004c744     LIBCMTD:gshandlerseh.obj
 0002:00011744       $unwind$_vsprintf_s_l      000000014004c744     libvcruntimed:undname.obj
 0002:00011744       $unwind$sprintf_s          000000014004c744     libvcruntimed:undname.obj
 0002:0001174c       $unwind$_set_new_mode      000000014004c74c     libucrtd:new_mode.obj
 0002:0001174c       $unwind$??$get_cached_win_policy@Udeveloper_information_policy_properties@?1??__acrt_get_developer_information_policy@@YA?AW4developer_information_policy@@XZ@@@YA?AW4developer_information_policy@@W4AppPolicyShowDeveloperDiagnostic@@@Z 000000014004c74c     libucrtd:win_policies.obj
 0002:0001174c       $unwind$??$get_cached_win_policy@Uwindowing_model_policy_properties@?1??__acrt_get_windowing_model_policy@@YA?AW4windowing_model_policy@@XZ@@@YA?AW4windowing_model_policy@@W4AppPolicyWindowingModel@@@Z 000000014004c74c     libucrtd:win_policies.obj
 0002:0001174c       $unwind$__acrt_uninitialize_winapi_thunks 000000014004c74c     libucrtd:winapi_thunks.obj
 0002:0001174c       $unwind$_isatty            000000014004c74c     libucrtd:isatty.obj
 0002:0001174c       $unwind$_get_osfhandle     000000014004c74c     libucrtd:osfinfo.obj
 0002:0001174c       $unwind$_set_fmode         000000014004c74c     libucrtd:setmode.obj
 0002:0001174c       $unwind$?write_requires_double_translation_nolock@@YA_NH@Z 000000014004c74c     libucrtd:write.obj
 0002:0001174c       $unwind$_set_error_mode    000000014004c74c     libucrtd:set_error_mode.obj
 0002:0001174c       $unwind$?try_cor_exit_process@@YAXI@Z 000000014004c74c     libucrtd:exit.obj
 0002:0001174c       $unwind$__vcrt_FlsFree     000000014004c74c     libvcruntimed:winapi_downlevel.obj
 0002:0001174c       $unwind$__vcrt_FlsGetValue 000000014004c74c     libvcruntimed:winapi_downlevel.obj
 0002:00011754       $unwind$?unget@?$c_string_character_source@D@__crt_strtox@@QEAAXD@Z 000000014004c754     libucrtd:atox.obj
 0002:00011754       $unwind$??$__acrt_lock_and_call@V<lambda_8d0ee55de4b1038c4002e0adecdf1839>@@@@YAXW4__acrt_lock_id@@$$QEAV<lambda_8d0ee55de4b1038c4002e0adecdf1839>@@@Z 000000014004c754     libucrtd:per_thread_data.obj
 0002:00011754       $unwind$??$__acrt_lock_and_call@V<lambda_8f455de75cd7d7f24b4096f044d8b9e6>@@@@YAXW4__acrt_lock_id@@$$QEAV<lambda_8f455de75cd7d7f24b4096f044d8b9e6>@@@Z 000000014004c754     libucrtd:per_thread_data.obj
 0002:00011754       $unwind$??$__acrt_lock_and_call@V<lambda_92619d2358a28f41a33ba319515a20b9>@@@@YAXW4__acrt_lock_id@@$$QEAV<lambda_92619d2358a28f41a33ba319515a20b9>@@@Z 000000014004c754     libucrtd:per_thread_data.obj
 0002:00011754       $unwind$??$__acrt_lock_and_call@V<lambda_e157831efee4ea0afb0a2ace5dd5fd0d>@@@@YAXW4__acrt_lock_id@@$$QEAV<lambda_e157831efee4ea0afb0a2ace5dd5fd0d>@@@Z 000000014004c754     libucrtd:per_thread_data.obj
 0002:00011754       $unwind$??$__acrt_lock_and_call@V<lambda_3e16ef9562a7dcce91392c22ab16ea36>@@@@YAXW4__acrt_lock_id@@$$QEAV<lambda_3e16ef9562a7dcce91392c22ab16ea36>@@@Z 000000014004c754     libucrtd:wsetlocale.obj
 0002:00011754       $unwind$??$__acrt_lowio_lock_fh_and_call@V<lambda_4e7105787b7b0e0227fbf2b2d883fa65>@@@@YAHH$$QEAV<lambda_4e7105787b7b0e0227fbf2b2d883fa65>@@@Z 000000014004c754     libucrtd:close.obj
 0002:00011754       $unwind$??$__acrt_lowio_lock_fh_and_call@V<lambda_5533cddd4bda0037814beee657757329>@@@@YAHH$$QEAV<lambda_5533cddd4bda0037814beee657757329>@@@Z 000000014004c754     libucrtd:commit.obj
 0002:00011754       $unwind$??$__acrt_lock_and_call@V<lambda_bd5a608237428601b7e45fbdc72b1ae8>@@@@YAXW4__acrt_lock_id@@$$QEAV<lambda_bd5a608237428601b7e45fbdc72b1ae8>@@@Z 000000014004c754     libucrtd:mbctype.obj
 0002:00011754       $unwind$??$__acrt_lock_and_call@V<lambda_44731a7d0e6d81c3e6aa82d741081786>@@@@YAP6AXH@ZW4__acrt_lock_id@@$$QEAV<lambda_44731a7d0e6d81c3e6aa82d741081786>@@@Z 000000014004c754     libucrtd:signal.obj
 0002:00011754       $unwind$??$__acrt_lock_and_call@V<lambda_6e4b09c48022b2350581041d5f6b0c4c>@@@@YAXW4__acrt_lock_id@@$$QEAV<lambda_6e4b09c48022b2350581041d5f6b0c4c>@@@Z 000000014004c754     libucrtd:exit.obj
 0002:00011754       $unwind$??$__acrt_lock_and_call@V<lambda_3b83eb014488ad801d84acef5aaf14d3>@@@@YAHW4__acrt_lock_id@@$$QEAV<lambda_3b83eb014488ad801d84acef5aaf14d3>@@@Z 000000014004c754     libucrtd:onexit.obj
 0002:00011754       $unwind$??$__acrt_lock_and_call@V<lambda_d121dba8a4adeaf3a9819e48611155df>@@@@YAHW4__acrt_lock_id@@$$QEAV<lambda_d121dba8a4adeaf3a9819e48611155df>@@@Z 000000014004c754     libucrtd:onexit.obj
 0002:00011754       $unwind$??$__acrt_lock_and_call@V<lambda_ab61a845afdef5b7c387490eaf3616ee>@@@@YAXW4__acrt_lock_id@@$$QEAV<lambda_ab61a845afdef5b7c387490eaf3616ee>@@@Z 000000014004c754     libucrtd:fflush.obj
 0002:00011754       $unwind$?state_case_normal_tchar@?$output_processor@DV?$string_output_adapter@D@__crt_stdio_output@@V?$format_validation_base@DV?$string_output_adapter@D@__crt_stdio_output@@@2@@__crt_stdio_output@@AEAA_ND@Z 000000014004c754     libucrtd:output.obj
 0002:00011754       $unwind$?type_case_c_tchar@?$output_processor@DV?$string_output_adapter@D@__crt_stdio_output@@V?$format_validation_base@DV?$string_output_adapter@D@__crt_stdio_output@@@2@@__crt_stdio_output@@AEAA_ND@Z 000000014004c754     libucrtd:output.obj
 0002:00011754       $unwind$__vcrt_FlsSetValue 000000014004c754     libvcruntimed:winapi_downlevel.obj
 0002:0001175c       $unwind$??$common_lseek_nolock@_J@@YA_JH_JH@Z 000000014004c75c     libucrtd:lseek.obj
 0002:0001175c       $unwind$?find_next_state@?$output_processor@DV?$string_output_adapter@D@__crt_stdio_output@@V?$format_validation_base@DV?$string_output_adapter@D@__crt_stdio_output@@@2@@__crt_stdio_output@@AEBA?AW4state@2@DW432@@Z 000000014004c75c     libucrtd:output.obj
 0002:0001175c       $unwind$_controlfp_s       000000014004c75c     libucrtd:contrlfp.obj
 0002:0001175c       $unwind$__vcrt_InitializeCriticalSectionEx 000000014004c75c     libvcruntimed:winapi_downlevel.obj
 0002:00011764       $unwind$?try_get_module@@YAPEAUHINSTANCE__@@W4module_id@?A0x391cf84c@@@Z 000000014004c764     libucrtd:winapi_thunks.obj
 0002:00011764       $unwind$_configthreadlocale 000000014004c764     libucrtd:wsetlocale.obj
 0002:00011764       $unwind$_close             000000014004c764     libucrtd:close.obj
 0002:00011764       $unwind$_commit            000000014004c764     libucrtd:commit.obj
 0002:00011764       $unwind$?common_flush_all@@YAH_N@Z 000000014004c764     libucrtd:fflush.obj
 0002:00011764       $unwind$?try_get_module@@YAPEAUHINSTANCE__@@W4module_id@?A0x61a31dd3@@@Z 000000014004c764     libvcruntimed:winapi_downlevel.obj
 0002:0001176c       $unwind$?try_get_proc_address_from_first_available_module@@YAPEAXQEBDQEBW4module_id@?A0x391cf84c@@1@Z 000000014004c76c     libucrtd:winapi_thunks.obj
 0002:0001176c       $unwind$?common_lseek_do_seek_nolock@@YA_JQEAX_JH@Z 000000014004c76c     libucrtd:lseek.obj
 0002:0001176c       $unwind$?allocate@__crt_win32_buffer_internal_dynamic_resizing@@SAHQEAPEAX_KAEBV__crt_win32_buffer_empty_debug_info@@@Z 000000014004c76c     libucrtd:argv_wildcards.obj
 0002:0001176c       $unwind$?type_case_s_compute_narrow_string_length@?$output_processor@_WV?$string_output_adapter@_W@__crt_stdio_output@@V?$format_validation_base@_WV?$string_output_adapter@_W@__crt_stdio_output@@@2@@__crt_stdio_output@@AEBAHH_W@Z 000000014004c76c     libucrtd:output.obj
 0002:0001176c       $unwind$?GetUnwindTryBlock@__FrameHandler3@@SAHPEA_KPEAU_xDISPATCHER_CONTEXT@@PEBU_s_FuncInfo@@@Z 000000014004c76c     libvcruntimed:ehstate.obj
 0002:0001176c       $unwind$?StateFromIp@__FrameHandler3@@SAHPEBU_s_FuncInfo@@PEAU_xDISPATCHER_CONTEXT@@_K@Z 000000014004c76c     libvcruntimed:ehstate.obj
 0002:0001176c       $unwind$?ExFilterRethrow@@YAHPEAU_EXCEPTION_POINTERS@@PEAUEHExceptionRecord@@PEAH@Z 000000014004c76c     libvcruntimed:frame.obj
 0002:0001176c       $unwind$?GetHandlerSearchState@__FrameHandler3@@SAHPEA_KPEAU_xDISPATCHER_CONTEXT@@PEBU_s_FuncInfo@@@Z 000000014004c76c     libvcruntimed:frame.obj
 0002:0001176c       $unwind$?_CallMemberFunction1@@YAXQEAX00@Z 000000014004c76c     libvcruntimed:frame.obj
 0002:0001176c       $unwind$?try_get_proc_address_from_first_available_module@@YAPEAXQEBDQEBW4module_id@?A0x61a31dd3@@1@Z 000000014004c76c     libvcruntimed:winapi_downlevel.obj
 0002:00011774       $unwind$?try_get_function@@YAPEAXW4function_id@?A0x391cf84c@@QEBDQEBW4module_id@2@2@Z 000000014004c774     libucrtd:winapi_thunks.obj
 0002:00011774       $unwind$_CrtDbgReport      000000014004c774     libucrtd:dbgrpt.obj
 0002:00011774       $unwind$_CrtDbgReportW     000000014004c774     libucrtd:dbgrpt.obj
 0002:00011774       $unwind$_call_matherr      000000014004c774     libucrtd:libm_error.obj
 0002:00011774       $unwind$?try_get_function@@YAPEAXW4function_id@?A0x61a31dd3@@QEBDQEBW4module_id@2@2@Z 000000014004c774     libvcruntimed:winapi_downlevel.obj
 0002:00011780       $xdatasym                  000000014004c780     libvcruntimed:memcpy.obj
 0002:00011790       $unwind$??$common_show_message_box@_W@@YAHQEB_W0I@Z 000000014004c790     libucrtd:crtmbox.obj
 0002:00011790       $unwind$?find_next_state@?$output_processor@_WV?$string_output_adapter@_W@__crt_stdio_output@@V?$format_validation_base@_WV?$string_output_adapter@_W@__crt_stdio_output@@@2@@__crt_stdio_output@@AEBA?AW4state@2@_WW432@@Z 000000014004c790     libucrtd:output.obj
 0002:00011790       $unwind$?FrameUnwindToEmptyState@__FrameHandler3@@SAXPEA_KPEAU_xDISPATCHER_CONTEXT@@PEBU_s_FuncInfo@@@Z 000000014004c790     libvcruntimed:risctrnsctrl.obj
 0002:00011798       $unwind$_recalloc_dbg      000000014004c798     libucrtd:debug_heap.obj
